
========================================================================

** ELF Header Information

    File Name: .\obj\iwdg.axf

    Machine class: ELFCLASS32 (32-bit)
    Data encoding: ELFDATA2LSB (Little endian)
    Header version: EV_CURRENT (Current version)
    Operating System ABI: none
    ABI Version: 0
    File Type: ET_EXEC (Executable) (2)
    Machine: EM_ARM (ARM)

    Image Entry point: 0x00010181
    Flags: EF_ARM_HASENTRY (0x05000002)

    ARM ELF revision: 5 (ABI version 2)

    Conforms to Base float procedure-call standard

    Built with
    Component: ARM Compiler 5.06 update 1 (build 61) Tool: armasm [4d35a5]
    Component: ARM Compiler 5.05 update 1 (build 106) Tool: armasm [4d0efa]
    Component: ARM Compiler 5.06 update 1 (build 61) Tool: armlink [4d35a8]
    Component: ARM Compiler 5.05 update 1 (build 106) Tool: armlink [4d0efa]

    Header size: 52 bytes (0x34)
    Program header entry size: 32 bytes (0x20)
    Section header entry size: 40 bytes (0x28)

    Program header entries: 1
    Section header entries: 26

    Program header offset: 1194584 (0x00123a58)
    Section header offset: 1194616 (0x00123a78)

    Section header string table index: 25

========================================================================

** Program header #0 (PT_LOAD) [PF_X + PF_W + PF_R + PF_ARM_ENTRY]
    Size : 65032 bytes (52748 bytes in file)
    Virtual address: 0x00010000 (Alignment 512)


========================================================================

** Section #1 'VECTOR_REGION' (SHT_PROGBITS) [SHF_ALLOC + SHF_EXECINSTR]
    Size   : 64 bytes (alignment 16)
    Address: 0x00010000

    $d
    .exc_vector_table._vector_table_section
        0x00010000:    c001ea08    ....    DCD    3221350920
        0x00010004:    00019621    !...    DCD    103969
        0x00010008:    00018be9    ....    DCD    101353
        0x0001000c:    000195f1    ....    DCD    103921
        0x00010010:    000195f1    ....    DCD    103921
        0x00010014:    000195f1    ....    DCD    103921
        0x00010018:    000195f1    ....    DCD    103921
        0x0001001c:    000195f1    ....    DCD    103921
        0x00010020:    000195f1    ....    DCD    103921
        0x00010024:    000195f1    ....    DCD    103921
        0x00010028:    000195f1    ....    DCD    103921
        0x0001002c:    00018a8b    ....    DCD    101003
        0x00010030:    000195f1    ....    DCD    103921
        0x00010034:    000195f1    ....    DCD    103921
        0x00010038:    00018a3f    ?...    DCD    100927
        0x0001003c:    00010679    y...    DCD    67193

** Section #2 'VECTOR_REGION' (SHT_PROGBITS) [SHF_ALLOC + SHF_WRITE]
    Size   : 320 bytes (alignment 4)
    Address: 0x00010040


** Section #3 'TEXT_REGION' (SHT_PROGBITS) [SHF_ALLOC + SHF_EXECINSTR]
    Size   : 39864 bytes (alignment 16)
    Address: 0x00010180

    $t
    .ARM.Collect$$$$00000000
    .ARM.Collect$$$$00000001
    __main
    _main_stk
        0x00010180:    f8dfd00c    ....    LDR      sp,__lit__00000000 ; [0x10190] = 0xc001ada0
    .ARM.Collect$$$$00000004
    _main_scatterload
        0x00010184:    f009fa0a    ....    BL       __scatterload ; 0x1959c
    .ARM.Collect$$$$00000008
    .ARM.Collect$$$$0000000A
    .ARM.Collect$$$$0000000B
    __main_after_scatterload
    _main_clock
    _main_cpp_init
    _main_init
        0x00010188:    4800        .H      LDR      r0,[pc,#0] ; [0x1018c] = 0x10195
        0x0001018a:    4700        .G      BX       r0
    $d
        0x0001018c:    00010195    ....    DCD    65941
    .ARM.Collect$$$$00002712
    __lit__00000000
    .ARM.Collect$$$$0000000D
    .ARM.Collect$$$$0000000F
    __rt_final_cpp
    __rt_final_exit
        0x00010190:    c001ada0    ....    DCD    3221335456
    $t
    .text
    main
        0x00010194:    b086        ..      SUB      sp,sp,#0x18
        0x00010196:    f04f4480    O..D    MOV      r4,#0x40000000
        0x0001019a:    6860        `h      LDR      r0,[r4,#4]
        0x0001019c:    b2c1        ..      UXTB     r1,r0
        0x0001019e:    a029        ).      ADR      r0,{pc}+0xa6 ; 0x10244
        0x000101a0:    f009fa6c    ..l.    BL       __0printf$5 ; 0x1967c
        0x000101a4:    6860        `h      LDR      r0,[r4,#4]
        0x000101a6:    f0400020    @. .    ORR      r0,r0,#0x20
        0x000101aa:    6060        ``      STR      r0,[r4,#4]
        0x000101ac:    6860        `h      LDR      r0,[r4,#4]
        0x000101ae:    b2c1        ..      UXTB     r1,r0
        0x000101b0:    a024        $.      ADR      r0,{pc}+0x94 ; 0x10244
        0x000101b2:    f009fa63    ..c.    BL       __0printf$5 ; 0x1967c
        0x000101b6:    6da1        .m      LDR      r1,[r4,#0x58]
        0x000101b8:    a028        (.      ADR      r0,{pc}+0xa4 ; 0x1025c
        0x000101ba:    f007fddf    ....    BL       printk ; 0x17d7c
        0x000101be:    6da0        .m      LDR      r0,[r4,#0x58]
        0x000101c0:    f0400001    @...    ORR      r0,r0,#1
        0x000101c4:    65a0        .e      STR      r0,[r4,#0x58]
        0x000101c6:    6da1        .m      LDR      r1,[r4,#0x58]
        0x000101c8:    a028        (.      ADR      r0,{pc}+0xa4 ; 0x1026c
        0x000101ca:    f007fdd7    ....    BL       printk ; 0x17d7c
        0x000101ce:    a22c        ,.      ADR      r2,{pc}+0xb2 ; 0x10280
        0x000101d0:    492e        .I      LDR      r1,[pc,#184] ; [0x1028c] = 0xbebc200
        0x000101d2:    a02f        /.      ADR      r0,{pc}+0xbe ; 0x10290
        0x000101d4:    f007fdd2    ....    BL       printk ; 0x17d7c
        0x000101d8:    a036        6.      ADR      r0,{pc}+0xdc ; 0x102b4
        0x000101da:    f006fbcc    ....    BL       device_get_binding ; 0x16976
        0x000101de:    0005        ..      MOVS     r5,r0
        0x000101e0:    bf04        ..      ITT      EQ
        0x000101e2:    a036        6.      ADREQ    r0,{pc}+0xda ; 0x102bc
        0x000101e4:    f007fdca    ....    BLEQ     printk ; 0x17d7c
        0x000101e8:    f44f707a    O.zp    MOV      r0,#0x3e8
        0x000101ec:    9000        ..      STR      r0,[sp,#0]
        0x000101ee:    2000        .       MOVS     r0,#0
        0x000101f0:    2106        .!      MOVS     r1,#6
        0x000101f2:    f88d0004    ....    STRB     r0,[sp,#4]
        0x000101f6:    f8ad1010    ....    STRH     r1,[sp,#0x10]
        0x000101fa:    9005        ..      STR      r0,[sp,#0x14]
        0x000101fc:    686a        jh      LDR      r2,[r5,#4]
        0x000101fe:    4628        (F      MOV      r0,r5
        0x00010200:    4669        iF      MOV      r1,sp
        0x00010202:    68d2        .h      LDR      r2,[r2,#0xc]
        0x00010204:    4790        .G      BLX      r2
        0x00010206:    686a        jh      LDR      r2,[r5,#4]
        0x00010208:    4628        (F      MOV      r0,r5
        0x0001020a:    4669        iF      MOV      r1,sp
        0x0001020c:    6892        .h      LDR      r2,[r2,#8]
        0x0001020e:    4790        .G      BLX      r2
        0x00010210:    6869        ih      LDR      r1,[r5,#4]
        0x00010212:    4628        (F      MOV      r0,r5
        0x00010214:    6809        .h      LDR      r1,[r1,#0]
        0x00010216:    4788        .G      BLX      r1
        0x00010218:    2404        .$      MOVS     r4,#4
        0x0001021a:    e001        ..      B        0x10220 ; main + 140
        0x0001021c:    1e64        d.      SUBS     r4,r4,#1
        0x0001021e:    d3fd        ..      BCC      0x1021c ; main + 136
        0x00010220:    6869        ih      LDR      r1,[r5,#4]
        0x00010222:    4628        (F      MOV      r0,r5
        0x00010224:    6909        .i      LDR      r1,[r1,#0x10]
        0x00010226:    4788        .G      BLX      r1
        0x00010228:    f44f7048    O.Hp    MOV      r0,#0x320
        0x0001022c:    f006f806    ....    BL       _impl_k_sleep ; 0x1623c
        0x00010230:    a029        ).      ADR      r0,{pc}+0xa8 ; 0x102d8
        0x00010232:    f009fa23    ..#.    BL       __0printf$5 ; 0x1967c
        0x00010236:    2c00        .,      CMP      r4,#0
        0x00010238:    d1f0        ..      BNE      0x1021c ; main + 136
        0x0001023a:    a02a        *.      ADR      r0,{pc}+0xaa ; 0x102e4
        0x0001023c:    f007fd9e    ....    BL       printk ; 0x17d7c
        0x00010240:    e7fe        ..      B        0x10240 ; main + 172
    $d
        0x00010242:    0000        ..      DCW    0
        0x00010244:    67647769    iwdg    DCD    1734637417
        0x00010248:    61747320     sta    DCD    1635021600
        0x0001024c:    20737574    tus     DCD    544437620
        0x00010250:    35746962    bit5    DCD    896821602
        0x00010254:    2578303a    :0x%    DCD    628633658
        0x00010258:    00000a78    x...    DCD    2680
        0x0001025c:    4742440d    .DBG    DCD    1195525133
        0x00010260:    4c525443    CTRL    DCD    1280463939
        0x00010264:    2558303a    :0X%    DCD    626536506
        0x00010268:    00000a58    X...    DCD    2648
        0x0001026c:    7465530d    .Set    DCD    1952797453
        0x00010270:    47424420     DBG    DCD    1195525152
        0x00010274:    4c525443    CTRL    DCD    1280463939
        0x00010278:    2558303a    :0X%    DCD    626536506
        0x0001027c:    00000a58    X...    DCD    2648
        0x00010280:    20636544    Dec     DCD    543384900
        0x00010284:    32203932    29 2    DCD    840972594
        0x00010288:    00393130    019.    DCD    3748144
        0x0001028c:    0bebc200    ....    DCD    200000000
        0x00010290:    72617453    Star    DCD    1918989395
        0x00010294:    77692074    t iw    DCD    2003378292
        0x00010298:    74206764    dg t    DCD    1948280676
        0x0001029c:    2c747365    est,    DCD    745829221
        0x000102a0:    63737973    sysc    DCD    1668512115
        0x000102a4:    253a6b6c    lk:%    DCD    624585580
        0x000102a8:    61642c64    d,da    DCD    1633954916
        0x000102ac:    253a6574    te:%    DCD    624584052
        0x000102b0:    00000a73    s...    DCD    2675
        0x000102b4:    47445749    IWDG    DCD    1195661129
        0x000102b8:    00000000    ....    DCD    0
        0x000102bc:    6e6e6143    Cann    DCD    1852727619
        0x000102c0:    67207427    't g    DCD    1730180135
        0x000102c4:    47207465    et G    DCD    1193309285
        0x000102c8:    57492d4d    M-IW    DCD    1464413517
        0x000102cc:    44204744    DG D    DCD    1142966084
        0x000102d0:    63697665    evic    DCD    1667855973
        0x000102d4:    00000a65    e...    DCD    2661
        0x000102d8:    64656566    feed    DCD    1684366694
        0x000102dc:    67647769    iwdg    DCD    1734637417
        0x000102e0:    0000000a    ....    DCD    10
        0x000102e4:    74696177    wait    DCD    1953063287
        0x000102e8:    20676e69    ing     DCD    543649385
        0x000102ec:    20726f66    for     DCD    544370534
        0x000102f0:    67647769    iwdg    DCD    1734637417
        0x000102f4:    73657220     res    DCD    1936028192
        0x000102f8:    0d217465    et!.    DCD    220296293
        0x000102fc:    0000000a    ....    DCD    10
    $t
    .text
    gm6721x_init
        0x00010300:    b510        ..      PUSH     {r4,lr}
        0x00010302:    2120         !      MOVS     r1,#0x20
        0x00010304:    f3ef8011    ....    MRS      r0,BASEPRI
        0x00010308:    f3818811    ....    MSR      BASEPRI,r1
        0x0001030c:    f3bf8f4f    ..O.    DSB      
        0x00010310:    f3bf8f6f    ..o.    ISB      
        0x00010314:    4a07        .J      LDR      r2,[pc,#28] ; [0x10334] = 0xe000ed28
        0x00010316:    f04f31ff    O..1    MOV      r1,#0xffffffff
        0x0001031a:    6011        .`      STR      r1,[r2,#0]
        0x0001031c:    1d12        ..      ADDS     r2,r2,#4
        0x0001031e:    6011        .`      STR      r1,[r2,#0]
        0x00010320:    f3808811    ....    MSR      BASEPRI,r0
        0x00010324:    f3bf8f4f    ..O.    DSB      
        0x00010328:    f3bf8f6f    ..o.    ISB      
        0x0001032c:    f000f804    ....    BL       SystemInit ; 0x10338
        0x00010330:    2000        .       MOVS     r0,#0
        0x00010332:    bd10        ..      POP      {r4,pc}
    $d
        0x00010334:    e000ed28    (...    DCD    3758157096
    $t
    .text
    SystemInit
        0x00010338:    b508        ..      PUSH     {r3,lr}
        0x0001033a:    2003        .       MOVS     r0,#3
        0x0001033c:    f88d0000    ....    STRB     r0,[sp,#0]
        0x00010340:    2000        .       MOVS     r0,#0
        0x00010342:    f8ad0002    ....    STRH     r0,[sp,#2]
        0x00010346:    f002fb56    ..V.    BL       HAL_CLOCK_PLLsReferenceClock ; 0x129f6
        0x0001034a:    4668        hF      MOV      r0,sp
        0x0001034c:    f002f9da    ....    BL       HAL_CLOCK_SYSCLKConfig ; 0x12704
        0x00010350:    bd08        ..      POP      {r3,pc}
    .text
    HAL_IrqUnlock
        0x00010352:    4770        pG      BX       lr
    HAL_IrqLock
        0x00010354:    4770        pG      BX       lr
    HAL_LockInit
        0x00010356:    b510        ..      PUSH     {r4,lr}
        0x00010358:    4604        .F      MOV      r4,r0
        0x0001035a:    f7fffffb    ....    BL       HAL_IrqLock ; 0x10354
        0x0001035e:    2000        .       MOVS     r0,#0
        0x00010360:    7020         p      STRB     r0,[r4,#0]
        0x00010362:    f7fffff6    ....    BL       HAL_IrqUnlock ; 0x10352
        0x00010366:    bd10        ..      POP      {r4,pc}
    HAL_TryLock
        0x00010368:    b570        p.      PUSH     {r4-r6,lr}
        0x0001036a:    4604        .F      MOV      r4,r0
        0x0001036c:    2500        .%      MOVS     r5,#0
        0x0001036e:    f7fffff1    ....    BL       HAL_IrqLock ; 0x10354
        0x00010372:    7820         x      LDRB     r0,[r4,#0]
        0x00010374:    2801        .(      CMP      r0,#1
        0x00010376:    bf0e        ..      ITEE     EQ
        0x00010378:    2502        .%      MOVEQ    r5,#2
        0x0001037a:    2001        .       MOVNE    r0,#1
        0x0001037c:    7020         p      STRBNE   r0,[r4,#0]
        0x0001037e:    f7ffffe8    ....    BL       HAL_IrqUnlock ; 0x10352
        0x00010382:    4628        (F      MOV      r0,r5
        0x00010384:    bd70        p.      POP      {r4-r6,pc}
    HAL_UnLock
        0x00010386:    b510        ..      PUSH     {r4,lr}
        0x00010388:    4604        .F      MOV      r4,r0
        0x0001038a:    f7ffffe3    ....    BL       HAL_IrqLock ; 0x10354
        0x0001038e:    2000        .       MOVS     r0,#0
        0x00010390:    7020         p      STRB     r0,[r4,#0]
        0x00010392:    f7ffffde    ....    BL       HAL_IrqUnlock ; 0x10352
        0x00010396:    bd10        ..      POP      {r4,pc}
    HAL_GetTick
        0x00010398:    2000        .       MOVS     r0,#0
        0x0001039a:    4770        pG      BX       lr
    HAL_DelayMs
        0x0001039c:    4770        pG      BX       lr
    HAL_DelayUs
        0x0001039e:    4770        pG      BX       lr
    HAL_DisableIrq
        0x000103a0:    4770        pG      BX       lr
    HAL_EnableIrq
        0x000103a2:    4770        pG      BX       lr
    .text
    gm_uart_pm_control
        0x000103a4:    2000        .       MOVS     r0,#0
        0x000103a6:    4bac        .K      LDR      r3,[pc,#688] ; [0x10658] = 0xc0019d38
        0x000103a8:    2901        .)      CMP      r1,#1
        0x000103aa:    d004        ..      BEQ      0x103b6 ; gm_uart_pm_control + 18
        0x000103ac:    2902        .)      CMP      r1,#2
        0x000103ae:    bf04        ..      ITT      EQ
        0x000103b0:    6818        .h      LDREQ    r0,[r3,#0]
        0x000103b2:    6010        .`      STREQ    r0,[r2,#0]
        0x000103b4:    4770        pG      BX       lr
        0x000103b6:    6811        .h      LDR      r1,[r2,#0]
        0x000103b8:    6019        .`      STR      r1,[r3,#0]
        0x000103ba:    2901        .)      CMP      r1,#1
        0x000103bc:    bf14        ..      ITE      NE
        0x000103be:    2902        .)      CMPNE    r1,#2
        0x000103c0:    4770        pG      BXEQ     lr
        0x000103c2:    2903        .)      CMP      r1,#3
        0x000103c4:    bf1c        ..      ITT      NE
        0x000103c6:    2904        .)      CMPNE    r1,#4
        0x000103c8:    f06f0015    o...    MVNNE    r0,#0x15
        0x000103cc:    4770        pG      BX       lr
    uart_gm_init
        0x000103ce:    e92d47f0    -..G    PUSH     {r4-r10,lr}
        0x000103d2:    4606        .F      MOV      r6,r0
        0x000103d4:    6800        .h      LDR      r0,[r0,#0]
        0x000103d6:    68b2        .h      LDR      r2,[r6,#8]
        0x000103d8:    2300        .#      MOVS     r3,#0
        0x000103da:    68c5        .h      LDR      r5,[r0,#0xc]
        0x000103dc:    2703        .'      MOVS     r7,#3
        0x000103de:    4c9f        .L      LDR      r4,[pc,#636] ; [0x1065c] = 0x7a1200
        0x000103e0:    6829        )h      LDR      r1,[r5,#0]
        0x000103e2:    f8df927c    ..|.    LDR      r9,[pc,#636] ; [0x10660] = 0x40005000
        0x000103e6:    f8dfa27c    ..|.    LDR      r10,[pc,#636] ; [0x10664] = 0x40006000
        0x000103ea:    b086        ..      SUB      sp,sp,#0x18
        0x000103ec:    f1020808    ....    ADD      r8,r2,#8
        0x000103f0:    f44f4096    O..@    MOV      r0,#0x4b00
        0x000103f4:    f04f0c01    O...    MOV      r12,#1
        0x000103f8:    f1b12f40    ..@/    CMP      r1,#0x40004000
        0x000103fc:    d00c        ..      BEQ      0x10418 ; uart_gm_init + 74
        0x000103fe:    4549        IE      CMP      r1,r9
        0x00010400:    d114        ..      BNE      0x1042c ; uart_gm_init + 94
        0x00010402:    f882c004    ....    STRB     r12,[r2,#4]
        0x00010406:    f88dc004    ....    STRB     r12,[sp,#4]
        0x0001040a:    f88d7005    ...p    STRB     r7,[sp,#5]
        0x0001040e:    9000        ..      STR      r0,[sp,#0]
        0x00010410:    f88d3006    ...0    STRB     r3,[sp,#6]
        0x00010414:    9402        ..      STR      r4,[sp,#8]
        0x00010416:    e017        ..      B        0x10448 ; uart_gm_init + 122
        0x00010418:    7113        .q      STRB     r3,[r2,#4]
        0x0001041a:    f88dc004    ....    STRB     r12,[sp,#4]
        0x0001041e:    f88d7005    ...p    STRB     r7,[sp,#5]
        0x00010422:    9000        ..      STR      r0,[sp,#0]
        0x00010424:    f88d3006    ...0    STRB     r3,[sp,#6]
        0x00010428:    9402        ..      STR      r4,[sp,#8]
        0x0001042a:    e00d        ..      B        0x10448 ; uart_gm_init + 122
        0x0001042c:    4551        QE      CMP      r1,r10
        0x0001042e:    d10b        ..      BNE      0x10448 ; uart_gm_init + 122
        0x00010430:    f04f0902    O...    MOV      r9,#2
        0x00010434:    f8829004    ....    STRB     r9,[r2,#4]
        0x00010438:    f88dc004    ....    STRB     r12,[sp,#4]
        0x0001043c:    f88d7005    ...p    STRB     r7,[sp,#5]
        0x00010440:    9000        ..      STR      r0,[sp,#0]
        0x00010442:    f88d3006    ...0    STRB     r3,[sp,#6]
        0x00010446:    9402        ..      STR      r4,[sp,#8]
        0x00010448:    466a        jF      MOV      r2,sp
        0x0001044a:    4640        @F      MOV      r0,r8
        0x0001044c:    f000fd14    ....    BL       HAL_UART_Init ; 0x10e78
        0x00010450:    2800        .(      CMP      r0,#0
        0x00010452:    bf1c        ..      ITT      NE
        0x00010454:    b006        ..      ADDNE    sp,sp,#0x18
        0x00010456:    e8bd87f0    ....    POPNE    {r4-r10,pc}
        0x0001045a:    4630        0F      MOV      r0,r6
        0x0001045c:    68a9        .h      LDR      r1,[r5,#8]
        0x0001045e:    4788        .G      BLX      r1
        0x00010460:    b006        ..      ADD      sp,sp,#0x18
        0x00010462:    2000        .       MOVS     r0,#0
        0x00010464:    e8bd87f0    ....    POP      {r4-r10,pc}
    uart_gm_poll_in
        0x00010468:    b570        p.      PUSH     {r4-r6,lr}
        0x0001046a:    6800        .h      LDR      r0,[r0,#0]
        0x0001046c:    460c        .F      MOV      r4,r1
        0x0001046e:    68c0        .h      LDR      r0,[r0,#0xc]
        0x00010470:    6805        .h      LDR      r5,[r0,#0]
        0x00010472:    4628        (F      MOV      r0,r5
        0x00010474:    f001faee    ....    BL       HAL_UART_DataReady ; 0x11a54
        0x00010478:    2800        .(      CMP      r0,#0
        0x0001047a:    d0fa        ..      BEQ      0x10472 ; uart_gm_poll_in + 10
        0x0001047c:    4628        (F      MOV      r0,r5
        0x0001047e:    f001fb23    ..#.    BL       HAL_UART_GetChar ; 0x11ac8
        0x00010482:    7020         p      STRB     r0,[r4,#0]
        0x00010484:    2000        .       MOVS     r0,#0
        0x00010486:    bd70        p.      POP      {r4-r6,pc}
    uart_gm_poll_out
        0x00010488:    b510        ..      PUSH     {r4,lr}
        0x0001048a:    6800        .h      LDR      r0,[r0,#0]
        0x0001048c:    460c        .F      MOV      r4,r1
        0x0001048e:    68c0        .h      LDR      r0,[r0,#0xc]
        0x00010490:    6800        .h      LDR      r0,[r0,#0]
        0x00010492:    f001fb13    ....    BL       HAL_UART_PutChar ; 0x11abc
        0x00010496:    4620         F      MOV      r0,r4
        0x00010498:    bd10        ..      POP      {r4,pc}
    uart_gm_err_check
        0x0001049a:    b510        ..      PUSH     {r4,lr}
        0x0001049c:    6800        .h      LDR      r0,[r0,#0]
        0x0001049e:    68c0        .h      LDR      r0,[r0,#0xc]
        0x000104a0:    6804        .h      LDR      r4,[r0,#0]
        0x000104a2:    4620         F      MOV      r0,r4
        0x000104a4:    f001faf5    ....    BL       HAL_UART_Error_Enabled ; 0x11a92
        0x000104a8:    b130        0.      CBZ      r0,0x104b8 ; uart_gm_err_check + 30
        0x000104aa:    4620         F      MOV      r0,r4
        0x000104ac:    f001faf7    ....    BL       HAL_UART_Error_Ready ; 0x11a9e
        0x000104b0:    2800        .(      CMP      r0,#0
        0x000104b2:    bf1c        ..      ITT      NE
        0x000104b4:    2001        .       MOVNE    r0,#1
        0x000104b6:    bd10        ..      POPNE    {r4,pc}
        0x000104b8:    2000        .       MOVS     r0,#0
        0x000104ba:    bd10        ..      POP      {r4,pc}
    uart_gm_isr
        0x000104bc:    b570        p.      PUSH     {r4-r6,lr}
        0x000104be:    4604        .F      MOV      r4,r0
        0x000104c0:    6885        .h      LDR      r5,[r0,#8]
        0x000104c2:    6800        .h      LDR      r0,[r0,#0]
        0x000104c4:    68c0        .h      LDR      r0,[r0,#0xc]
        0x000104c6:    6806        .h      LDR      r6,[r0,#0]
        0x000104c8:    4630        0F      MOV      r0,r6
        0x000104ca:    f001faa1    ....    BL       HAL_UART_TxInt_Ready ; 0x11a10
        0x000104ce:    2800        .(      CMP      r0,#0
        0x000104d0:    bf1c        ..      ITT      NE
        0x000104d2:    4630        0F      MOVNE    r0,r6
        0x000104d4:    f001faa0    ....    BLNE     HAL_UART_Clear_TxInt ; 0x11a18
        0x000104d8:    4630        0F      MOV      r0,r6
        0x000104da:    f001fae0    ....    BL       HAL_UART_Error_Ready ; 0x11a9e
        0x000104de:    2800        .(      CMP      r0,#0
        0x000104e0:    bf1c        ..      ITT      NE
        0x000104e2:    4630        0F      MOVNE    r0,r6
        0x000104e4:    f001fae1    ....    BLNE     HAL_UART_Clear_ErrInt ; 0x11aaa
        0x000104e8:    6829        )h      LDR      r1,[r5,#0]
        0x000104ea:    2900        .)      CMP      r1,#0
        0x000104ec:    bf08        ..      IT       EQ
        0x000104ee:    bd70        p.      POPEQ    {r4-r6,pc}
        0x000104f0:    4620         F      MOV      r0,r4
        0x000104f2:    e8bd4070    ..p@    POP      {r4-r6,lr}
        0x000104f6:    4708        .G      BX       r1
    uart_gm_irq_config
        0x000104f8:    b510        ..      PUSH     {r4,lr}
        0x000104fa:    6880        .h      LDR      r0,[r0,#8]
        0x000104fc:    7900        .y      LDRB     r0,[r0,#4]
        0x000104fe:    b1a0        ..      CBZ      r0,0x1052a ; uart_gm_irq_config + 50
        0x00010500:    2801        .(      CMP      r0,#1
        0x00010502:    d022        ".      BEQ      0x1054a ; uart_gm_irq_config + 82
        0x00010504:    2802        .(      CMP      r0,#2
        0x00010506:    bf18        ..      IT       NE
        0x00010508:    bd10        ..      POPNE    {r4,pc}
        0x0001050a:    4b57        WK      LDR      r3,[pc,#348] ; [0x10668] = 0xc001a718
        0x0001050c:    4a57        WJ      LDR      r2,[pc,#348] ; [0x1066c] = 0x104bd
        0x0001050e:    2100        .!      MOVS     r1,#0
        0x00010510:    2014        .       MOVS     r0,#0x14
        0x00010512:    f008fb71    ..q.    BL       _sw_isr_table_set ; 0x18bf8
        0x00010516:    2200        ."      MOVS     r2,#0
        0x00010518:    2103        .!      MOVS     r1,#3
        0x0001051a:    2014        .       MOVS     r0,#0x14
        0x0001051c:    f008fb30    ..0.    BL       _irq_priority_set ; 0x18b80
        0x00010520:    e8bd4010    ...@    POP      {r4,lr}
        0x00010524:    2014        .       MOVS     r0,#0x14
        0x00010526:    f008baff    ....    B.W      _arch_irq_enable ; 0x18b28
        0x0001052a:    4b51        QK      LDR      r3,[pc,#324] ; [0x10670] = 0xc001a6f0
        0x0001052c:    4a4f        OJ      LDR      r2,[pc,#316] ; [0x1066c] = 0x104bd
        0x0001052e:    2100        .!      MOVS     r1,#0
        0x00010530:    2012        .       MOVS     r0,#0x12
        0x00010532:    f008fb61    ..a.    BL       _sw_isr_table_set ; 0x18bf8
        0x00010536:    2200        ."      MOVS     r2,#0
        0x00010538:    2103        .!      MOVS     r1,#3
        0x0001053a:    2012        .       MOVS     r0,#0x12
        0x0001053c:    f008fb20    .. .    BL       _irq_priority_set ; 0x18b80
        0x00010540:    e8bd4010    ...@    POP      {r4,lr}
        0x00010544:    2012        .       MOVS     r0,#0x12
        0x00010546:    f008baef    ....    B.W      _arch_irq_enable ; 0x18b28
        0x0001054a:    4b4a        JK      LDR      r3,[pc,#296] ; [0x10674] = 0xc001a704
        0x0001054c:    4a47        GJ      LDR      r2,[pc,#284] ; [0x1066c] = 0x104bd
        0x0001054e:    2100        .!      MOVS     r1,#0
        0x00010550:    2013        .       MOVS     r0,#0x13
        0x00010552:    f008fb51    ..Q.    BL       _sw_isr_table_set ; 0x18bf8
        0x00010556:    2200        ."      MOVS     r2,#0
        0x00010558:    2103        .!      MOVS     r1,#3
        0x0001055a:    2013        .       MOVS     r0,#0x13
        0x0001055c:    f008fb10    ....    BL       _irq_priority_set ; 0x18b80
        0x00010560:    e8bd4010    ...@    POP      {r4,lr}
        0x00010564:    2013        .       MOVS     r0,#0x13
        0x00010566:    f008badf    ....    B.W      _arch_irq_enable ; 0x18b28
    uart_gm_fifo_fill
        0x0001056a:    e92d41f0    -..A    PUSH     {r4-r8,lr}
        0x0001056e:    6800        .h      LDR      r0,[r0,#0]
        0x00010570:    1e15        ..      SUBS     r5,r2,#0
        0x00010572:    460e        .F      MOV      r6,r1
        0x00010574:    68c0        .h      LDR      r0,[r0,#0xc]
        0x00010576:    f04f0400    O...    MOV      r4,#0
        0x0001057a:    6807        .h      LDR      r7,[r0,#0]
        0x0001057c:    dd06        ..      BLE      0x1058c ; uart_gm_fifo_fill + 34
        0x0001057e:    5d31        1]      LDRB     r1,[r6,r4]
        0x00010580:    4638        8F      MOV      r0,r7
        0x00010582:    1c64        d.      ADDS     r4,r4,#1
        0x00010584:    f001fa9a    ....    BL       HAL_UART_PutChar ; 0x11abc
        0x00010588:    42a5        .B      CMP      r5,r4
        0x0001058a:    dcf8        ..      BGT      0x1057e ; uart_gm_fifo_fill + 20
        0x0001058c:    4620         F      MOV      r0,r4
        0x0001058e:    e8bd81f0    ....    POP      {r4-r8,pc}
    uart_gm_fifo_read
        0x00010592:    e92d41f0    -..A    PUSH     {r4-r8,lr}
        0x00010596:    6800        .h      LDR      r0,[r0,#0]
        0x00010598:    1e15        ..      SUBS     r5,r2,#0
        0x0001059a:    460e        .F      MOV      r6,r1
        0x0001059c:    68c0        .h      LDR      r0,[r0,#0xc]
        0x0001059e:    f04f0400    O...    MOV      r4,#0
        0x000105a2:    6807        .h      LDR      r7,[r0,#0]
        0x000105a4:    dd06        ..      BLE      0x105b4 ; uart_gm_fifo_read + 34
        0x000105a6:    4638        8F      MOV      r0,r7
        0x000105a8:    f001fa8e    ....    BL       HAL_UART_GetChar ; 0x11ac8
        0x000105ac:    5530        0U      STRB     r0,[r6,r4]
        0x000105ae:    1c64        d.      ADDS     r4,r4,#1
        0x000105b0:    42a5        .B      CMP      r5,r4
        0x000105b2:    dcf8        ..      BGT      0x105a6 ; uart_gm_fifo_read + 20
        0x000105b4:    4620         F      MOV      r0,r4
        0x000105b6:    e8bd81f0    ....    POP      {r4-r8,pc}
    uart_gm_irq_tx_enable
        0x000105ba:    6800        .h      LDR      r0,[r0,#0]
        0x000105bc:    210a        .!      MOVS     r1,#0xa
        0x000105be:    68c0        .h      LDR      r0,[r0,#0xc]
        0x000105c0:    6800        .h      LDR      r0,[r0,#0]
        0x000105c2:    f000bdfa    ....    B.W      HAL_UART_EnableInterrupts ; 0x111ba
    uart_gm_irq_tx_disable
        0x000105c6:    6800        .h      LDR      r0,[r0,#0]
        0x000105c8:    210a        .!      MOVS     r1,#0xa
        0x000105ca:    68c0        .h      LDR      r0,[r0,#0xc]
        0x000105cc:    6800        .h      LDR      r0,[r0,#0]
        0x000105ce:    f000be16    ....    B.W      HAL_UART_DisableInterrupts ; 0x111fe
    uart_gm_irq_tx_ready
        0x000105d2:    6800        .h      LDR      r0,[r0,#0]
        0x000105d4:    68c0        .h      LDR      r0,[r0,#0xc]
        0x000105d6:    6800        .h      LDR      r0,[r0,#0]
        0x000105d8:    f001ba1a    ....    B.W      HAL_UART_TxInt_Ready ; 0x11a10
    uart_gm_irq_rx_enable
        0x000105dc:    6800        .h      LDR      r0,[r0,#0]
        0x000105de:    2105        .!      MOVS     r1,#5
        0x000105e0:    68c0        .h      LDR      r0,[r0,#0xc]
        0x000105e2:    6800        .h      LDR      r0,[r0,#0]
        0x000105e4:    f000bde9    ....    B.W      HAL_UART_EnableInterrupts ; 0x111ba
    uart_gm_irq_rx_disable
        0x000105e8:    6800        .h      LDR      r0,[r0,#0]
        0x000105ea:    2105        .!      MOVS     r1,#5
        0x000105ec:    68c0        .h      LDR      r0,[r0,#0xc]
        0x000105ee:    6800        .h      LDR      r0,[r0,#0]
        0x000105f0:    f000be05    ....    B.W      HAL_UART_DisableInterrupts ; 0x111fe
    uart_gm_irq_tx_complete
        0x000105f4:    6800        .h      LDR      r0,[r0,#0]
        0x000105f6:    68c0        .h      LDR      r0,[r0,#0xc]
        0x000105f8:    6800        .h      LDR      r0,[r0,#0]
        0x000105fa:    f001ba01    ....    B.W      HAL_UART_Tx_Complete ; 0x11a00
    uart_gm_irq_rx_ready
        0x000105fe:    6800        .h      LDR      r0,[r0,#0]
        0x00010600:    68c0        .h      LDR      r0,[r0,#0xc]
        0x00010602:    6800        .h      LDR      r0,[r0,#0]
        0x00010604:    f001ba22    ..".    B.W      HAL_UART_RxInt_Ready ; 0x11a4c
    uart_gm_irq_err_enable
        0x00010608:    6800        .h      LDR      r0,[r0,#0]
        0x0001060a:    68c0        .h      LDR      r0,[r0,#0xc]
        0x0001060c:    6800        .h      LDR      r0,[r0,#0]
        0x0001060e:    f001ba36    ..6.    B.W      HAL_UART_Enable_Error_Interrupts ; 0x11a7e
    uart_gm_irq_err_disable
        0x00010612:    6800        .h      LDR      r0,[r0,#0]
        0x00010614:    68c0        .h      LDR      r0,[r0,#0xc]
        0x00010616:    6800        .h      LDR      r0,[r0,#0]
        0x00010618:    f001ba36    ..6.    B.W      HAL_UART_Disable_Error_Interrupts ; 0x11a88
    uart_gm_irq_is_pending
        0x0001061c:    b510        ..      PUSH     {r4,lr}
        0x0001061e:    6800        .h      LDR      r0,[r0,#0]
        0x00010620:    68c0        .h      LDR      r0,[r0,#0xc]
        0x00010622:    6804        .h      LDR      r4,[r0,#0]
        0x00010624:    4620         F      MOV      r0,r4
        0x00010626:    f001fa0d    ....    BL       HAL_UART_RxInt_Enabled ; 0x11a44
        0x0001062a:    b118        ..      CBZ      r0,0x10634 ; uart_gm_irq_is_pending + 24
        0x0001062c:    4620         F      MOV      r0,r4
        0x0001062e:    f001fa0d    ....    BL       HAL_UART_RxInt_Ready ; 0x11a4c
        0x00010632:    b938        8.      CBNZ     r0,0x10644 ; uart_gm_irq_is_pending + 40
        0x00010634:    4620         F      MOV      r0,r4
        0x00010636:    f001f9e7    ....    BL       HAL_UART_TxInt_Enabled ; 0x11a08
        0x0001063a:    b128        (.      CBZ      r0,0x10648 ; uart_gm_irq_is_pending + 44
        0x0001063c:    4620         F      MOV      r0,r4
        0x0001063e:    f001f9e7    ....    BL       HAL_UART_TxInt_Ready ; 0x11a10
        0x00010642:    b108        ..      CBZ      r0,0x10648 ; uart_gm_irq_is_pending + 44
        0x00010644:    2001        .       MOVS     r0,#1
        0x00010646:    bd10        ..      POP      {r4,pc}
        0x00010648:    2000        .       MOVS     r0,#0
        0x0001064a:    bd10        ..      POP      {r4,pc}
    uart_gm_irq_update
        0x0001064c:    2001        .       MOVS     r0,#1
        0x0001064e:    4770        pG      BX       lr
    uart_gm_irq_callback_set
        0x00010650:    6880        .h      LDR      r0,[r0,#8]
        0x00010652:    6001        .`      STR      r1,[r0,#0]
        0x00010654:    4770        pG      BX       lr
    $d
        0x00010656:    0000        ..      DCW    0
        0x00010658:    c0019d38    8...    DCD    3221331256
        0x0001065c:    007a1200    ..z.    DCD    8000000
        0x00010660:    40005000    .P.@    DCD    1073762304
        0x00010664:    40006000    .`.@    DCD    1073766400
        0x00010668:    c001a718    ....    DCD    3221333784
        0x0001066c:    000104bd    ....    DCD    66749
        0x00010670:    c001a6f0    ....    DCD    3221333744
        0x00010674:    c001a704    ....    DCD    3221333764
    $t
    .text
    _timer_int_handler
        0x00010678:    4817        .H      LDR      r0,[pc,#92] ; [0x106d8] = 0xc0019d3c
        0x0001067a:    b510        ..      PUSH     {r4,lr}
        0x0001067c:    6801        .h      LDR      r1,[r0,#0]
        0x0001067e:    4a17        .J      LDR      r2,[pc,#92] ; [0x106dc] = 0xc0019f98
        0x00010680:    6812        .h      LDR      r2,[r2,#0]
        0x00010682:    4411        .D      ADD      r1,r1,r2
        0x00010684:    6001        .`      STR      r1,[r0,#0]
        0x00010686:    4816        .H      LDR      r0,[pc,#88] ; [0x106e0] = 0xc0019f9c
        0x00010688:    6800        .h      LDR      r0,[r0,#0]
        0x0001068a:    f006fd14    ....    BL       _nano_sys_clock_tick_announce ; 0x170b6
        0x0001068e:    e8bd4010    ...@    POP      {r4,lr}
        0x00010692:    f008bf95    ....    B.W      _ExcExit ; 0x195c0
    _sys_clock_driver_init
        0x00010696:    4811        .H      LDR      r0,[pc,#68] ; [0x106dc] = 0xc0019f98
        0x00010698:    6800        .h      LDR      r0,[r0,#0]
        0x0001069a:    1e41        A.      SUBS     r1,r0,#1
        0x0001069c:    f04f20e0    O..     MOV      r0,#0xe000e000
        0x000106a0:    6141        Aa      STR      r1,[r0,#0x14]
        0x000106a2:    2100        .!      MOVS     r1,#0
        0x000106a4:    6181        .a      STR      r1,[r0,#0x18]
        0x000106a6:    4b0f        .K      LDR      r3,[pc,#60] ; [0x106e4] = 0xe000e00f
        0x000106a8:    2220         "      MOVS     r2,#0x20
        0x000106aa:    f8832d14    ...-    STRB     r2,[r3,#0xd14]
        0x000106ae:    2207        ."      MOVS     r2,#7
        0x000106b0:    6102        .a      STR      r2,[r0,#0x10]
        0x000106b2:    6181        .a      STR      r1,[r0,#0x18]
        0x000106b4:    4608        .F      MOV      r0,r1
        0x000106b6:    4770        pG      BX       lr
    _timer_cycle_get_32
        0x000106b8:    4907        .I      LDR      r1,[pc,#28] ; [0x106d8] = 0xc0019d3c
        0x000106ba:    f04f22e0    O.."    MOV      r2,#0xe000e000
        0x000106be:    6808        .h      LDR      r0,[r1,#0]
        0x000106c0:    6953        Si      LDR      r3,[r2,#0x14]
        0x000106c2:    f8d2c018    ....    LDR      r12,[r2,#0x18]
        0x000106c6:    eba3030c    ....    SUB      r3,r3,r12
        0x000106ca:    f8d1c000    ....    LDR      r12,[r1,#0]
        0x000106ce:    4560        `E      CMP      r0,r12
        0x000106d0:    d1f5        ..      BNE      0x106be ; _timer_cycle_get_32 + 6
        0x000106d2:    4418        .D      ADD      r0,r0,r3
        0x000106d4:    4770        pG      BX       lr
    $d
        0x000106d6:    0000        ..      DCW    0
        0x000106d8:    c0019d3c    <...    DCD    3221331260
        0x000106dc:    c0019f98    ....    DCD    3221331864
        0x000106e0:    c0019f9c    ....    DCD    3221331868
        0x000106e4:    e000e00f    ....    DCD    3758153743
    $t
    .text
    console_out
        0x000106e8:    b570        p.      PUSH     {r4-r6,lr}
        0x000106ea:    4d13        .M      LDR      r5,[pc,#76] ; [0x10738] = 0xc0019d40
        0x000106ec:    4604        .F      MOV      r4,r0
        0x000106ee:    280a        .(      CMP      r0,#0xa
        0x000106f0:    d104        ..      BNE      0x106fc ; console_out + 20
        0x000106f2:    6828        (h      LDR      r0,[r5,#0]
        0x000106f4:    210d        .!      MOVS     r1,#0xd
        0x000106f6:    6842        Bh      LDR      r2,[r0,#4]
        0x000106f8:    6852        Rh      LDR      r2,[r2,#4]
        0x000106fa:    4790        .G      BLX      r2
        0x000106fc:    6828        (h      LDR      r0,[r5,#0]
        0x000106fe:    b2e1        ..      UXTB     r1,r4
        0x00010700:    6842        Bh      LDR      r2,[r0,#4]
        0x00010702:    6852        Rh      LDR      r2,[r2,#4]
        0x00010704:    4790        .G      BLX      r2
        0x00010706:    4620         F      MOV      r0,r4
        0x00010708:    bd70        p.      POP      {r4-r6,pc}
    uart_console_hook_install
        0x0001070a:    b510        ..      PUSH     {r4,lr}
        0x0001070c:    480b        .H      LDR      r0,[pc,#44] ; [0x1073c] = 0x106e9
        0x0001070e:    f008f930    ..0.    BL       __stdout_hook_install ; 0x18972
        0x00010712:    e8bd4010    ...@    POP      {r4,lr}
        0x00010716:    4809        .H      LDR      r0,[pc,#36] ; [0x1073c] = 0x106e9
        0x00010718:    f007b9d0    ....    B.W      __printk_hook_install ; 0x17abc
    uart_console_init
        0x0001071c:    b510        ..      PUSH     {r4,lr}
        0x0001071e:    a008        ..      ADR      r0,{pc}+0x22 ; 0x10740
        0x00010720:    f006f929    ..).    BL       device_get_binding ; 0x16976
        0x00010724:    4904        .I      LDR      r1,[pc,#16] ; [0x10738] = 0xc0019d40
        0x00010726:    6008        .`      STR      r0,[r1,#0]
        0x00010728:    4804        .H      LDR      r0,[pc,#16] ; [0x1073c] = 0x106e9
        0x0001072a:    f008f922    ..".    BL       __stdout_hook_install ; 0x18972
        0x0001072e:    4803        .H      LDR      r0,[pc,#12] ; [0x1073c] = 0x106e9
        0x00010730:    f007f9c4    ....    BL       __printk_hook_install ; 0x17abc
        0x00010734:    2000        .       MOVS     r0,#0
        0x00010736:    bd10        ..      POP      {r4,pc}
    $d
        0x00010738:    c0019d40    @...    DCD    3221331264
        0x0001073c:    000106e9    ....    DCD    67305
        0x00010740:    54524155    UART    DCD    1414676821
        0x00010744:    0000315f    _1..    DCD    12639
    $t
    .text
    gpio_gm_manage_callback
        0x00010748:    6883        .h      LDR      r3,[r0,#8]
        0x0001074a:    6818        .h      LDR      r0,[r3,#0]
        0x0001074c:    b132        2.      CBZ      r2,0x1075c ; gpio_gm_manage_callback + 20
        0x0001074e:    6008        .`      STR      r0,[r1,#0]
        0x00010750:    6019        .`      STR      r1,[r3,#0]
        0x00010752:    6858        Xh      LDR      r0,[r3,#4]
        0x00010754:    2800        .(      CMP      r0,#0
        0x00010756:    bf08        ..      IT       EQ
        0x00010758:    6059        Y`      STREQ    r1,[r3,#4]
        0x0001075a:    e018        ..      B        0x1078e ; gpio_gm_manage_callback + 70
        0x0001075c:    2200        ."      MOVS     r2,#0
        0x0001075e:    b1b0        ..      CBZ      r0,0x1078e ; gpio_gm_manage_callback + 70
        0x00010760:    4288        .B      CMP      r0,r1
        0x00010762:    d10f        ..      BNE      0x10784 ; gpio_gm_manage_callback + 60
        0x00010764:    6808        .h      LDR      r0,[r1,#0]
        0x00010766:    b13a        :.      CBZ      r2,0x10778 ; gpio_gm_manage_callback + 48
        0x00010768:    6010        .`      STR      r0,[r2,#0]
        0x0001076a:    6858        Xh      LDR      r0,[r3,#4]
        0x0001076c:    4288        .B      CMP      r0,r1
        0x0001076e:    bf08        ..      IT       EQ
        0x00010770:    605a        Z`      STREQ    r2,[r3,#4]
        0x00010772:    2000        .       MOVS     r0,#0
        0x00010774:    6008        .`      STR      r0,[r1,#0]
        0x00010776:    e00a        ..      B        0x1078e ; gpio_gm_manage_callback + 70
        0x00010778:    6018        .`      STR      r0,[r3,#0]
        0x0001077a:    685a        Zh      LDR      r2,[r3,#4]
        0x0001077c:    428a        .B      CMP      r2,r1
        0x0001077e:    bf08        ..      IT       EQ
        0x00010780:    6058        X`      STREQ    r0,[r3,#4]
        0x00010782:    e7f6        ..      B        0x10772 ; gpio_gm_manage_callback + 42
        0x00010784:    1e02        ..      SUBS     r2,r0,#0
        0x00010786:    bf1c        ..      ITT      NE
        0x00010788:    6810        .h      LDRNE    r0,[r2,#0]
        0x0001078a:    2800        .(      CMPNE    r0,#0
        0x0001078c:    d1e8        ..      BNE      0x10760 ; gpio_gm_manage_callback + 24
        0x0001078e:    2000        .       MOVS     r0,#0
        0x00010790:    4770        pG      BX       lr
    gpio_gm_enable_callback
        0x00010792:    6883        .h      LDR      r3,[r0,#8]
        0x00010794:    2900        .)      CMP      r1,#0
        0x00010796:    bf1c        ..      ITT      NE
        0x00010798:    f04f30ff    O..0    MOVNE    r0,#0xffffffff
        0x0001079c:    6098        .`      STRNE    r0,[r3,#8]
        0x0001079e:    d001        ..      BEQ      0x107a4 ; gpio_gm_enable_callback + 18
        0x000107a0:    2000        .       MOVS     r0,#0
        0x000107a2:    4770        pG      BX       lr
        0x000107a4:    f04f0c01    O...    MOV      r12,#1
        0x000107a8:    6899        .h      LDR      r1,[r3,#8]
        0x000107aa:    fa0cf202    ....    LSL      r2,r12,r2
        0x000107ae:    4311        .C      ORRS     r1,r1,r2
        0x000107b0:    6099        .`      STR      r1,[r3,#8]
        0x000107b2:    6800        .h      LDR      r0,[r0,#0]
        0x000107b4:    68c0        .h      LDR      r0,[r0,#0xc]
        0x000107b6:    6800        .h      LDR      r0,[r0,#0]
        0x000107b8:    6a02        .j      LDR      r2,[r0,#0x20]
        0x000107ba:    4311        .C      ORRS     r1,r1,r2
        0x000107bc:    6201        .b      STR      r1,[r0,#0x20]
        0x000107be:    e7ef        ..      B        0x107a0 ; gpio_gm_enable_callback + 14
    gpio_gm_disable_callback
        0x000107c0:    6883        .h      LDR      r3,[r0,#8]
        0x000107c2:    2900        .)      CMP      r1,#0
        0x000107c4:    bf1c        ..      ITT      NE
        0x000107c6:    2000        .       MOVNE    r0,#0
        0x000107c8:    6098        .`      STRNE    r0,[r3,#8]
        0x000107ca:    d001        ..      BEQ      0x107d0 ; gpio_gm_disable_callback + 16
        0x000107cc:    2000        .       MOVS     r0,#0
        0x000107ce:    4770        pG      BX       lr
        0x000107d0:    f04f0c01    O...    MOV      r12,#1
        0x000107d4:    6899        .h      LDR      r1,[r3,#8]
        0x000107d6:    fa0cf202    ....    LSL      r2,r12,r2
        0x000107da:    4391        .C      BICS     r1,r1,r2
        0x000107dc:    6099        .`      STR      r1,[r3,#8]
        0x000107de:    6800        .h      LDR      r0,[r0,#0]
        0x000107e0:    68c0        .h      LDR      r0,[r0,#0xc]
        0x000107e2:    6800        .h      LDR      r0,[r0,#0]
        0x000107e4:    6a02        .j      LDR      r2,[r0,#0x20]
        0x000107e6:    ea220101    "...    BIC      r1,r2,r1
        0x000107ea:    6201        .b      STR      r1,[r0,#0x20]
        0x000107ec:    e7ee        ..      B        0x107cc ; gpio_gm_disable_callback + 12
    gpio_gm_port_isr
        0x000107ee:    b570        p.      PUSH     {r4-r6,lr}
        0x000107f0:    6801        .h      LDR      r1,[r0,#0]
        0x000107f2:    6882        .h      LDR      r2,[r0,#8]
        0x000107f4:    68c9        .h      LDR      r1,[r1,#0xc]
        0x000107f6:    6895        .h      LDR      r5,[r2,#8]
        0x000107f8:    6809        .h      LDR      r1,[r1,#0]
        0x000107fa:    6b8b        .k      LDR      r3,[r1,#0x38]
        0x000107fc:    422b        +B      TST      r3,r5
        0x000107fe:    bf18        ..      IT       NE
        0x00010800:    638d        .c      STRNE    r5,[r1,#0x38]
        0x00010802:    4606        .F      MOV      r6,r0
        0x00010804:    6814        .h      LDR      r4,[r2,#0]
        0x00010806:    2c00        .,      CMP      r4,#0
        0x00010808:    bf08        ..      IT       EQ
        0x0001080a:    bd70        p.      POPEQ    {r4-r6,pc}
        0x0001080c:    68a0        .h      LDR      r0,[r4,#8]
        0x0001080e:    4228        (B      TST      r0,r5
        0x00010810:    d004        ..      BEQ      0x1081c ; gpio_gm_port_isr + 46
        0x00010812:    6863        ch      LDR      r3,[r4,#4]
        0x00010814:    462a        *F      MOV      r2,r5
        0x00010816:    4621        !F      MOV      r1,r4
        0x00010818:    4630        0F      MOV      r0,r6
        0x0001081a:    4798        .G      BLX      r3
        0x0001081c:    2c00        .,      CMP      r4,#0
        0x0001081e:    bf1c        ..      ITT      NE
        0x00010820:    6824        $h      LDRNE    r4,[r4,#0]
        0x00010822:    2c00        .,      CMPNE    r4,#0
        0x00010824:    d1f2        ..      BNE      0x1080c ; gpio_gm_port_isr + 30
        0x00010826:    bd70        p.      POP      {r4-r6,pc}
    gpio_gm_a_init
        0x00010828:    b510        ..      PUSH     {r4,lr}
        0x0001082a:    f001fa3f    ..?.    BL       HAL_GPIO_CLK_ENABLE ; 0x11cac
        0x0001082e:    f001fa3a    ..:.    BL       HAL_GPIO_SW_Reset ; 0x11ca6
        0x00010832:    4bfd        .K      LDR      r3,[pc,#1012] ; [0x10c28] = 0xc001a600
        0x00010834:    4afd        .J      LDR      r2,[pc,#1012] ; [0x10c2c] = 0x107ef
        0x00010836:    2100        .!      MOVS     r1,#0
        0x00010838:    2005        .       MOVS     r0,#5
        0x0001083a:    f008f9dd    ....    BL       _sw_isr_table_set ; 0x18bf8
        0x0001083e:    2200        ."      MOVS     r2,#0
        0x00010840:    2101        .!      MOVS     r1,#1
        0x00010842:    2005        .       MOVS     r0,#5
        0x00010844:    f008f99c    ....    BL       _irq_priority_set ; 0x18b80
        0x00010848:    2005        .       MOVS     r0,#5
        0x0001084a:    f008f96d    ..m.    BL       _arch_irq_enable ; 0x18b28
        0x0001084e:    2000        .       MOVS     r0,#0
        0x00010850:    bd10        ..      POP      {r4,pc}
    gpio_gm_b_init
        0x00010852:    b510        ..      PUSH     {r4,lr}
        0x00010854:    f001fa2a    ..*.    BL       HAL_GPIO_CLK_ENABLE ; 0x11cac
        0x00010858:    f001fa25    ..%.    BL       HAL_GPIO_SW_Reset ; 0x11ca6
        0x0001085c:    4bf4        .K      LDR      r3,[pc,#976] ; [0x10c30] = 0xc001a614
        0x0001085e:    4af3        .J      LDR      r2,[pc,#972] ; [0x10c2c] = 0x107ef
        0x00010860:    2100        .!      MOVS     r1,#0
        0x00010862:    2006        .       MOVS     r0,#6
        0x00010864:    f008f9c8    ....    BL       _sw_isr_table_set ; 0x18bf8
        0x00010868:    2200        ."      MOVS     r2,#0
        0x0001086a:    2101        .!      MOVS     r1,#1
        0x0001086c:    2006        .       MOVS     r0,#6
        0x0001086e:    f008f987    ....    BL       _irq_priority_set ; 0x18b80
        0x00010872:    2006        .       MOVS     r0,#6
        0x00010874:    f008f958    ..X.    BL       _arch_irq_enable ; 0x18b28
        0x00010878:    2000        .       MOVS     r0,#0
        0x0001087a:    bd10        ..      POP      {r4,pc}
    gpio_gm_c_init
        0x0001087c:    b510        ..      PUSH     {r4,lr}
        0x0001087e:    f001fa15    ....    BL       HAL_GPIO_CLK_ENABLE ; 0x11cac
        0x00010882:    f001fa10    ....    BL       HAL_GPIO_SW_Reset ; 0x11ca6
        0x00010886:    4beb        .K      LDR      r3,[pc,#940] ; [0x10c34] = 0xc001a628
        0x00010888:    4ae8        .J      LDR      r2,[pc,#928] ; [0x10c2c] = 0x107ef
        0x0001088a:    2100        .!      MOVS     r1,#0
        0x0001088c:    2007        .       MOVS     r0,#7
        0x0001088e:    f008f9b3    ....    BL       _sw_isr_table_set ; 0x18bf8
        0x00010892:    2200        ."      MOVS     r2,#0
        0x00010894:    2101        .!      MOVS     r1,#1
        0x00010896:    2007        .       MOVS     r0,#7
        0x00010898:    f008f972    ..r.    BL       _irq_priority_set ; 0x18b80
        0x0001089c:    2007        .       MOVS     r0,#7
        0x0001089e:    f008f943    ..C.    BL       _arch_irq_enable ; 0x18b28
        0x000108a2:    2000        .       MOVS     r0,#0
        0x000108a4:    bd10        ..      POP      {r4,pc}
    gpio_gm_d_init
        0x000108a6:    b510        ..      PUSH     {r4,lr}
        0x000108a8:    f001fa00    ....    BL       HAL_GPIO_CLK_ENABLE ; 0x11cac
        0x000108ac:    f001f9fb    ....    BL       HAL_GPIO_SW_Reset ; 0x11ca6
        0x000108b0:    4be1        .K      LDR      r3,[pc,#900] ; [0x10c38] = 0xc001a63c
        0x000108b2:    4ade        .J      LDR      r2,[pc,#888] ; [0x10c2c] = 0x107ef
        0x000108b4:    2100        .!      MOVS     r1,#0
        0x000108b6:    2008        .       MOVS     r0,#8
        0x000108b8:    f008f99e    ....    BL       _sw_isr_table_set ; 0x18bf8
        0x000108bc:    2200        ."      MOVS     r2,#0
        0x000108be:    2101        .!      MOVS     r1,#1
        0x000108c0:    2008        .       MOVS     r0,#8
        0x000108c2:    f008f95d    ..].    BL       _irq_priority_set ; 0x18b80
        0x000108c6:    2008        .       MOVS     r0,#8
        0x000108c8:    f008f92e    ....    BL       _arch_irq_enable ; 0x18b28
        0x000108cc:    2000        .       MOVS     r0,#0
        0x000108ce:    bd10        ..      POP      {r4,pc}
    gpio_gm_e_init
        0x000108d0:    b510        ..      PUSH     {r4,lr}
        0x000108d2:    f001f9eb    ....    BL       HAL_GPIO_CLK_ENABLE ; 0x11cac
        0x000108d6:    f001f9e6    ....    BL       HAL_GPIO_SW_Reset ; 0x11ca6
        0x000108da:    4bd8        .K      LDR      r3,[pc,#864] ; [0x10c3c] = 0xc001a650
        0x000108dc:    4ad3        .J      LDR      r2,[pc,#844] ; [0x10c2c] = 0x107ef
        0x000108de:    2100        .!      MOVS     r1,#0
        0x000108e0:    2027        '       MOVS     r0,#0x27
        0x000108e2:    f008f989    ....    BL       _sw_isr_table_set ; 0x18bf8
        0x000108e6:    2200        ."      MOVS     r2,#0
        0x000108e8:    2101        .!      MOVS     r1,#1
        0x000108ea:    2027        '       MOVS     r0,#0x27
        0x000108ec:    f008f948    ..H.    BL       _irq_priority_set ; 0x18b80
        0x000108f0:    2027        '       MOVS     r0,#0x27
        0x000108f2:    f008f919    ....    BL       _arch_irq_enable ; 0x18b28
        0x000108f6:    2000        .       MOVS     r0,#0
        0x000108f8:    bd10        ..      POP      {r4,pc}
    gpio_gm_f_init
        0x000108fa:    b510        ..      PUSH     {r4,lr}
        0x000108fc:    f001f9d6    ....    BL       HAL_GPIO_CLK_ENABLE ; 0x11cac
        0x00010900:    f001f9d1    ....    BL       HAL_GPIO_SW_Reset ; 0x11ca6
        0x00010904:    4bce        .K      LDR      r3,[pc,#824] ; [0x10c40] = 0xc001a664
        0x00010906:    4ac9        .J      LDR      r2,[pc,#804] ; [0x10c2c] = 0x107ef
        0x00010908:    2100        .!      MOVS     r1,#0
        0x0001090a:    2028        (       MOVS     r0,#0x28
        0x0001090c:    f008f974    ..t.    BL       _sw_isr_table_set ; 0x18bf8
        0x00010910:    2200        ."      MOVS     r2,#0
        0x00010912:    2101        .!      MOVS     r1,#1
        0x00010914:    2028        (       MOVS     r0,#0x28
        0x00010916:    f008f933    ..3.    BL       _irq_priority_set ; 0x18b80
        0x0001091a:    2028        (       MOVS     r0,#0x28
        0x0001091c:    f008f904    ....    BL       _arch_irq_enable ; 0x18b28
        0x00010920:    2000        .       MOVS     r0,#0
        0x00010922:    bd10        ..      POP      {r4,pc}
    gpio_gm_g_init
        0x00010924:    b510        ..      PUSH     {r4,lr}
        0x00010926:    f001f9c1    ....    BL       HAL_GPIO_CLK_ENABLE ; 0x11cac
        0x0001092a:    f001f9bc    ....    BL       HAL_GPIO_SW_Reset ; 0x11ca6
        0x0001092e:    4bc5        .K      LDR      r3,[pc,#788] ; [0x10c44] = 0xc001a678
        0x00010930:    4abe        .J      LDR      r2,[pc,#760] ; [0x10c2c] = 0x107ef
        0x00010932:    2100        .!      MOVS     r1,#0
        0x00010934:    2029        )       MOVS     r0,#0x29
        0x00010936:    f008f95f    .._.    BL       _sw_isr_table_set ; 0x18bf8
        0x0001093a:    2200        ."      MOVS     r2,#0
        0x0001093c:    2101        .!      MOVS     r1,#1
        0x0001093e:    2029        )       MOVS     r0,#0x29
        0x00010940:    f008f91e    ....    BL       _irq_priority_set ; 0x18b80
        0x00010944:    2029        )       MOVS     r0,#0x29
        0x00010946:    f008f8ef    ....    BL       _arch_irq_enable ; 0x18b28
        0x0001094a:    2000        .       MOVS     r0,#0
        0x0001094c:    bd10        ..      POP      {r4,pc}
    gpio_gm_h_init
        0x0001094e:    b510        ..      PUSH     {r4,lr}
        0x00010950:    f001f9ac    ....    BL       HAL_GPIO_CLK_ENABLE ; 0x11cac
        0x00010954:    f001f9a7    ....    BL       HAL_GPIO_SW_Reset ; 0x11ca6
        0x00010958:    4bbb        .K      LDR      r3,[pc,#748] ; [0x10c48] = 0xc001a68c
        0x0001095a:    4ab4        .J      LDR      r2,[pc,#720] ; [0x10c2c] = 0x107ef
        0x0001095c:    2100        .!      MOVS     r1,#0
        0x0001095e:    202a        *       MOVS     r0,#0x2a
        0x00010960:    f008f94a    ..J.    BL       _sw_isr_table_set ; 0x18bf8
        0x00010964:    2200        ."      MOVS     r2,#0
        0x00010966:    2101        .!      MOVS     r1,#1
        0x00010968:    202a        *       MOVS     r0,#0x2a
        0x0001096a:    f008f909    ....    BL       _irq_priority_set ; 0x18b80
        0x0001096e:    202a        *       MOVS     r0,#0x2a
        0x00010970:    f008f8da    ....    BL       _arch_irq_enable ; 0x18b28
        0x00010974:    2000        .       MOVS     r0,#0
        0x00010976:    bd10        ..      POP      {r4,pc}
    gpio_gm_i_init
        0x00010978:    b510        ..      PUSH     {r4,lr}
        0x0001097a:    4bb4        .K      LDR      r3,[pc,#720] ; [0x10c4c] = 0xc001a6a0
        0x0001097c:    4aab        .J      LDR      r2,[pc,#684] ; [0x10c2c] = 0x107ef
        0x0001097e:    2100        .!      MOVS     r1,#0
        0x00010980:    202b        +       MOVS     r0,#0x2b
        0x00010982:    f008f939    ..9.    BL       _sw_isr_table_set ; 0x18bf8
        0x00010986:    2200        ."      MOVS     r2,#0
        0x00010988:    2101        .!      MOVS     r1,#1
        0x0001098a:    202b        +       MOVS     r0,#0x2b
        0x0001098c:    f008f8f8    ....    BL       _irq_priority_set ; 0x18b80
        0x00010990:    202b        +       MOVS     r0,#0x2b
        0x00010992:    f008f8c9    ....    BL       _arch_irq_enable ; 0x18b28
        0x00010996:    2000        .       MOVS     r0,#0
        0x00010998:    bd10        ..      POP      {r4,pc}
    gpio_gm_j_init
        0x0001099a:    b510        ..      PUSH     {r4,lr}
        0x0001099c:    f001f986    ....    BL       HAL_GPIO_CLK_ENABLE ; 0x11cac
        0x000109a0:    f001f981    ....    BL       HAL_GPIO_SW_Reset ; 0x11ca6
        0x000109a4:    4ba6        .K      LDR      r3,[pc,#664] ; [0x10c40] = 0xc001a664
        0x000109a6:    4aa1        .J      LDR      r2,[pc,#644] ; [0x10c2c] = 0x107ef
        0x000109a8:    2100        .!      MOVS     r1,#0
        0x000109aa:    202c        ,       MOVS     r0,#0x2c
        0x000109ac:    f008f924    ..$.    BL       _sw_isr_table_set ; 0x18bf8
        0x000109b0:    2200        ."      MOVS     r2,#0
        0x000109b2:    2101        .!      MOVS     r1,#1
        0x000109b4:    202c        ,       MOVS     r0,#0x2c
        0x000109b6:    f008f8e3    ....    BL       _irq_priority_set ; 0x18b80
        0x000109ba:    202c        ,       MOVS     r0,#0x2c
        0x000109bc:    f008f8b4    ....    BL       _arch_irq_enable ; 0x18b28
        0x000109c0:    2000        .       MOVS     r0,#0
        0x000109c2:    bd10        ..      POP      {r4,pc}
    gpio_gm_k_init
        0x000109c4:    b510        ..      PUSH     {r4,lr}
        0x000109c6:    f001f971    ..q.    BL       HAL_GPIO_CLK_ENABLE ; 0x11cac
        0x000109ca:    f001f96c    ..l.    BL       HAL_GPIO_SW_Reset ; 0x11ca6
        0x000109ce:    4ba0        .K      LDR      r3,[pc,#640] ; [0x10c50] = 0xc001a6c8
        0x000109d0:    4a96        .J      LDR      r2,[pc,#600] ; [0x10c2c] = 0x107ef
        0x000109d2:    2100        .!      MOVS     r1,#0
        0x000109d4:    202d        -       MOVS     r0,#0x2d
        0x000109d6:    f008f90f    ....    BL       _sw_isr_table_set ; 0x18bf8
        0x000109da:    2200        ."      MOVS     r2,#0
        0x000109dc:    2101        .!      MOVS     r1,#1
        0x000109de:    202d        -       MOVS     r0,#0x2d
        0x000109e0:    f008f8ce    ....    BL       _irq_priority_set ; 0x18b80
        0x000109e4:    202d        -       MOVS     r0,#0x2d
        0x000109e6:    f008f89f    ....    BL       _arch_irq_enable ; 0x18b28
        0x000109ea:    2000        .       MOVS     r0,#0
        0x000109ec:    bd10        ..      POP      {r4,pc}
    gpio_gm_config
        0x000109ee:    b500        ..      PUSH     {lr}
        0x000109f0:    6800        .h      LDR      r0,[r0,#0]
        0x000109f2:    b085        ..      SUB      sp,sp,#0x14
        0x000109f4:    2900        .)      CMP      r1,#0
        0x000109f6:    68c0        .h      LDR      r0,[r0,#0xc]
        0x000109f8:    bf1e        ..      ITTT     NE
        0x000109fa:    f06f0022    o.".    MVNNE    r0,#0x22
        0x000109fe:    b005        ..      ADDNE    sp,sp,#0x14
        0x00010a00:    bd00        ..      POPNE    {pc}
        0x00010a02:    6800        .h      LDR      r0,[r0,#0]
        0x00010a04:    2101        .!      MOVS     r1,#1
        0x00010a06:    4091        .@      LSLS     r1,r1,r2
        0x00010a08:    9100        ..      STR      r1,[sp,#0]
        0x00010a0a:    f4237140    #.@q    BIC      r1,r3,#0x300
        0x00010a0e:    9101        ..      STR      r1,[sp,#4]
        0x00010a10:    f3c32101    ...!    UBFX     r1,r3,#8,#2
        0x00010a14:    9102        ..      STR      r1,[sp,#8]
        0x00010a16:    0e11        ..      LSRS     r1,r2,#24
        0x00010a18:    9103        ..      STR      r1,[sp,#0xc]
        0x00010a1a:    4669        iF      MOV      r1,sp
        0x00010a1c:    f001f9bb    ....    BL       HAL_GPIO_Init ; 0x11d96
        0x00010a20:    b005        ..      ADD      sp,sp,#0x14
        0x00010a22:    2000        .       MOVS     r0,#0
        0x00010a24:    bd00        ..      POP      {pc}
    gpio_gm_write
        0x00010a26:    e92d5ff0    -.._    PUSH     {r4-r12,lr}
        0x00010a2a:    6800        .h      LDR      r0,[r0,#0]
        0x00010a2c:    2400        .$      MOVS     r4,#0
        0x00010a2e:    2601        .&      MOVS     r6,#1
        0x00010a30:    68c0        .h      LDR      r0,[r0,#0xc]
        0x00010a32:    fa06f702    ....    LSL      r7,r6,r2
        0x00010a36:    4698        .F      MOV      r8,r3
        0x00010a38:    6800        .h      LDR      r0,[r0,#0]
        0x00010a3a:    4625        %F      MOV      r5,r4
        0x00010a3c:    2900        .)      CMP      r1,#0
        0x00010a3e:    bf1c        ..      ITT      NE
        0x00010a40:    f06f0022    o.".    MVNNE    r0,#0x22
        0x00010a44:    e8bd9ff0    ....    POPNE    {r4-r12,pc}
        0x00010a48:    f8df9208    ....    LDR      r9,[pc,#520] ; [0x10c54] = 0x40010000
        0x00010a4c:    f8dfa208    ....    LDR      r10,[pc,#520] ; [0x10c58] = 0x40011000
        0x00010a50:    f8dfb208    ....    LDR      r11,[pc,#520] ; [0x10c5c] = 0x40012000
        0x00010a54:    4982        .I      LDR      r1,[pc,#520] ; [0x10c60] = 0x40013000
        0x00010a56:    4a83        .J      LDR      r2,[pc,#524] ; [0x10c64] = 0x40014000
        0x00010a58:    4b83        .K      LDR      r3,[pc,#524] ; [0x10c68] = 0x40015000
        0x00010a5a:    f8dfc210    ....    LDR      r12,[pc,#528] ; [0x10c6c] = 0x40016000
        0x00010a5e:    4548        HE      CMP      r0,r9
        0x00010a60:    d032        2.      BEQ      0x10ac8 ; gpio_gm_write + 162
        0x00010a62:    4550        PE      CMP      r0,r10
        0x00010a64:    bf08        ..      IT       EQ
        0x00010a66:    2401        .$      MOVEQ    r4,#1
        0x00010a68:    d02e        ..      BEQ      0x10ac8 ; gpio_gm_write + 162
        0x00010a6a:    4558        XE      CMP      r0,r11
        0x00010a6c:    bf08        ..      IT       EQ
        0x00010a6e:    2402        .$      MOVEQ    r4,#2
        0x00010a70:    d02a        *.      BEQ      0x10ac8 ; gpio_gm_write + 162
        0x00010a72:    4288        .B      CMP      r0,r1
        0x00010a74:    bf08        ..      IT       EQ
        0x00010a76:    2403        .$      MOVEQ    r4,#3
        0x00010a78:    d026        &.      BEQ      0x10ac8 ; gpio_gm_write + 162
        0x00010a7a:    4290        .B      CMP      r0,r2
        0x00010a7c:    bf08        ..      IT       EQ
        0x00010a7e:    2404        .$      MOVEQ    r4,#4
        0x00010a80:    d022        ".      BEQ      0x10ac8 ; gpio_gm_write + 162
        0x00010a82:    4298        .B      CMP      r0,r3
        0x00010a84:    bf08        ..      IT       EQ
        0x00010a86:    2405        .$      MOVEQ    r4,#5
        0x00010a88:    d01e        ..      BEQ      0x10ac8 ; gpio_gm_write + 162
        0x00010a8a:    4560        `E      CMP      r0,r12
        0x00010a8c:    bf08        ..      IT       EQ
        0x00010a8e:    2406        .$      MOVEQ    r4,#6
        0x00010a90:    d01a        ..      BEQ      0x10ac8 ; gpio_gm_write + 162
        0x00010a92:    f1a04e80    ...N    SUB      lr,r0,#0x40000000
        0x00010a96:    f5be3eb8    ...>    SUBS     lr,lr,#0x17000
        0x00010a9a:    bf08        ..      IT       EQ
        0x00010a9c:    2407        .$      MOVEQ    r4,#7
        0x00010a9e:    d013        ..      BEQ      0x10ac8 ; gpio_gm_write + 162
        0x00010aa0:    f1a04e80    ...N    SUB      lr,r0,#0x40000000
        0x00010aa4:    f5be3ec0    ...>    SUBS     lr,lr,#0x18000
        0x00010aa8:    bf08        ..      IT       EQ
        0x00010aaa:    2408        .$      MOVEQ    r4,#8
        0x00010aac:    d00c        ..      BEQ      0x10ac8 ; gpio_gm_write + 162
        0x00010aae:    f1a04e80    ...N    SUB      lr,r0,#0x40000000
        0x00010ab2:    f5be3ec8    ...>    SUBS     lr,lr,#0x19000
        0x00010ab6:    bf08        ..      IT       EQ
        0x00010ab8:    2409        .$      MOVEQ    r4,#9
        0x00010aba:    d005        ..      BEQ      0x10ac8 ; gpio_gm_write + 162
        0x00010abc:    f1a04e80    ...N    SUB      lr,r0,#0x40000000
        0x00010ac0:    f5be3ed0    ...>    SUBS     lr,lr,#0x1a000
        0x00010ac4:    bf08        ..      IT       EQ
        0x00010ac6:    240a        .$      MOVEQ    r4,#0xa
        0x00010ac8:    fa06f005    ....    LSL      r0,r6,r5
        0x00010acc:    ea070100    ....    AND      r1,r7,r0
        0x00010ad0:    4281        .B      CMP      r1,r0
        0x00010ad2:    d13f        ?.      BNE      0x10b54 ; gpio_gm_write + 302
        0x00010ad4:    eb051004    ....    ADD      r0,r5,r4,LSL #4
        0x00010ad8:    f1b80f00    ....    CMP      r8,#0
        0x00010adc:    d040        @.      BEQ      0x10b60 ; gpio_gm_write + 314
        0x00010ade:    2810        .(      CMP      r0,#0x10
        0x00010ae0:    bf38        8.      IT       CC
        0x00010ae2:    4649        IF      MOVCC    r1,r9
        0x00010ae4:    d327        '.      BCC      0x10b36 ; gpio_gm_write + 272
        0x00010ae6:    2820         (      CMP      r0,#0x20
        0x00010ae8:    bf38        8.      IT       CC
        0x00010aea:    4651        QF      MOVCC    r1,r10
        0x00010aec:    d323        #.      BCC      0x10b36 ; gpio_gm_write + 272
        0x00010aee:    2830        0(      CMP      r0,#0x30
        0x00010af0:    bf38        8.      IT       CC
        0x00010af2:    4659        YF      MOVCC    r1,r11
        0x00010af4:    d31f        ..      BCC      0x10b36 ; gpio_gm_write + 272
        0x00010af6:    2840        @(      CMP      r0,#0x40
        0x00010af8:    bf38        8.      IT       CC
        0x00010afa:    4959        YI      LDRCC    r1,[pc,#356] ; [0x10c60] = 0x40013000
        0x00010afc:    d31b        ..      BCC      0x10b36 ; gpio_gm_write + 272
        0x00010afe:    2850        P(      CMP      r0,#0x50
        0x00010b00:    bf38        8.      IT       CC
        0x00010b02:    4958        XI      LDRCC    r1,[pc,#352] ; [0x10c64] = 0x40014000
        0x00010b04:    d317        ..      BCC      0x10b36 ; gpio_gm_write + 272
        0x00010b06:    2860        `(      CMP      r0,#0x60
        0x00010b08:    bf38        8.      IT       CC
        0x00010b0a:    4957        WI      LDRCC    r1,[pc,#348] ; [0x10c68] = 0x40015000
        0x00010b0c:    d313        ..      BCC      0x10b36 ; gpio_gm_write + 272
        0x00010b0e:    2870        p(      CMP      r0,#0x70
        0x00010b10:    bf38        8.      IT       CC
        0x00010b12:    4956        VI      LDRCC    r1,[pc,#344] ; [0x10c6c] = 0x40016000
        0x00010b14:    d30f        ..      BCC      0x10b36 ; gpio_gm_write + 272
        0x00010b16:    2880        .(      CMP      r0,#0x80
        0x00010b18:    bf38        8.      IT       CC
        0x00010b1a:    4955        UI      LDRCC    r1,[pc,#340] ; [0x10c70] = 0x40017000
        0x00010b1c:    d30b        ..      BCC      0x10b36 ; gpio_gm_write + 272
        0x00010b1e:    2890        .(      CMP      r0,#0x90
        0x00010b20:    bf38        8.      IT       CC
        0x00010b22:    4954        TI      LDRCC    r1,[pc,#336] ; [0x10c74] = 0x40018000
        0x00010b24:    d307        ..      BCC      0x10b36 ; gpio_gm_write + 272
        0x00010b26:    28a0        .(      CMP      r0,#0xa0
        0x00010b28:    bf38        8.      IT       CC
        0x00010b2a:    4953        SI      LDRCC    r1,[pc,#332] ; [0x10c78] = 0x40019000
        0x00010b2c:    d303        ..      BCC      0x10b36 ; gpio_gm_write + 272
        0x00010b2e:    28b0        .(      CMP      r0,#0xb0
        0x00010b30:    bf34        4.      ITE      CC
        0x00010b32:    4952        RI      LDRCC    r1,[pc,#328] ; [0x10c7c] = 0x4001a000
        0x00010b34:    2100        .!      MOVCS    r1,#0
        0x00010b36:    f3c002c0    ....    UBFX     r2,r0,#3,#1
        0x00010b3a:    f0000007    ....    AND      r0,r0,#7
        0x00010b3e:    eb012182    ...!    ADD      r1,r1,r2,LSL #10
        0x00010b42:    fa06f000    ....    LSL      r0,r6,r0
        0x00010b46:    eb010080    ....    ADD      r0,r1,r0,LSL #2
        0x00010b4a:    2101        .!      MOVS     r1,#1
        0x00010b4c:    f5006080    ...`    ADD      r0,r0,#0x400
        0x00010b50:    f001fa9c    ....    BL       HAL_GPIO_PinWrite ; 0x1208c
        0x00010b54:    1c6d        m.      ADDS     r5,r5,#1
        0x00010b56:    2d10        .-      CMP      r5,#0x10
        0x00010b58:    d3b6        ..      BCC      0x10ac8 ; gpio_gm_write + 162
        0x00010b5a:    2000        .       MOVS     r0,#0
        0x00010b5c:    e8bd9ff0    ....    POP      {r4-r12,pc}
        0x00010b60:    2810        .(      CMP      r0,#0x10
        0x00010b62:    bf38        8.      IT       CC
        0x00010b64:    4649        IF      MOVCC    r1,r9
        0x00010b66:    d327        '.      BCC      0x10bb8 ; gpio_gm_write + 402
        0x00010b68:    2820         (      CMP      r0,#0x20
        0x00010b6a:    bf38        8.      IT       CC
        0x00010b6c:    4651        QF      MOVCC    r1,r10
        0x00010b6e:    d323        #.      BCC      0x10bb8 ; gpio_gm_write + 402
        0x00010b70:    2830        0(      CMP      r0,#0x30
        0x00010b72:    bf38        8.      IT       CC
        0x00010b74:    4659        YF      MOVCC    r1,r11
        0x00010b76:    d31f        ..      BCC      0x10bb8 ; gpio_gm_write + 402
        0x00010b78:    2840        @(      CMP      r0,#0x40
        0x00010b7a:    bf38        8.      IT       CC
        0x00010b7c:    4938        8I      LDRCC    r1,[pc,#224] ; [0x10c60] = 0x40013000
        0x00010b7e:    d31b        ..      BCC      0x10bb8 ; gpio_gm_write + 402
        0x00010b80:    2850        P(      CMP      r0,#0x50
        0x00010b82:    bf38        8.      IT       CC
        0x00010b84:    4937        7I      LDRCC    r1,[pc,#220] ; [0x10c64] = 0x40014000
        0x00010b86:    d317        ..      BCC      0x10bb8 ; gpio_gm_write + 402
        0x00010b88:    2860        `(      CMP      r0,#0x60
        0x00010b8a:    bf38        8.      IT       CC
        0x00010b8c:    4936        6I      LDRCC    r1,[pc,#216] ; [0x10c68] = 0x40015000
        0x00010b8e:    d313        ..      BCC      0x10bb8 ; gpio_gm_write + 402
        0x00010b90:    2870        p(      CMP      r0,#0x70
        0x00010b92:    bf38        8.      IT       CC
        0x00010b94:    4935        5I      LDRCC    r1,[pc,#212] ; [0x10c6c] = 0x40016000
        0x00010b96:    d30f        ..      BCC      0x10bb8 ; gpio_gm_write + 402
        0x00010b98:    2880        .(      CMP      r0,#0x80
        0x00010b9a:    bf38        8.      IT       CC
        0x00010b9c:    4934        4I      LDRCC    r1,[pc,#208] ; [0x10c70] = 0x40017000
        0x00010b9e:    d30b        ..      BCC      0x10bb8 ; gpio_gm_write + 402
        0x00010ba0:    2890        .(      CMP      r0,#0x90
        0x00010ba2:    bf38        8.      IT       CC
        0x00010ba4:    4933        3I      LDRCC    r1,[pc,#204] ; [0x10c74] = 0x40018000
        0x00010ba6:    d307        ..      BCC      0x10bb8 ; gpio_gm_write + 402
        0x00010ba8:    28a0        .(      CMP      r0,#0xa0
        0x00010baa:    bf38        8.      IT       CC
        0x00010bac:    4932        2I      LDRCC    r1,[pc,#200] ; [0x10c78] = 0x40019000
        0x00010bae:    d303        ..      BCC      0x10bb8 ; gpio_gm_write + 402
        0x00010bb0:    28b0        .(      CMP      r0,#0xb0
        0x00010bb2:    bf34        4.      ITE      CC
        0x00010bb4:    4931        1I      LDRCC    r1,[pc,#196] ; [0x10c7c] = 0x4001a000
        0x00010bb6:    2100        .!      MOVCS    r1,#0
        0x00010bb8:    f3c002c0    ....    UBFX     r2,r0,#3,#1
        0x00010bbc:    f0000007    ....    AND      r0,r0,#7
        0x00010bc0:    eb012182    ...!    ADD      r1,r1,r2,LSL #10
        0x00010bc4:    fa06f000    ....    LSL      r0,r6,r0
        0x00010bc8:    eb010080    ....    ADD      r0,r1,r0,LSL #2
        0x00010bcc:    2100        .!      MOVS     r1,#0
        0x00010bce:    f5006080    ...`    ADD      r0,r0,#0x400
        0x00010bd2:    f001fa5b    ..[.    BL       HAL_GPIO_PinWrite ; 0x1208c
        0x00010bd6:    e7bd        ..      B        0x10b54 ; gpio_gm_write + 302
    gpio_gm_read
        0x00010bd8:    e92d5ff0    -.._    PUSH     {r4-r12,lr}
        0x00010bdc:    6800        .h      LDR      r0,[r0,#0]
        0x00010bde:    2400        .$      MOVS     r4,#0
        0x00010be0:    2601        .&      MOVS     r6,#1
        0x00010be2:    68c0        .h      LDR      r0,[r0,#0xc]
        0x00010be4:    fa06f702    ....    LSL      r7,r6,r2
        0x00010be8:    4698        .F      MOV      r8,r3
        0x00010bea:    6800        .h      LDR      r0,[r0,#0]
        0x00010bec:    4625        %F      MOV      r5,r4
        0x00010bee:    2900        .)      CMP      r1,#0
        0x00010bf0:    bf1c        ..      ITT      NE
        0x00010bf2:    f06f0022    o.".    MVNNE    r0,#0x22
        0x00010bf6:    e8bd9ff0    ....    POPNE    {r4-r12,pc}
        0x00010bfa:    f8df9058    ..X.    LDR      r9,[pc,#88] ; [0x10c54] = 0x40010000
        0x00010bfe:    f8dfa058    ..X.    LDR      r10,[pc,#88] ; [0x10c58] = 0x40011000
        0x00010c02:    f8dfb058    ..X.    LDR      r11,[pc,#88] ; [0x10c5c] = 0x40012000
        0x00010c06:    4b16        .K      LDR      r3,[pc,#88] ; [0x10c60] = 0x40013000
        0x00010c08:    f8dfc058    ..X.    LDR      r12,[pc,#88] ; [0x10c64] = 0x40014000
        0x00010c0c:    4916        .I      LDR      r1,[pc,#88] ; [0x10c68] = 0x40015000
        0x00010c0e:    4a17        .J      LDR      r2,[pc,#92] ; [0x10c6c] = 0x40016000
        0x00010c10:    4548        HE      CMP      r0,r9
        0x00010c12:    d05f        _.      BEQ      0x10cd4 ; gpio_gm_read + 252
        0x00010c14:    4550        PE      CMP      r0,r10
        0x00010c16:    bf08        ..      IT       EQ
        0x00010c18:    2401        .$      MOVEQ    r4,#1
        0x00010c1a:    d05b        [.      BEQ      0x10cd4 ; gpio_gm_read + 252
        0x00010c1c:    4558        XE      CMP      r0,r11
        0x00010c1e:    bf08        ..      IT       EQ
        0x00010c20:    2402        .$      MOVEQ    r4,#2
        0x00010c22:    d057        W.      BEQ      0x10cd4 ; gpio_gm_read + 252
        0x00010c24:    4298        .B      CMP      r0,r3
        0x00010c26:    e02b        +.      B        0x10c80 ; gpio_gm_read + 168
    $d
        0x00010c28:    c001a600    ....    DCD    3221333504
        0x00010c2c:    000107ef    ....    DCD    67567
        0x00010c30:    c001a614    ....    DCD    3221333524
        0x00010c34:    c001a628    (...    DCD    3221333544
        0x00010c38:    c001a63c    <...    DCD    3221333564
        0x00010c3c:    c001a650    P...    DCD    3221333584
        0x00010c40:    c001a664    d...    DCD    3221333604
        0x00010c44:    c001a678    x...    DCD    3221333624
        0x00010c48:    c001a68c    ....    DCD    3221333644
        0x00010c4c:    c001a6a0    ....    DCD    3221333664
        0x00010c50:    c001a6c8    ....    DCD    3221333704
        0x00010c54:    40010000    ...@    DCD    1073807360
        0x00010c58:    40011000    ...@    DCD    1073811456
        0x00010c5c:    40012000    . .@    DCD    1073815552
        0x00010c60:    40013000    .0.@    DCD    1073819648
        0x00010c64:    40014000    .@.@    DCD    1073823744
        0x00010c68:    40015000    .P.@    DCD    1073827840
        0x00010c6c:    40016000    .`.@    DCD    1073831936
        0x00010c70:    40017000    .p.@    DCD    1073836032
        0x00010c74:    40018000    ...@    DCD    1073840128
        0x00010c78:    40019000    ...@    DCD    1073844224
        0x00010c7c:    4001a000    ...@    DCD    1073848320
    $t
        0x00010c80:    bf08        ..      IT       EQ
        0x00010c82:    2403        .$      MOVEQ    r4,#3
        0x00010c84:    d026        &.      BEQ      0x10cd4 ; gpio_gm_read + 252
        0x00010c86:    4560        `E      CMP      r0,r12
        0x00010c88:    bf08        ..      IT       EQ
        0x00010c8a:    2404        .$      MOVEQ    r4,#4
        0x00010c8c:    d022        ".      BEQ      0x10cd4 ; gpio_gm_read + 252
        0x00010c8e:    4288        .B      CMP      r0,r1
        0x00010c90:    bf08        ..      IT       EQ
        0x00010c92:    2405        .$      MOVEQ    r4,#5
        0x00010c94:    d01e        ..      BEQ      0x10cd4 ; gpio_gm_read + 252
        0x00010c96:    4290        .B      CMP      r0,r2
        0x00010c98:    bf08        ..      IT       EQ
        0x00010c9a:    2406        .$      MOVEQ    r4,#6
        0x00010c9c:    d01a        ..      BEQ      0x10cd4 ; gpio_gm_read + 252
        0x00010c9e:    f1a04e80    ...N    SUB      lr,r0,#0x40000000
        0x00010ca2:    f5be3eb8    ...>    SUBS     lr,lr,#0x17000
        0x00010ca6:    bf08        ..      IT       EQ
        0x00010ca8:    2407        .$      MOVEQ    r4,#7
        0x00010caa:    d013        ..      BEQ      0x10cd4 ; gpio_gm_read + 252
        0x00010cac:    f1a04e80    ...N    SUB      lr,r0,#0x40000000
        0x00010cb0:    f5be3ec0    ...>    SUBS     lr,lr,#0x18000
        0x00010cb4:    bf08        ..      IT       EQ
        0x00010cb6:    2408        .$      MOVEQ    r4,#8
        0x00010cb8:    d00c        ..      BEQ      0x10cd4 ; gpio_gm_read + 252
        0x00010cba:    f1a04e80    ...N    SUB      lr,r0,#0x40000000
        0x00010cbe:    f5be3ec8    ...>    SUBS     lr,lr,#0x19000
        0x00010cc2:    bf08        ..      IT       EQ
        0x00010cc4:    2409        .$      MOVEQ    r4,#9
        0x00010cc6:    d005        ..      BEQ      0x10cd4 ; gpio_gm_read + 252
        0x00010cc8:    f1a04e80    ...N    SUB      lr,r0,#0x40000000
        0x00010ccc:    f5be3ed0    ...>    SUBS     lr,lr,#0x1a000
        0x00010cd0:    bf08        ..      IT       EQ
        0x00010cd2:    240a        .$      MOVEQ    r4,#0xa
        0x00010cd4:    fa06f005    ....    LSL      r0,r6,r5
        0x00010cd8:    ea070100    ....    AND      r1,r7,r0
        0x00010cdc:    4281        .B      CMP      r1,r0
        0x00010cde:    d13d        =.      BNE      0x10d5c ; gpio_gm_read + 388
        0x00010ce0:    eb051004    ....    ADD      r0,r5,r4,LSL #4
        0x00010ce4:    2810        .(      CMP      r0,#0x10
        0x00010ce6:    bf38        8.      IT       CC
        0x00010ce8:    4649        IF      MOVCC    r1,r9
        0x00010cea:    d327        '.      BCC      0x10d3c ; gpio_gm_read + 356
        0x00010cec:    2820         (      CMP      r0,#0x20
        0x00010cee:    bf38        8.      IT       CC
        0x00010cf0:    4651        QF      MOVCC    r1,r10
        0x00010cf2:    d323        #.      BCC      0x10d3c ; gpio_gm_read + 356
        0x00010cf4:    2830        0(      CMP      r0,#0x30
        0x00010cf6:    bf38        8.      IT       CC
        0x00010cf8:    4659        YF      MOVCC    r1,r11
        0x00010cfa:    d31f        ..      BCC      0x10d3c ; gpio_gm_read + 356
        0x00010cfc:    2840        @(      CMP      r0,#0x40
        0x00010cfe:    bf38        8.      IT       CC
        0x00010d00:    4919        .I      LDRCC    r1,[pc,#100] ; [0x10d68] = 0x40013000
        0x00010d02:    d31b        ..      BCC      0x10d3c ; gpio_gm_read + 356
        0x00010d04:    2850        P(      CMP      r0,#0x50
        0x00010d06:    bf38        8.      IT       CC
        0x00010d08:    4918        .I      LDRCC    r1,[pc,#96] ; [0x10d6c] = 0x40014000
        0x00010d0a:    d317        ..      BCC      0x10d3c ; gpio_gm_read + 356
        0x00010d0c:    2860        `(      CMP      r0,#0x60
        0x00010d0e:    bf38        8.      IT       CC
        0x00010d10:    4917        .I      LDRCC    r1,[pc,#92] ; [0x10d70] = 0x40015000
        0x00010d12:    d313        ..      BCC      0x10d3c ; gpio_gm_read + 356
        0x00010d14:    2870        p(      CMP      r0,#0x70
        0x00010d16:    bf38        8.      IT       CC
        0x00010d18:    4916        .I      LDRCC    r1,[pc,#88] ; [0x10d74] = 0x40016000
        0x00010d1a:    d30f        ..      BCC      0x10d3c ; gpio_gm_read + 356
        0x00010d1c:    2880        .(      CMP      r0,#0x80
        0x00010d1e:    bf38        8.      IT       CC
        0x00010d20:    4915        .I      LDRCC    r1,[pc,#84] ; [0x10d78] = 0x40017000
        0x00010d22:    d30b        ..      BCC      0x10d3c ; gpio_gm_read + 356
        0x00010d24:    2890        .(      CMP      r0,#0x90
        0x00010d26:    bf38        8.      IT       CC
        0x00010d28:    4914        .I      LDRCC    r1,[pc,#80] ; [0x10d7c] = 0x40018000
        0x00010d2a:    d307        ..      BCC      0x10d3c ; gpio_gm_read + 356
        0x00010d2c:    28a0        .(      CMP      r0,#0xa0
        0x00010d2e:    bf38        8.      IT       CC
        0x00010d30:    4913        .I      LDRCC    r1,[pc,#76] ; [0x10d80] = 0x40019000
        0x00010d32:    d303        ..      BCC      0x10d3c ; gpio_gm_read + 356
        0x00010d34:    28b0        .(      CMP      r0,#0xb0
        0x00010d36:    bf34        4.      ITE      CC
        0x00010d38:    4912        .I      LDRCC    r1,[pc,#72] ; [0x10d84] = 0x4001a000
        0x00010d3a:    2100        .!      MOVCS    r1,#0
        0x00010d3c:    f3c002c0    ....    UBFX     r2,r0,#3,#1
        0x00010d40:    f0000007    ....    AND      r0,r0,#7
        0x00010d44:    eb012182    ...!    ADD      r1,r1,r2,LSL #10
        0x00010d48:    fa06f000    ....    LSL      r0,r6,r0
        0x00010d4c:    eb010080    ....    ADD      r0,r1,r0,LSL #2
        0x00010d50:    f5006080    ...`    ADD      r0,r0,#0x400
        0x00010d54:    f001f9a5    ....    BL       HAL_GPIO_PinRead ; 0x120a2
        0x00010d58:    f8c80000    ....    STR      r0,[r8,#0]
        0x00010d5c:    1c6d        m.      ADDS     r5,r5,#1
        0x00010d5e:    2d10        .-      CMP      r5,#0x10
        0x00010d60:    d3b8        ..      BCC      0x10cd4 ; gpio_gm_read + 252
        0x00010d62:    2000        .       MOVS     r0,#0
        0x00010d64:    e8bd9ff0    ....    POP      {r4-r12,pc}
    $d
        0x00010d68:    40013000    .0.@    DCD    1073819648
        0x00010d6c:    40014000    .@.@    DCD    1073823744
        0x00010d70:    40015000    .P.@    DCD    1073827840
        0x00010d74:    40016000    .`.@    DCD    1073831936
        0x00010d78:    40017000    .p.@    DCD    1073836032
        0x00010d7c:    40018000    ...@    DCD    1073840128
        0x00010d80:    40019000    ...@    DCD    1073844224
        0x00010d84:    4001a000    ...@    DCD    1073848320
    $t
    .text
    pinmux_gm_set
        0x00010d88:    6800        .h      LDR      r0,[r0,#0]
        0x00010d8a:    4611        .F      MOV      r1,r2
        0x00010d8c:    68c0        .h      LDR      r0,[r0,#0xc]
        0x00010d8e:    6800        .h      LDR      r0,[r0,#0]
        0x00010d90:    f001b801    ....    B.W      HAL_GPIO_Init ; 0x11d96
    pinmux_gm_get
        0x00010d94:    6800        .h      LDR      r0,[r0,#0]
        0x00010d96:    68c0        .h      LDR      r0,[r0,#0xc]
        0x00010d98:    6840        @h      LDR      r0,[r0,#4]
        0x00010d9a:    6010        .`      STR      r0,[r2,#0]
        0x00010d9c:    2000        .       MOVS     r0,#0
        0x00010d9e:    4770        pG      BX       lr
    pinmux_gm_pullup
        0x00010da0:    f06f0022    o.".    MVN      r0,#0x22
        0x00010da4:    4770        pG      BX       lr
    pinmux_gm_input
        0x00010da6:    f06f0022    o.".    MVN      r0,#0x22
        0x00010daa:    4770        pG      BX       lr
    pinmux_gm_init
        0x00010dac:    2000        .       MOVS     r0,#0
        0x00010dae:    4770        pG      BX       lr
    .text
    iwdg_gm_enable
        0x00010db0:    4601        .F      MOV      r1,r0
        0x00010db2:    6880        .h      LDR      r0,[r0,#8]
        0x00010db4:    6809        .h      LDR      r1,[r1,#0]
        0x00010db6:    68c9        .h      LDR      r1,[r1,#0xc]
        0x00010db8:    6809        .h      LDR      r1,[r1,#0]
        0x00010dba:    6001        .`      STR      r1,[r0,#0]
        0x00010dbc:    f003ba7b    ..{.    B.W      HAL_IWDG_START ; 0x142b6
    iwdg_gm_disable
        0x00010dc0:    4770        pG      BX       lr
    iwdg_gm_set_config
        0x00010dc2:    b510        ..      PUSH     {r4,lr}
        0x00010dc4:    4602        .F      MOV      r2,r0
        0x00010dc6:    6880        .h      LDR      r0,[r0,#8]
        0x00010dc8:    6812        .h      LDR      r2,[r2,#0]
        0x00010dca:    4b2a        *K      LDR      r3,[pc,#168] ; [0x10e74] = 0xc0019d9c
        0x00010dcc:    68d2        .h      LDR      r2,[r2,#0xc]
        0x00010dce:    6812        .h      LDR      r2,[r2,#0]
        0x00010dd0:    6002        .`      STR      r2,[r0,#0]
        0x00010dd2:    680a        .h      LDR      r2,[r1,#0]
        0x00010dd4:    601a        .`      STR      r2,[r3,#0]
        0x00010dd6:    8a0a        ..      LDRH     r2,[r1,#0x10]
        0x00010dd8:    6042        B`      STR      r2,[r0,#4]
        0x00010dda:    2a08        .*      CMP      r2,#8
        0x00010ddc:    d212        ..      BCS      0x10e04 ; iwdg_gm_set_config + 66
        0x00010dde:    e8dff002    ....    TBB      [pc,r2]
    $d
        0x00010de2:    0604        ..      DCW    1540
        0x00010de4:    110c0a08    ....    DCD    286001672
        0x00010de8:    0e0e        ..      DCW    3598
    $t
        0x00010dea:    2204        ."      MOVS     r2,#4
        0x00010dec:    e00b        ..      B        0x10e06 ; iwdg_gm_set_config + 68
        0x00010dee:    2208        ."      MOVS     r2,#8
        0x00010df0:    e009        ..      B        0x10e06 ; iwdg_gm_set_config + 68
        0x00010df2:    2210        ."      MOVS     r2,#0x10
        0x00010df4:    e007        ..      B        0x10e06 ; iwdg_gm_set_config + 68
        0x00010df6:    2220         "      MOVS     r2,#0x20
        0x00010df8:    e005        ..      B        0x10e06 ; iwdg_gm_set_config + 68
        0x00010dfa:    2240        @"      MOVS     r2,#0x40
        0x00010dfc:    e003        ..      B        0x10e06 ; iwdg_gm_set_config + 68
        0x00010dfe:    f44f7280    O..r    MOV      r2,#0x100
        0x00010e02:    e000        ..      B        0x10e06 ; iwdg_gm_set_config + 68
        0x00010e04:    2280        ."      MOVS     r2,#0x80
        0x00010e06:    6809        .h      LDR      r1,[r1,#0]
        0x00010e08:    0149        I.      LSLS     r1,r1,#5
        0x00010e0a:    fbb1f1f2    ....    UDIV     r1,r1,r2
        0x00010e0e:    6081        .`      STR      r1,[r0,#8]
        0x00010e10:    f003fa09    ....    BL       HAL_IWDG_Init ; 0x14226
        0x00010e14:    2000        .       MOVS     r0,#0
        0x00010e16:    bd10        ..      POP      {r4,pc}
    iwdg_gm_get_config
        0x00010e18:    b510        ..      PUSH     {r4,lr}
        0x00010e1a:    460c        .F      MOV      r4,r1
        0x00010e1c:    4601        .F      MOV      r1,r0
        0x00010e1e:    6880        .h      LDR      r0,[r0,#8]
        0x00010e20:    6809        .h      LDR      r1,[r1,#0]
        0x00010e22:    68c9        .h      LDR      r1,[r1,#0xc]
        0x00010e24:    6809        .h      LDR      r1,[r1,#0]
        0x00010e26:    6001        .`      STR      r1,[r0,#0]
        0x00010e28:    f003fa8d    ....    BL       HAL_IWDG_GetPrescaler ; 0x14346
        0x00010e2c:    8220         .      STRH     r0,[r4,#0x10]
        0x00010e2e:    4811        .H      LDR      r0,[pc,#68] ; [0x10e74] = 0xc0019d9c
        0x00010e30:    6800        .h      LDR      r0,[r0,#0]
        0x00010e32:    6020         `      STR      r0,[r4,#0]
        0x00010e34:    bd10        ..      POP      {r4,pc}
    iwdg_gm_reload
        0x00010e36:    6880        .h      LDR      r0,[r0,#8]
        0x00010e38:    f003ba56    ..V.    B.W      HAL_IWDG_RELOAD_COUNTER ; 0x142e8
    iwdg_gm_init
        0x00010e3c:    b510        ..      PUSH     {r4,lr}
        0x00010e3e:    4604        .F      MOV      r4,r0
        0x00010e40:    f003f9ee    ....    BL       HAL_IWDG_BKD_SW_Reset ; 0x14220
        0x00010e44:    6821        !h      LDR      r1,[r4,#0]
        0x00010e46:    68a0        .h      LDR      r0,[r4,#8]
        0x00010e48:    2340        @#      MOVS     r3,#0x40
        0x00010e4a:    68c9        .h      LDR      r1,[r1,#0xc]
        0x00010e4c:    2200        ."      MOVS     r2,#0
        0x00010e4e:    6809        .h      LDR      r1,[r1,#0]
        0x00010e50:    6001        .`      STR      r1,[r0,#0]
        0x00010e52:    2104        .!      MOVS     r1,#4
        0x00010e54:    e001        ..      B        0x10e5a ; iwdg_gm_init + 30
        0x00010e56:    4299        .B      CMP      r1,r3
        0x00010e58:    d004        ..      BEQ      0x10e64 ; iwdg_gm_init + 40
        0x00010e5a:    0049        I.      LSLS     r1,r1,#1
        0x00010e5c:    1c52        R.      ADDS     r2,r2,#1
        0x00010e5e:    f5b17f80    ....    CMP      r1,#0x100
        0x00010e62:    dbf8        ..      BLT      0x10e56 ; iwdg_gm_init + 26
        0x00010e64:    f44f71fa    O..q    MOV      r1,#0x1f4
        0x00010e68:    e9c02101    ...!    STRD     r2,r1,[r0,#4]
        0x00010e6c:    f003f9db    ....    BL       HAL_IWDG_Init ; 0x14226
        0x00010e70:    2000        .       MOVS     r0,#0
        0x00010e72:    bd10        ..      POP      {r4,pc}
    $d
        0x00010e74:    c0019d9c    ....    DCD    3221331356
    $t
    .text
    HAL_UART_Init
        0x00010e78:    2800        .(      CMP      r0,#0
        0x00010e7a:    bf19        ..      ITTEE    NE
        0x00010e7c:    2900        .)      CMPNE    r1,#0
        0x00010e7e:    2a00        .*      CMPNE    r2,#0
        0x00010e80:    f06f0003    o...    MVNEQ    r0,#3
        0x00010e84:    4770        pG      BXEQ     lr
        0x00010e86:    e92d5ff0    -.._    PUSH     {r4-r12,lr}
        0x00010e8a:    4616        .F      MOV      r6,r2
        0x00010e8c:    460c        .F      MOV      r4,r1
        0x00010e8e:    4605        .F      MOV      r5,r0
        0x00010e90:    4ffe        .O      LDR      r7,[pc,#1016] ; [0x1128c] = 0x4003d000
        0x00010e92:    f8df83fc    ....    LDR      r8,[pc,#1020] ; [0x11290] = 0x40041000
        0x00010e96:    f8df93fc    ....    LDR      r9,[pc,#1020] ; [0x11294] = 0x40042000
        0x00010e9a:    f8dfa3fc    ....    LDR      r10,[pc,#1020] ; [0x11298] = 0x40043000
        0x00010e9e:    f8dfb3fc    ....    LDR      r11,[pc,#1020] ; [0x1129c] = 0x40044000
        0x00010ea2:    f1b12f40    ..@/    CMP      r1,#0x40004000
        0x00010ea6:    d015        ..      BEQ      0x10ed4 ; HAL_UART_Init + 92
        0x00010ea8:    f1a44080    ...@    SUB      r0,r4,#0x40000000
        0x00010eac:    f5b040a0    ...@    SUBS     r0,r0,#0x5000
        0x00010eb0:    d009        ..      BEQ      0x10ec6 ; HAL_UART_Init + 78
        0x00010eb2:    f5b05080    ...P    SUBS     r0,r0,#0x1000
        0x00010eb6:    d012        ..      BEQ      0x10ede ; HAL_UART_Init + 102
        0x00010eb8:    42bc        .B      CMP      r4,r7
        0x00010eba:    d115        ..      BNE      0x10ee8 ; HAL_UART_Init + 112
        0x00010ebc:    2028        (       MOVS     r0,#0x28
        0x00010ebe:    f001fa51    ..Q.    BL       HAL_Reset_Module ; 0x12364
        0x00010ec2:    2008        .       MOVS     r0,#8
        0x00010ec4:    e003        ..      B        0x10ece ; HAL_UART_Init + 86
        0x00010ec6:    2026        &       MOVS     r0,#0x26
        0x00010ec8:    f001fa4c    ..L.    BL       HAL_Reset_Module ; 0x12364
        0x00010ecc:    2002        .       MOVS     r0,#2
        0x00010ece:    f001ff24    ..$.    BL       HAL_CLOCK_PeripheralClockEnable2 ; 0x12d1a
        0x00010ed2:    e025        %.      B        0x10f20 ; HAL_UART_Init + 168
        0x00010ed4:    2025        %       MOVS     r0,#0x25
        0x00010ed6:    f001fa45    ..E.    BL       HAL_Reset_Module ; 0x12364
        0x00010eda:    2001        .       MOVS     r0,#1
        0x00010edc:    e7f7        ..      B        0x10ece ; HAL_UART_Init + 86
        0x00010ede:    2027        '       MOVS     r0,#0x27
        0x00010ee0:    f001fa40    ..@.    BL       HAL_Reset_Module ; 0x12364
        0x00010ee4:    2004        .       MOVS     r0,#4
        0x00010ee6:    e7f2        ..      B        0x10ece ; HAL_UART_Init + 86
        0x00010ee8:    4544        DE      CMP      r4,r8
        0x00010eea:    d104        ..      BNE      0x10ef6 ; HAL_UART_Init + 126
        0x00010eec:    2029        )       MOVS     r0,#0x29
        0x00010eee:    f001fa39    ..9.    BL       HAL_Reset_Module ; 0x12364
        0x00010ef2:    2010        .       MOVS     r0,#0x10
        0x00010ef4:    e7eb        ..      B        0x10ece ; HAL_UART_Init + 86
        0x00010ef6:    454c        LE      CMP      r4,r9
        0x00010ef8:    d104        ..      BNE      0x10f04 ; HAL_UART_Init + 140
        0x00010efa:    202a        *       MOVS     r0,#0x2a
        0x00010efc:    f001fa32    ..2.    BL       HAL_Reset_Module ; 0x12364
        0x00010f00:    2020                MOVS     r0,#0x20
        0x00010f02:    e7e4        ..      B        0x10ece ; HAL_UART_Init + 86
        0x00010f04:    4554        TE      CMP      r4,r10
        0x00010f06:    d104        ..      BNE      0x10f12 ; HAL_UART_Init + 154
        0x00010f08:    202b        +       MOVS     r0,#0x2b
        0x00010f0a:    f001fa2b    ..+.    BL       HAL_Reset_Module ; 0x12364
        0x00010f0e:    2040        @       MOVS     r0,#0x40
        0x00010f10:    e7dd        ..      B        0x10ece ; HAL_UART_Init + 86
        0x00010f12:    455c        \E      CMP      r4,r11
        0x00010f14:    d104        ..      BNE      0x10f20 ; HAL_UART_Init + 168
        0x00010f16:    202c        ,       MOVS     r0,#0x2c
        0x00010f18:    f001fa24    ..$.    BL       HAL_Reset_Module ; 0x12364
        0x00010f1c:    2080        .       MOVS     r0,#0x80
        0x00010f1e:    e7d6        ..      B        0x10ece ; HAL_UART_Init + 86
        0x00010f20:    69e0        .i      LDR      r0,[r4,#0x1c]
        0x00010f22:    2000        .       MOVS     r0,#0
        0x00010f24:    61e0        .a      STR      r0,[r4,#0x1c]
        0x00010f26:    6921        !i      LDR      r1,[r4,#0x10]
        0x00010f28:    7972        ry      LDRB     r2,[r6,#5]
        0x00010f2a:    f0210103    !...    BIC      r1,r1,#3
        0x00010f2e:    4311        .C      ORRS     r1,r1,r2
        0x00010f30:    6121        !a      STR      r1,[r4,#0x10]
        0x00010f32:    79b1        .y      LDRB     r1,[r6,#6]
        0x00010f34:    2900        .)      CMP      r1,#0
        0x00010f36:    bf04        ..      ITT      EQ
        0x00010f38:    6921        !i      LDREQ    r1,[r4,#0x10]
        0x00010f3a:    f0210104    !...    BICEQ    r1,r1,#4
        0x00010f3e:    d00d        ..      BEQ      0x10f5c ; HAL_UART_Init + 228
        0x00010f40:    7972        ry      LDRB     r2,[r6,#5]
        0x00010f42:    b112        ..      CBZ      r2,0x10f4a ; HAL_UART_Init + 210
        0x00010f44:    2901        .)      CMP      r1,#1
        0x00010f46:    d006        ..      BEQ      0x10f56 ; HAL_UART_Init + 222
        0x00010f48:    e001        ..      B        0x10f4e ; HAL_UART_Init + 214
        0x00010f4a:    2902        .)      CMP      r1,#2
        0x00010f4c:    d003        ..      BEQ      0x10f56 ; HAL_UART_Init + 222
        0x00010f4e:    f06f0003    o...    MVN      r0,#3
        0x00010f52:    e8bd9ff0    ....    POP      {r4-r12,pc}
        0x00010f56:    6921        !i      LDR      r1,[r4,#0x10]
        0x00010f58:    f0410104    A...    ORR      r1,r1,#4
        0x00010f5c:    6121        !a      STR      r1,[r4,#0x10]
        0x00010f5e:    6832        2h      LDR      r2,[r6,#0]
        0x00010f60:    68b1        .h      LDR      r1,[r6,#8]
        0x00010f62:    0112        ..      LSLS     r2,r2,#4
        0x00010f64:    fbb1f1f2    ....    UDIV     r1,r1,r2
        0x00010f68:    6862        bh      LDR      r2,[r4,#4]
        0x00010f6a:    eac10102    ....    PKHBT    r1,r1,r2
        0x00010f6e:    6061        a`      STR      r1,[r4,#4]
        0x00010f70:    7931        1y      LDRB     r1,[r6,#4]
        0x00010f72:    2902        .)      CMP      r1,#2
        0x00010f74:    6921        !i      LDR      r1,[r4,#0x10]
        0x00010f76:    bf04        ..      ITT      EQ
        0x00010f78:    f0210108    !...    BICEQ    r1,r1,#8
        0x00010f7c:    6121        !a      STREQ    r1,[r4,#0x10]
        0x00010f7e:    d010        ..      BEQ      0x10fa2 ; HAL_UART_Init + 298
        0x00010f80:    f0410108    A...    ORR      r1,r1,#8
        0x00010f84:    6121        !a      STR      r1,[r4,#0x10]
        0x00010f86:    7931        1y      LDRB     r1,[r6,#4]
        0x00010f88:    2901        .)      CMP      r1,#1
        0x00010f8a:    bf04        ..      ITT      EQ
        0x00010f8c:    6921        !i      LDREQ    r1,[r4,#0x10]
        0x00010f8e:    f0410110    A...    ORREQ    r1,r1,#0x10
        0x00010f92:    d005        ..      BEQ      0x10fa0 ; HAL_UART_Init + 296
        0x00010f94:    2900        .)      CMP      r1,#0
        0x00010f96:    bf04        ..      ITT      EQ
        0x00010f98:    6921        !i      LDREQ    r1,[r4,#0x10]
        0x00010f9a:    f0210110    !...    BICEQ    r1,r1,#0x10
        0x00010f9e:    d100        ..      BNE      0x10fa2 ; HAL_UART_Init + 298
        0x00010fa0:    6121        !a      STR      r1,[r4,#0x10]
        0x00010fa2:    68e1        .h      LDR      r1,[r4,#0xc]
        0x00010fa4:    f0210101    !...    BIC      r1,r1,#1
        0x00010fa8:    60e1        .`      STR      r1,[r4,#0xc]
        0x00010faa:    6160        `a      STR      r0,[r4,#0x14]
        0x00010fac:    6a21        !j      LDR      r1,[r4,#0x20]
        0x00010fae:    f04f31ff    O..1    MOV      r1,#0xffffffff
        0x00010fb2:    6221        !b      STR      r1,[r4,#0x20]
        0x00010fb4:    6921        !i      LDR      r1,[r4,#0x10]
        0x00010fb6:    f4413180    A..1    ORR      r1,r1,#0x10000
        0x00010fba:    6121        !a      STR      r1,[r4,#0x10]
        0x00010fbc:    6921        !i      LDR      r1,[r4,#0x10]
        0x00010fbe:    f4413100    A..1    ORR      r1,r1,#0x20000
        0x00010fc2:    6121        !a      STR      r1,[r4,#0x10]
        0x00010fc4:    49b6        .I      LDR      r1,[pc,#728] ; [0x112a0] = 0xc001af68
        0x00010fc6:    f1b42f40    ..@/    CMP      r4,#0x40004000
        0x00010fca:    bf04        ..      ITT      EQ
        0x00010fcc:    600d        .`      STREQ    r5,[r1,#0]
        0x00010fce:    2112        .!      MOVEQ    r1,#0x12
        0x00010fd0:    d034        4.      BEQ      0x1103c ; HAL_UART_Init + 452
        0x00010fd2:    f1a44280    ...B    SUB      r2,r4,#0x40000000
        0x00010fd6:    f5b242a0    ...B    SUBS     r2,r2,#0x5000
        0x00010fda:    bf04        ..      ITT      EQ
        0x00010fdc:    604d        M`      STREQ    r5,[r1,#4]
        0x00010fde:    2113        .!      MOVEQ    r1,#0x13
        0x00010fe0:    d02c        ,.      BEQ      0x1103c ; HAL_UART_Init + 452
        0x00010fe2:    4ab0        .J      LDR      r2,[pc,#704] ; [0x112a4] = 0x40006000
        0x00010fe4:    4294        .B      CMP      r4,r2
        0x00010fe6:    bf08        ..      IT       EQ
        0x00010fe8:    608d        .`      STREQ    r5,[r1,#8]
        0x00010fea:    d013        ..      BEQ      0x11014 ; HAL_UART_Init + 412
        0x00010fec:    42bc        .B      CMP      r4,r7
        0x00010fee:    bf08        ..      IT       EQ
        0x00010ff0:    60cd        .`      STREQ    r5,[r1,#0xc]
        0x00010ff2:    d00f        ..      BEQ      0x11014 ; HAL_UART_Init + 412
        0x00010ff4:    4544        DE      CMP      r4,r8
        0x00010ff6:    bf08        ..      IT       EQ
        0x00010ff8:    610d        .a      STREQ    r5,[r1,#0x10]
        0x00010ffa:    d00b        ..      BEQ      0x11014 ; HAL_UART_Init + 412
        0x00010ffc:    454c        LE      CMP      r4,r9
        0x00010ffe:    bf08        ..      IT       EQ
        0x00011000:    614d        Ma      STREQ    r5,[r1,#0x14]
        0x00011002:    d007        ..      BEQ      0x11014 ; HAL_UART_Init + 412
        0x00011004:    4554        TE      CMP      r4,r10
        0x00011006:    bf08        ..      IT       EQ
        0x00011008:    618d        .a      STREQ    r5,[r1,#0x18]
        0x0001100a:    d003        ..      BEQ      0x11014 ; HAL_UART_Init + 412
        0x0001100c:    455c        \E      CMP      r4,r11
        0x0001100e:    bf08        ..      IT       EQ
        0x00011010:    61cd        .a      STREQ    r5,[r1,#0x1c]
        0x00011012:    d017        ..      BEQ      0x11044 ; HAL_UART_Init + 460
        0x00011014:    4294        .B      CMP      r4,r2
        0x00011016:    bf08        ..      IT       EQ
        0x00011018:    2114        .!      MOVEQ    r1,#0x14
        0x0001101a:    d00f        ..      BEQ      0x1103c ; HAL_UART_Init + 452
        0x0001101c:    42bc        .B      CMP      r4,r7
        0x0001101e:    bf08        ..      IT       EQ
        0x00011020:    213c        <!      MOVEQ    r1,#0x3c
        0x00011022:    d00b        ..      BEQ      0x1103c ; HAL_UART_Init + 452
        0x00011024:    4544        DE      CMP      r4,r8
        0x00011026:    bf08        ..      IT       EQ
        0x00011028:    213d        =!      MOVEQ    r1,#0x3d
        0x0001102a:    d007        ..      BEQ      0x1103c ; HAL_UART_Init + 452
        0x0001102c:    454c        LE      CMP      r4,r9
        0x0001102e:    bf08        ..      IT       EQ
        0x00011030:    213e        >!      MOVEQ    r1,#0x3e
        0x00011032:    d003        ..      BEQ      0x1103c ; HAL_UART_Init + 452
        0x00011034:    4554        TE      CMP      r4,r10
        0x00011036:    bf08        ..      IT       EQ
        0x00011038:    213f        ?!      MOVEQ    r1,#0x3f
        0x0001103a:    d101        ..      BNE      0x11040 ; HAL_UART_Init + 456
        0x0001103c:    6069        i`      STR      r1,[r5,#4]
        0x0001103e:    e003        ..      B        0x11048 ; HAL_UART_Init + 464
        0x00011040:    455c        \E      CMP      r4,r11
        0x00011042:    d101        ..      BNE      0x11048 ; HAL_UART_Init + 464
        0x00011044:    2140        @!      MOVS     r1,#0x40
        0x00011046:    e7f9        ..      B        0x1103c ; HAL_UART_Init + 452
        0x00011048:    602c        ,`      STR      r4,[r5,#0]
        0x0001104a:    81a8        ..      STRH     r0,[r5,#0xc]
        0x0001104c:    6931        1i      LDR      r1,[r6,#0x10]
        0x0001104e:    65e9        .e      STR      r1,[r5,#0x5c]
        0x00011050:    7468        ht      STRB     r0,[r5,#0x11]
        0x00011052:    7428        (t      STRB     r0,[r5,#0x10]
        0x00011054:    60a8        .`      STR      r0,[r5,#8]
        0x00011056:    f8a5004c    ..L.    STRH     r0,[r5,#0x4c]
        0x0001105a:    f8a5004a    ..J.    STRH     r0,[r5,#0x4a]
        0x0001105e:    f8a50056    ..V.    STRH     r0,[r5,#0x56]
        0x00011062:    f8a50054    ..T.    STRH     r0,[r5,#0x54]
        0x00011066:    f8a50058    ..X.    STRH     r0,[r5,#0x58]
        0x0001106a:    f8a50048    ..H.    STRH     r0,[r5,#0x48]
        0x0001106e:    73e8        .s      STRB     r0,[r5,#0xf]
        0x00011070:    73a8        .s      STRB     r0,[r5,#0xe]
        0x00011072:    488d        .H      LDR      r0,[pc,#564] ; [0x112a8] = 0xc0019da0
        0x00011074:    f7fff96f    ..o.    BL       HAL_LockInit ; 0x10356
        0x00011078:    2000        .       MOVS     r0,#0
        0x0001107a:    e8bd9ff0    ....    POP      {r4-r12,pc}
    HAL_UART_DeInit
        0x0001107e:    6801        .h      LDR      r1,[r0,#0]
        0x00011080:    68ca        .h      LDR      r2,[r1,#0xc]
        0x00011082:    f0220201    "...    BIC      r2,r2,#1
        0x00011086:    60ca        .`      STR      r2,[r1,#0xc]
        0x00011088:    6800        .h      LDR      r0,[r0,#0]
        0x0001108a:    69c1        .i      LDR      r1,[r0,#0x1c]
        0x0001108c:    2100        .!      MOVS     r1,#0
        0x0001108e:    61c1        .a      STR      r1,[r0,#0x1c]
        0x00011090:    4608        .F      MOV      r0,r1
        0x00011092:    4770        pG      BX       lr
    HAL_UART_SetMode
        0x00011094:    b179        y.      CBZ      r1,0x110b6 ; HAL_UART_SetMode + 34
        0x00011096:    2901        .)      CMP      r1,#1
        0x00011098:    d015        ..      BEQ      0x110c6 ; HAL_UART_SetMode + 50
        0x0001109a:    2902        .)      CMP      r1,#2
        0x0001109c:    d01b        ..      BEQ      0x110d6 ; HAL_UART_SetMode + 66
        0x0001109e:    2903        .)      CMP      r1,#3
        0x000110a0:    bf18        ..      IT       NE
        0x000110a2:    4770        pG      BXNE     lr
        0x000110a4:    68c1        .h      LDR      r1,[r0,#0xc]
        0x000110a6:    f4217180    !..q    BIC      r1,r1,#0x100
        0x000110aa:    60c1        .`      STR      r1,[r0,#0xc]
        0x000110ac:    68c1        .h      LDR      r1,[r0,#0xc]
        0x000110ae:    f4217100    !..q    BIC      r1,r1,#0x200
        0x000110b2:    60c1        .`      STR      r1,[r0,#0xc]
        0x000110b4:    4770        pG      BX       lr
        0x000110b6:    68c1        .h      LDR      r1,[r0,#0xc]
        0x000110b8:    f4417100    A..q    ORR      r1,r1,#0x200
        0x000110bc:    60c1        .`      STR      r1,[r0,#0xc]
        0x000110be:    68c1        .h      LDR      r1,[r0,#0xc]
        0x000110c0:    f4217180    !..q    BIC      r1,r1,#0x100
        0x000110c4:    e7f5        ..      B        0x110b2 ; HAL_UART_SetMode + 30
        0x000110c6:    68c1        .h      LDR      r1,[r0,#0xc]
        0x000110c8:    f4417180    A..q    ORR      r1,r1,#0x100
        0x000110cc:    60c1        .`      STR      r1,[r0,#0xc]
        0x000110ce:    68c1        .h      LDR      r1,[r0,#0xc]
        0x000110d0:    f4217100    !..q    BIC      r1,r1,#0x200
        0x000110d4:    e7ed        ..      B        0x110b2 ; HAL_UART_SetMode + 30
        0x000110d6:    68c1        .h      LDR      r1,[r0,#0xc]
        0x000110d8:    f4417100    A..q    ORR      r1,r1,#0x200
        0x000110dc:    60c1        .`      STR      r1,[r0,#0xc]
        0x000110de:    68c1        .h      LDR      r1,[r0,#0xc]
        0x000110e0:    f4417180    A..q    ORR      r1,r1,#0x100
        0x000110e4:    e7e5        ..      B        0x110b2 ; HAL_UART_SetMode + 30
    HAL_UART_TransferConfig
        0x000110e6:    b5f8        ..      PUSH     {r3-r7,lr}
        0x000110e8:    0005        ..      MOVS     r5,r0
        0x000110ea:    460e        .F      MOV      r6,r1
        0x000110ec:    682c        ,h      LDR      r4,[r5,#0]
        0x000110ee:    bf14        ..      ITE      NE
        0x000110f0:    2e00        ..      CMPNE    r6,#0
        0x000110f2:    bdf8        ..      POPEQ    {r3-r7,pc}
        0x000110f4:    486c        lH      LDR      r0,[pc,#432] ; [0x112a8] = 0xc0019da0
        0x000110f6:    f7fff937    ..7.    BL       HAL_TryLock ; 0x10368
        0x000110fa:    7831        1x      LDRB     r1,[r6,#0]
        0x000110fc:    81a9        ..      STRH     r1,[r5,#0xc]
        0x000110fe:    7870        px      LDRB     r0,[r6,#1]
        0x00011100:    73a8        .s      STRB     r0,[r5,#0xe]
        0x00011102:    78b0        .x      LDRB     r0,[r6,#2]
        0x00011104:    73e8        .s      STRB     r0,[r5,#0xf]
        0x00011106:    78f0        .x      LDRB     r0,[r6,#3]
        0x00011108:    7428        (t      STRB     r0,[r5,#0x10]
        0x0001110a:    7930        0y      LDRB     r0,[r6,#4]
        0x0001110c:    7468        ht      STRB     r0,[r5,#0x11]
        0x0001110e:    2000        .       MOVS     r0,#0
        0x00011110:    60a8        .`      STR      r0,[r5,#8]
        0x00011112:    f8a50048    ..H.    STRH     r0,[r5,#0x48]
        0x00011116:    f8a5004c    ..L.    STRH     r0,[r5,#0x4c]
        0x0001111a:    f8a5004a    ..J.    STRH     r0,[r5,#0x4a]
        0x0001111e:    f8a50058    ..X.    STRH     r0,[r5,#0x58]
        0x00011122:    f8a50056    ..V.    STRH     r0,[r5,#0x56]
        0x00011126:    f8a50054    ..T.    STRH     r0,[r5,#0x54]
        0x0001112a:    74e8        .t      STRB     r0,[r5,#0x13]
        0x0001112c:    74a8        .t      STRB     r0,[r5,#0x12]
        0x0001112e:    68e0        .h      LDR      r0,[r4,#0xc]
        0x00011130:    2900        .)      CMP      r1,#0
        0x00011132:    bf04        ..      ITT      EQ
        0x00011134:    f0200001     ...    BICEQ    r0,r0,#1
        0x00011138:    60e0        .`      STREQ    r0,[r4,#0xc]
        0x0001113a:    d034        4.      BEQ      0x111a6 ; HAL_UART_TransferConfig + 192
        0x0001113c:    f0400001    @...    ORR      r0,r0,#1
        0x00011140:    60e0        .`      STR      r0,[r4,#0xc]
        0x00011142:    68e0        .h      LDR      r0,[r4,#0xc]
        0x00011144:    f0400004    @...    ORR      r0,r0,#4
        0x00011148:    60e0        .`      STR      r0,[r4,#0xc]
        0x0001114a:    68e0        .h      LDR      r0,[r4,#0xc]
        0x0001114c:    f0400002    @...    ORR      r0,r0,#2
        0x00011150:    60e0        .`      STR      r0,[r4,#0xc]
        0x00011152:    6a20         j      LDR      r0,[r4,#0x20]
        0x00011154:    f4403080    @..0    ORR      r0,r0,#0x10000
        0x00011158:    6220         b      STR      r0,[r4,#0x20]
        0x0001115a:    6a20         j      LDR      r0,[r4,#0x20]
        0x0001115c:    f4403000    @..0    ORR      r0,r0,#0x20000
        0x00011160:    6220         b      STR      r0,[r4,#0x20]
        0x00011162:    7ba8        .{      LDRB     r0,[r5,#0xe]
        0x00011164:    1e41        A.      SUBS     r1,r0,#1
        0x00011166:    290f        .)      CMP      r1,#0xf
        0x00011168:    bf88        ..      IT       HI
        0x0001116a:    2008        .       MOVHI    r0,#8
        0x0001116c:    7be9        .{      LDRB     r1,[r5,#0xf]
        0x0001116e:    1e4a        J.      SUBS     r2,r1,#1
        0x00011170:    2a0f        .*      CMP      r2,#0xf
        0x00011172:    bf88        ..      IT       HI
        0x00011174:    2108        .!      MOVHI    r1,#8
        0x00011176:    69a2        .i      LDR      r2,[r4,#0x18]
        0x00011178:    f022021f    "...    BIC      r2,r2,#0x1f
        0x0001117c:    4310        .C      ORRS     r0,r0,r2
        0x0001117e:    61a0        .a      STR      r0,[r4,#0x18]
        0x00011180:    69a0        .i      LDR      r0,[r4,#0x18]
        0x00011182:    f42010f8     ...    BIC      r0,r0,#0x1f0000
        0x00011186:    ea404001    @..@    ORR      r0,r0,r1,LSL #16
        0x0001118a:    61a0        .a      STR      r0,[r4,#0x18]
        0x0001118c:    6a60        `j      LDR      r0,[r4,#0x24]
        0x0001118e:    f4203080     ..0    BIC      r0,r0,#0x10000
        0x00011192:    6260        `b      STR      r0,[r4,#0x24]
        0x00011194:    6a60        `j      LDR      r0,[r4,#0x24]
        0x00011196:    f0200001     ...    BIC      r0,r0,#1
        0x0001119a:    6260        `b      STR      r0,[r4,#0x24]
        0x0001119c:    e8bd40f8    ...@    POP      {r3-r7,lr}
        0x000111a0:    4841        AH      LDR      r0,[pc,#260] ; [0x112a8] = 0xc0019da0
        0x000111a2:    f7ffb8f0    ....    B        HAL_UnLock ; 0x10386
        0x000111a6:    6960        `i      LDR      r0,[r4,#0x14]
        0x000111a8:    f0100f80    ....    TST      r0,#0x80
        0x000111ac:    d0fb        ..      BEQ      0x111a6 ; HAL_UART_TransferConfig + 192
        0x000111ae:    6820         h      LDR      r0,[r4,#0]
        0x000111b0:    6820         h      LDR      r0,[r4,#0]
        0x000111b2:    f3c00008    ....    UBFX     r0,r0,#0,#9
        0x000111b6:    9000        ..      STR      r0,[sp,#0]
        0x000111b8:    e7e8        ..      B        0x1118c ; HAL_UART_TransferConfig + 166
    HAL_UART_EnableInterrupts
        0x000111ba:    f0110f01    ....    TST      r1,#1
        0x000111be:    d007        ..      BEQ      0x111d0 ; HAL_UART_EnableInterrupts + 22
        0x000111c0:    69c2        .i      LDR      r2,[r0,#0x1c]
        0x000111c2:    f0420230    B.0.    ORR      r2,r2,#0x30
        0x000111c6:    61c2        .a      STR      r2,[r0,#0x1c]
        0x000111c8:    69c2        .i      LDR      r2,[r0,#0x1c]
        0x000111ca:    f042020f    B...    ORR      r2,r2,#0xf
        0x000111ce:    61c2        .a      STR      r2,[r0,#0x1c]
        0x000111d0:    f0110f02    ....    TST      r1,#2
        0x000111d4:    d003        ..      BEQ      0x111de ; HAL_UART_EnableInterrupts + 36
        0x000111d6:    69c2        .i      LDR      r2,[r0,#0x1c]
        0x000111d8:    f0420240    B.@.    ORR      r2,r2,#0x40
        0x000111dc:    61c2        .a      STR      r2,[r0,#0x1c]
        0x000111de:    f0110f04    ....    TST      r1,#4
        0x000111e2:    d003        ..      BEQ      0x111ec ; HAL_UART_EnableInterrupts + 50
        0x000111e4:    69c2        .i      LDR      r2,[r0,#0x1c]
        0x000111e6:    f4423200    B..2    ORR      r2,r2,#0x20000
        0x000111ea:    61c2        .a      STR      r2,[r0,#0x1c]
        0x000111ec:    f0110f08    ....    TST      r1,#8
        0x000111f0:    bf08        ..      IT       EQ
        0x000111f2:    4770        pG      BXEQ     lr
        0x000111f4:    69c1        .i      LDR      r1,[r0,#0x1c]
        0x000111f6:    f4413180    A..1    ORR      r1,r1,#0x10000
        0x000111fa:    61c1        .a      STR      r1,[r0,#0x1c]
        0x000111fc:    4770        pG      BX       lr
    HAL_UART_DisableInterrupts
        0x000111fe:    f0110f01    ....    TST      r1,#1
        0x00011202:    d007        ..      BEQ      0x11214 ; HAL_UART_DisableInterrupts + 22
        0x00011204:    69c2        .i      LDR      r2,[r0,#0x1c]
        0x00011206:    f0220230    ".0.    BIC      r2,r2,#0x30
        0x0001120a:    61c2        .a      STR      r2,[r0,#0x1c]
        0x0001120c:    69c2        .i      LDR      r2,[r0,#0x1c]
        0x0001120e:    f022020f    "...    BIC      r2,r2,#0xf
        0x00011212:    61c2        .a      STR      r2,[r0,#0x1c]
        0x00011214:    f0110f02    ....    TST      r1,#2
        0x00011218:    d003        ..      BEQ      0x11222 ; HAL_UART_DisableInterrupts + 36
        0x0001121a:    69c2        .i      LDR      r2,[r0,#0x1c]
        0x0001121c:    f0220240    ".@.    BIC      r2,r2,#0x40
        0x00011220:    61c2        .a      STR      r2,[r0,#0x1c]
        0x00011222:    f0110f04    ....    TST      r1,#4
        0x00011226:    d003        ..      BEQ      0x11230 ; HAL_UART_DisableInterrupts + 50
        0x00011228:    69c2        .i      LDR      r2,[r0,#0x1c]
        0x0001122a:    f4223200    "..2    BIC      r2,r2,#0x20000
        0x0001122e:    61c2        .a      STR      r2,[r0,#0x1c]
        0x00011230:    f0110f08    ....    TST      r1,#8
        0x00011234:    bf08        ..      IT       EQ
        0x00011236:    4770        pG      BXEQ     lr
        0x00011238:    69c1        .i      LDR      r1,[r0,#0x1c]
        0x0001123a:    f4213180    !..1    BIC      r1,r1,#0x10000
        0x0001123e:    61c1        .a      STR      r1,[r0,#0x1c]
        0x00011240:    4770        pG      BX       lr
    UART_TxDMACallback
        0x00011242:    2900        .)      CMP      r1,#0
        0x00011244:    bf18        ..      IT       NE
        0x00011246:    4770        pG      BXNE     lr
        0x00011248:    b510        ..      PUSH     {r4,lr}
        0x0001124a:    4604        .F      MOV      r4,r0
        0x0001124c:    382c        ,8      SUBS     r0,r0,#0x2c
        0x0001124e:    bf08        ..      IT       EQ
        0x00011250:    bd10        ..      POPEQ    {r4,pc}
        0x00011252:    2100        .!      MOVS     r1,#0
        0x00011254:    74c1        .t      STRB     r1,[r0,#0x13]
        0x00011256:    f8b0204c    ..L     LDRH     r2,[r0,#0x4c]
        0x0001125a:    f8b03048    ..H0    LDRH     r3,[r0,#0x48]
        0x0001125e:    441a        .D      ADD      r2,r2,r3
        0x00011260:    f8a0204c    ..L     STRH     r2,[r0,#0x4c]
        0x00011264:    f8a01048    ..H.    STRH     r1,[r0,#0x48]
        0x00011268:    f8b0104a    ..J.    LDRH     r1,[r0,#0x4a]
        0x0001126c:    b292        ..      UXTH     r2,r2
        0x0001126e:    4291        .B      CMP      r1,r2
        0x00011270:    d108        ..      BNE      0x11284 ; UART_TxDMACallback + 66
        0x00011272:    6881        .h      LDR      r1,[r0,#8]
        0x00011274:    f0210102    !...    BIC      r1,r1,#2
        0x00011278:    6081        .`      STR      r1,[r0,#8]
        0x0001127a:    6dc3        .m      LDR      r3,[r0,#0x5c]
        0x0001127c:    b113        ..      CBZ      r3,0x11284 ; UART_TxDMACallback + 66
        0x0001127e:    2200        ."      MOVS     r2,#0
        0x00011280:    2108        .!      MOVS     r1,#8
        0x00011282:    4798        .G      BLX      r3
        0x00011284:    4620         F      MOV      r0,r4
        0x00011286:    e8bd4010    ...@    POP      {r4,lr}
        0x0001128a:    e00f        ..      B        0x112ac ; UART_TxDMACallback + 106
    $d
        0x0001128c:    4003d000    ...@    DCD    1073991680
        0x00011290:    40041000    ...@    DCD    1074008064
        0x00011294:    40042000    . .@    DCD    1074012160
        0x00011298:    40043000    .0.@    DCD    1074016256
        0x0001129c:    40044000    .@.@    DCD    1074020352
        0x000112a0:    c001af68    h...    DCD    3221335912
        0x000112a4:    40006000    .`.@    DCD    1073766400
        0x000112a8:    c0019da0    ....    DCD    3221331360
    $t
        0x000112ac:    f002bdd9    ....    B.W      HAL_DMA_Abort ; 0x13e62
    UART_RxDMACallback
        0x000112b0:    2900        .)      CMP      r1,#0
        0x000112b2:    bf18        ..      IT       NE
        0x000112b4:    4770        pG      BXNE     lr
        0x000112b6:    b510        ..      PUSH     {r4,lr}
        0x000112b8:    4604        .F      MOV      r4,r0
        0x000112ba:    3814        .8      SUBS     r0,r0,#0x14
        0x000112bc:    bf08        ..      IT       EQ
        0x000112be:    bd10        ..      POPEQ    {r4,pc}
        0x000112c0:    2100        .!      MOVS     r1,#0
        0x000112c2:    7481        .t      STRB     r1,[r0,#0x12]
        0x000112c4:    f8b02056    ..V     LDRH     r2,[r0,#0x56]
        0x000112c8:    f8b03058    ..X0    LDRH     r3,[r0,#0x58]
        0x000112cc:    441a        .D      ADD      r2,r2,r3
        0x000112ce:    f8a02056    ..V     STRH     r2,[r0,#0x56]
        0x000112d2:    f8a01058    ..X.    STRH     r1,[r0,#0x58]
        0x000112d6:    f8b01054    ..T.    LDRH     r1,[r0,#0x54]
        0x000112da:    b292        ..      UXTH     r2,r2
        0x000112dc:    4291        .B      CMP      r1,r2
        0x000112de:    d108        ..      BNE      0x112f2 ; UART_RxDMACallback + 66
        0x000112e0:    6881        .h      LDR      r1,[r0,#8]
        0x000112e2:    f0210101    !...    BIC      r1,r1,#1
        0x000112e6:    6081        .`      STR      r1,[r0,#8]
        0x000112e8:    6dc3        .m      LDR      r3,[r0,#0x5c]
        0x000112ea:    b113        ..      CBZ      r3,0x112f2 ; UART_RxDMACallback + 66
        0x000112ec:    2200        ."      MOVS     r2,#0
        0x000112ee:    2110        .!      MOVS     r1,#0x10
        0x000112f0:    4798        .G      BLX      r3
        0x000112f2:    4620         F      MOV      r0,r4
        0x000112f4:    e8bd4010    ...@    POP      {r4,lr}
        0x000112f8:    f002bdb3    ....    B.W      HAL_DMA_Abort ; 0x13e62
    UART_DMAConfig
        0x000112fc:    e92d4ff0    -..O    PUSH     {r4-r11,lr}
        0x00011300:    4691        .F      MOV      r9,r2
        0x00011302:    4604        .F      MOV      r4,r0
        0x00011304:    2500        .%      MOVS     r5,#0
        0x00011306:    2601        .&      MOVS     r6,#1
        0x00011308:    48fc        .H      LDR      r0,[pc,#1008] ; [0x116fc] = 0x40005000
        0x0001130a:    4afd        .J      LDR      r2,[pc,#1012] ; [0x11700] = 0x40006000
        0x0001130c:    4bfd        .K      LDR      r3,[pc,#1012] ; [0x11704] = 0x4003d000
        0x0001130e:    f8dfc3f8    ....    LDR      r12,[pc,#1016] ; [0x11708] = 0x40041000
        0x00011312:    f8dfa3f8    ....    LDR      r10,[pc,#1016] ; [0x1170c] = 0x40042000
        0x00011316:    f8dfb3f8    ....    LDR      r11,[pc,#1016] ; [0x11710] = 0x40043000
        0x0001131a:    f8dfe3f8    ....    LDR      lr,[pc,#1016] ; [0x11714] = 0x40044000
        0x0001131e:    2702        .'      MOVS     r7,#2
        0x00011320:    f8df83f4    ....    LDR      r8,[pc,#1012] ; [0x11718] = 0x40020000
        0x00011324:    b085        ..      SUB      sp,sp,#0x14
        0x00011326:    2900        .)      CMP      r1,#0
        0x00011328:    d06b        k.      BEQ      0x11402 ; UART_DMAConfig + 262
        0x0001132a:    f1b42f40    ..@/    CMP      r4,#0x40004000
        0x0001132e:    d007        ..      BEQ      0x11340 ; UART_DMAConfig + 68
        0x00011330:    4284        .B      CMP      r4,r0
        0x00011332:    d10b        ..      BNE      0x1134c ; UART_DMAConfig + 80
        0x00011334:    466a        jF      MOV      r2,sp
        0x00011336:    2108        .!      MOVS     r1,#8
        0x00011338:    4640        @F      MOV      r0,r8
        0x0001133a:    f002fc17    ....    BL       HAL_DMA_Request_Channel ; 0x13b6c
        0x0001133e:    e037        7.      B        0x113b0 ; UART_DMAConfig + 180
        0x00011340:    466a        jF      MOV      r2,sp
        0x00011342:    2106        .!      MOVS     r1,#6
        0x00011344:    4640        @F      MOV      r0,r8
        0x00011346:    f002fc11    ....    BL       HAL_DMA_Request_Channel ; 0x13b6c
        0x0001134a:    e031        1.      B        0x113b0 ; UART_DMAConfig + 180
        0x0001134c:    4294        .B      CMP      r4,r2
        0x0001134e:    d105        ..      BNE      0x1135c ; UART_DMAConfig + 96
        0x00011350:    466a        jF      MOV      r2,sp
        0x00011352:    210a        .!      MOVS     r1,#0xa
        0x00011354:    4640        @F      MOV      r0,r8
        0x00011356:    f002fc09    ....    BL       HAL_DMA_Request_Channel ; 0x13b6c
        0x0001135a:    e029        ).      B        0x113b0 ; UART_DMAConfig + 180
        0x0001135c:    429c        .B      CMP      r4,r3
        0x0001135e:    d105        ..      BNE      0x1136c ; UART_DMAConfig + 112
        0x00011360:    466a        jF      MOV      r2,sp
        0x00011362:    210c        .!      MOVS     r1,#0xc
        0x00011364:    4640        @F      MOV      r0,r8
        0x00011366:    f002fc01    ....    BL       HAL_DMA_Request_Channel ; 0x13b6c
        0x0001136a:    e021        !.      B        0x113b0 ; UART_DMAConfig + 180
        0x0001136c:    4564        dE      CMP      r4,r12
        0x0001136e:    d105        ..      BNE      0x1137c ; UART_DMAConfig + 128
        0x00011370:    466a        jF      MOV      r2,sp
        0x00011372:    210e        .!      MOVS     r1,#0xe
        0x00011374:    4640        @F      MOV      r0,r8
        0x00011376:    f002fbf9    ....    BL       HAL_DMA_Request_Channel ; 0x13b6c
        0x0001137a:    e019        ..      B        0x113b0 ; UART_DMAConfig + 180
        0x0001137c:    4554        TE      CMP      r4,r10
        0x0001137e:    d105        ..      BNE      0x1138c ; UART_DMAConfig + 144
        0x00011380:    466a        jF      MOV      r2,sp
        0x00011382:    2110        .!      MOVS     r1,#0x10
        0x00011384:    4640        @F      MOV      r0,r8
        0x00011386:    f002fbf1    ....    BL       HAL_DMA_Request_Channel ; 0x13b6c
        0x0001138a:    e011        ..      B        0x113b0 ; UART_DMAConfig + 180
        0x0001138c:    455c        \E      CMP      r4,r11
        0x0001138e:    d105        ..      BNE      0x1139c ; UART_DMAConfig + 160
        0x00011390:    466a        jF      MOV      r2,sp
        0x00011392:    2112        .!      MOVS     r1,#0x12
        0x00011394:    4640        @F      MOV      r0,r8
        0x00011396:    f002fbe9    ....    BL       HAL_DMA_Request_Channel ; 0x13b6c
        0x0001139a:    e009        ..      B        0x113b0 ; UART_DMAConfig + 180
        0x0001139c:    4574        tE      CMP      r4,lr
        0x0001139e:    bf1c        ..      ITT      NE
        0x000113a0:    b005        ..      ADDNE    sp,sp,#0x14
        0x000113a2:    e8bd8ff0    ....    POPNE    {r4-r11,pc}
        0x000113a6:    466a        jF      MOV      r2,sp
        0x000113a8:    2114        .!      MOVS     r1,#0x14
        0x000113aa:    4640        @F      MOV      r0,r8
        0x000113ac:    f002fbde    ....    BL       HAL_DMA_Request_Channel ; 0x13b6c
        0x000113b0:    2800        .(      CMP      r0,#0
        0x000113b2:    bf1c        ..      ITT      NE
        0x000113b4:    b005        ..      ADDNE    sp,sp,#0x14
        0x000113b6:    e8bd8ff0    ....    POPNE    {r4-r11,pc}
        0x000113ba:    9501        ..      STR      r5,[sp,#4]
        0x000113bc:    f89d0000    ....    LDRB     r0,[sp,#0]
        0x000113c0:    f88d0004    ....    STRB     r0,[sp,#4]
        0x000113c4:    f89d0001    ....    LDRB     r0,[sp,#1]
        0x000113c8:    9502        ..      STR      r5,[sp,#8]
        0x000113ca:    f88d0005    ....    STRB     r0,[sp,#5]
        0x000113ce:    f88d5008    ...P    STRB     r5,[sp,#8]
        0x000113d2:    f88d5009    ...P    STRB     r5,[sp,#9]
        0x000113d6:    f88d7006    ...p    STRB     r7,[sp,#6]
        0x000113da:    f88d600a    ...`    STRB     r6,[sp,#0xa]
        0x000113de:    48cf        .H      LDR      r0,[pc,#828] ; [0x1171c] = 0x112b1
        0x000113e0:    f88d6007    ...`    STRB     r6,[sp,#7]
        0x000113e4:    f88d500b    ...P    STRB     r5,[sp,#0xb]
        0x000113e8:    9003        ..      STR      r0,[sp,#0xc]
        0x000113ea:    6a60        `j      LDR      r0,[r4,#0x24]
        0x000113ec:    f42050f8     ..P    BIC      r0,r0,#0x1f00
        0x000113f0:    6260        `b      STR      r0,[r4,#0x24]
        0x000113f2:    6a60        `j      LDR      r0,[r4,#0x24]
        0x000113f4:    f0400001    @...    ORR      r0,r0,#1
        0x000113f8:    6260        `b      STR      r0,[r4,#0x24]
        0x000113fa:    6a60        `j      LDR      r0,[r4,#0x24]
        0x000113fc:    f4203080     ..0    BIC      r0,r0,#0x10000
        0x00011400:    e06c        l.      B        0x114dc ; UART_DMAConfig + 480
        0x00011402:    f1b42f40    ..@/    CMP      r4,#0x40004000
        0x00011406:    d007        ..      BEQ      0x11418 ; UART_DMAConfig + 284
        0x00011408:    4284        .B      CMP      r4,r0
        0x0001140a:    d10b        ..      BNE      0x11424 ; UART_DMAConfig + 296
        0x0001140c:    466a        jF      MOV      r2,sp
        0x0001140e:    2109        .!      MOVS     r1,#9
        0x00011410:    4640        @F      MOV      r0,r8
        0x00011412:    f002fbab    ....    BL       HAL_DMA_Request_Channel ; 0x13b6c
        0x00011416:    e037        7.      B        0x11488 ; UART_DMAConfig + 396
        0x00011418:    466a        jF      MOV      r2,sp
        0x0001141a:    2107        .!      MOVS     r1,#7
        0x0001141c:    4640        @F      MOV      r0,r8
        0x0001141e:    f002fba5    ....    BL       HAL_DMA_Request_Channel ; 0x13b6c
        0x00011422:    e031        1.      B        0x11488 ; UART_DMAConfig + 396
        0x00011424:    4294        .B      CMP      r4,r2
        0x00011426:    d105        ..      BNE      0x11434 ; UART_DMAConfig + 312
        0x00011428:    466a        jF      MOV      r2,sp
        0x0001142a:    210b        .!      MOVS     r1,#0xb
        0x0001142c:    4640        @F      MOV      r0,r8
        0x0001142e:    f002fb9d    ....    BL       HAL_DMA_Request_Channel ; 0x13b6c
        0x00011432:    e029        ).      B        0x11488 ; UART_DMAConfig + 396
        0x00011434:    429c        .B      CMP      r4,r3
        0x00011436:    d105        ..      BNE      0x11444 ; UART_DMAConfig + 328
        0x00011438:    466a        jF      MOV      r2,sp
        0x0001143a:    210d        .!      MOVS     r1,#0xd
        0x0001143c:    4640        @F      MOV      r0,r8
        0x0001143e:    f002fb95    ....    BL       HAL_DMA_Request_Channel ; 0x13b6c
        0x00011442:    e021        !.      B        0x11488 ; UART_DMAConfig + 396
        0x00011444:    4564        dE      CMP      r4,r12
        0x00011446:    d105        ..      BNE      0x11454 ; UART_DMAConfig + 344
        0x00011448:    466a        jF      MOV      r2,sp
        0x0001144a:    210f        .!      MOVS     r1,#0xf
        0x0001144c:    4640        @F      MOV      r0,r8
        0x0001144e:    f002fb8d    ....    BL       HAL_DMA_Request_Channel ; 0x13b6c
        0x00011452:    e019        ..      B        0x11488 ; UART_DMAConfig + 396
        0x00011454:    4554        TE      CMP      r4,r10
        0x00011456:    d105        ..      BNE      0x11464 ; UART_DMAConfig + 360
        0x00011458:    466a        jF      MOV      r2,sp
        0x0001145a:    2111        .!      MOVS     r1,#0x11
        0x0001145c:    4640        @F      MOV      r0,r8
        0x0001145e:    f002fb85    ....    BL       HAL_DMA_Request_Channel ; 0x13b6c
        0x00011462:    e011        ..      B        0x11488 ; UART_DMAConfig + 396
        0x00011464:    455c        \E      CMP      r4,r11
        0x00011466:    d105        ..      BNE      0x11474 ; UART_DMAConfig + 376
        0x00011468:    466a        jF      MOV      r2,sp
        0x0001146a:    2113        .!      MOVS     r1,#0x13
        0x0001146c:    4640        @F      MOV      r0,r8
        0x0001146e:    f002fb7d    ..}.    BL       HAL_DMA_Request_Channel ; 0x13b6c
        0x00011472:    e009        ..      B        0x11488 ; UART_DMAConfig + 396
        0x00011474:    4574        tE      CMP      r4,lr
        0x00011476:    bf1c        ..      ITT      NE
        0x00011478:    b005        ..      ADDNE    sp,sp,#0x14
        0x0001147a:    e8bd8ff0    ....    POPNE    {r4-r11,pc}
        0x0001147e:    466a        jF      MOV      r2,sp
        0x00011480:    2115        .!      MOVS     r1,#0x15
        0x00011482:    4640        @F      MOV      r0,r8
        0x00011484:    f002fb72    ..r.    BL       HAL_DMA_Request_Channel ; 0x13b6c
        0x00011488:    2800        .(      CMP      r0,#0
        0x0001148a:    bf1c        ..      ITT      NE
        0x0001148c:    b005        ..      ADDNE    sp,sp,#0x14
        0x0001148e:    e8bd8ff0    ....    POPNE    {r4-r11,pc}
        0x00011492:    9501        ..      STR      r5,[sp,#4]
        0x00011494:    f89d0000    ....    LDRB     r0,[sp,#0]
        0x00011498:    f88d0004    ....    STRB     r0,[sp,#4]
        0x0001149c:    f89d0001    ....    LDRB     r0,[sp,#1]
        0x000114a0:    9502        ..      STR      r5,[sp,#8]
        0x000114a2:    f88d0005    ....    STRB     r0,[sp,#5]
        0x000114a6:    f88d5008    ...P    STRB     r5,[sp,#8]
        0x000114aa:    f88d5009    ...P    STRB     r5,[sp,#9]
        0x000114ae:    f88d6006    ...`    STRB     r6,[sp,#6]
        0x000114b2:    f88d600a    ...`    STRB     r6,[sp,#0xa]
        0x000114b6:    489a        .H      LDR      r0,[pc,#616] ; [0x11720] = 0x11243
        0x000114b8:    f88d7007    ...p    STRB     r7,[sp,#7]
        0x000114bc:    f88d500b    ...P    STRB     r5,[sp,#0xb]
        0x000114c0:    9003        ..      STR      r0,[sp,#0xc]
        0x000114c2:    6a60        `j      LDR      r0,[r4,#0x24]
        0x000114c4:    f02050f8     ..P    BIC      r0,r0,#0x1f000000
        0x000114c8:    f0406000    @..`    ORR      r0,r0,#0x8000000
        0x000114cc:    6260        `b      STR      r0,[r4,#0x24]
        0x000114ce:    6a60        `j      LDR      r0,[r4,#0x24]
        0x000114d0:    f4403080    @..0    ORR      r0,r0,#0x10000
        0x000114d4:    6260        `b      STR      r0,[r4,#0x24]
        0x000114d6:    6a60        `j      LDR      r0,[r4,#0x24]
        0x000114d8:    f0200001     ...    BIC      r0,r0,#1
        0x000114dc:    6260        `b      STR      r0,[r4,#0x24]
        0x000114de:    464a        JF      MOV      r2,r9
        0x000114e0:    a901        ..      ADD      r1,sp,#4
        0x000114e2:    4640        @F      MOV      r0,r8
        0x000114e4:    f002fb77    ..w.    BL       HAL_DMA_Init ; 0x13bd6
        0x000114e8:    b005        ..      ADD      sp,sp,#0x14
        0x000114ea:    e8bd8ff0    ....    POP      {r4-r11,pc}
    HAL_UART_Transmit
        0x000114ee:    e92d41f0    -..A    PUSH     {r4-r8,lr}
        0x000114f2:    461d        .F      MOV      r5,r3
        0x000114f4:    4617        .F      MOV      r7,r2
        0x000114f6:    4688        .F      MOV      r8,r1
        0x000114f8:    0004        ..      MOVS     r4,r0
        0x000114fa:    f04f0600    O...    MOV      r6,#0
        0x000114fe:    bf19        ..      ITTEE    NE
        0x00011500:    f1b80f00    ....    CMPNE    r8,#0
        0x00011504:    2f00        ./      CMPNE    r7,#0
        0x00011506:    2001        .       MOVEQ    r0,#1
        0x00011508:    e8bd81f0    ....    POPEQ    {r4-r8,pc}
        0x0001150c:    7a20         z      LDRB     r0,[r4,#8]
        0x0001150e:    f0100f02    ....    TST      r0,#2
        0x00011512:    bf1c        ..      ITT      NE
        0x00011514:    2002        .       MOVNE    r0,#2
        0x00011516:    e8bd81f0    ....    POPNE    {r4-r8,pc}
        0x0001151a:    4882        .H      LDR      r0,[pc,#520] ; [0x11724] = 0xc0019da0
        0x0001151c:    f7feff24    ..$.    BL       HAL_TryLock ; 0x10368
        0x00011520:    f8a4704a    ..Jp    STRH     r7,[r4,#0x4a]
        0x00011524:    2300        .#      MOVS     r3,#0
        0x00011526:    f8c48044    ..D.    STR      r8,[r4,#0x44]
        0x0001152a:    f8a4304c    ..L0    STRH     r3,[r4,#0x4c]
        0x0001152e:    f8a47048    ..Hp    STRH     r7,[r4,#0x48]
        0x00011532:    68a0        .h      LDR      r0,[r4,#8]
        0x00011534:    f0400002    @...    ORR      r0,r0,#2
        0x00011538:    60a0        .`      STR      r0,[r4,#8]
        0x0001153a:    7c60        `|      LDRB     r0,[r4,#0x11]
        0x0001153c:    b180        ..      CBZ      r0,0x11560 ; HAL_UART_Transmit + 114
        0x0001153e:    f104022c    ..,.    ADD      r2,r4,#0x2c
        0x00011542:    2100        .!      MOVS     r1,#0
        0x00011544:    6820         h      LDR      r0,[r4,#0]
        0x00011546:    f7fffed9    ....    BL       UART_DMAConfig ; 0x112fc
        0x0001154a:    2001        .       MOVS     r0,#1
        0x0001154c:    74e0        .t      STRB     r0,[r4,#0x13]
        0x0001154e:    f8b43048    ..H0    LDRH     r3,[r4,#0x48]
        0x00011552:    f104002c    ..,.    ADD      r0,r4,#0x2c
        0x00011556:    6822        "h      LDR      r2,[r4,#0]
        0x00011558:    6c61        al      LDR      r1,[r4,#0x44]
        0x0001155a:    f002fcb5    ....    BL       HAL_DMA_Start ; 0x13ec8
        0x0001155e:    e030        0.      B        0x115c2 ; HAL_UART_Transmit + 212
        0x00011560:    f8b40048    ..H.    LDRH     r0,[r4,#0x48]
        0x00011564:    b1d0        ..      CBZ      r0,0x1159c ; HAL_UART_Transmit + 174
        0x00011566:    89a0        ..      LDRH     r0,[r4,#0xc]
        0x00011568:    2801        .(      CMP      r0,#1
        0x0001156a:    6820         h      LDR      r0,[r4,#0]
        0x0001156c:    d02f        /.      BEQ      0x115ce ; HAL_UART_Transmit + 224
        0x0001156e:    6940        @i      LDR      r0,[r0,#0x14]
        0x00011570:    f0100f40    ..@.    TST      r0,#0x40
        0x00011574:    d012        ..      BEQ      0x1159c ; HAL_UART_Transmit + 174
        0x00011576:    bf00        ..      NOP      
        0x00011578:    f8b40048    ..H.    LDRH     r0,[r4,#0x48]
        0x0001157c:    1e40        @.      SUBS     r0,r0,#1
        0x0001157e:    f8a40048    ..H.    STRH     r0,[r4,#0x48]
        0x00011582:    f8b4004c    ..L.    LDRH     r0,[r4,#0x4c]
        0x00011586:    6c67        gl      LDR      r7,[r4,#0x44]
        0x00011588:    1c42        B.      ADDS     r2,r0,#1
        0x0001158a:    6821        !h      LDR      r1,[r4,#0]
        0x0001158c:    f8a4204c    ..L     STRH     r2,[r4,#0x4c]
        0x00011590:    5c38        8\      LDRB     r0,[r7,r0]
        0x00011592:    6008        .`      STR      r0,[r1,#0]
        0x00011594:    f8b40048    ..H.    LDRH     r0,[r4,#0x48]
        0x00011598:    2800        .(      CMP      r0,#0
        0x0001159a:    d1e4        ..      BNE      0x11566 ; HAL_UART_Transmit + 120
        0x0001159c:    f1150f02    ....    CMN      r5,#2
        0x000115a0:    d01b        ..      BEQ      0x115da ; HAL_UART_Transmit + 236
        0x000115a2:    b305        ..      CBZ      r5,0x115e6 ; HAL_UART_Transmit + 248
        0x000115a4:    f8b40048    ..H.    LDRH     r0,[r4,#0x48]
        0x000115a8:    2800        .(      CMP      r0,#0
        0x000115aa:    d1d9        ..      BNE      0x11560 ; HAL_UART_Transmit + 114
        0x000115ac:    f8b4004a    ..J.    LDRH     r0,[r4,#0x4a]
        0x000115b0:    f8b4104c    ..L.    LDRH     r1,[r4,#0x4c]
        0x000115b4:    4288        .B      CMP      r0,r1
        0x000115b6:    d104        ..      BNE      0x115c2 ; HAL_UART_Transmit + 212
        0x000115b8:    68a0        .h      LDR      r0,[r4,#8]
        0x000115ba:    2600        .&      MOVS     r6,#0
        0x000115bc:    f0200002     ...    BIC      r0,r0,#2
        0x000115c0:    60a0        .`      STR      r0,[r4,#8]
        0x000115c2:    4858        XH      LDR      r0,[pc,#352] ; [0x11724] = 0xc0019da0
        0x000115c4:    f7fefedf    ....    BL       HAL_UnLock ; 0x10386
        0x000115c8:    4630        0F      MOV      r0,r6
        0x000115ca:    e8bd81f0    ....    POP      {r4-r8,pc}
        0x000115ce:    6980        .i      LDR      r0,[r0,#0x18]
        0x000115d0:    f3c02004    ...     UBFX     r0,r0,#8,#5
        0x000115d4:    2810        .(      CMP      r0,#0x10
        0x000115d6:    d2e1        ..      BCS      0x1159c ; HAL_UART_Transmit + 174
        0x000115d8:    e7ce        ..      B        0x11578 ; HAL_UART_Transmit + 138
        0x000115da:    f8b40048    ..H.    LDRH     r0,[r4,#0x48]
        0x000115de:    2605        .&      MOVS     r6,#5
        0x000115e0:    2800        .(      CMP      r0,#0
        0x000115e2:    d1ee        ..      BNE      0x115c2 ; HAL_UART_Transmit + 212
        0x000115e4:    e7e2        ..      B        0x115ac ; HAL_UART_Transmit + 190
        0x000115e6:    f8b4004c    ..L.    LDRH     r0,[r4,#0x4c]
        0x000115ea:    f8a4004a    ..J.    STRH     r0,[r4,#0x4a]
        0x000115ee:    f8a43048    ..H0    STRH     r3,[r4,#0x48]
        0x000115f2:    e7db        ..      B        0x115ac ; HAL_UART_Transmit + 190
    HAL_UART_Receive
        0x000115f4:    e92d47f0    -..G    PUSH     {r4-r10,lr}
        0x000115f8:    461d        .F      MOV      r5,r3
        0x000115fa:    9f08        ..      LDR      r7,[sp,#0x20]
        0x000115fc:    4690        .F      MOV      r8,r2
        0x000115fe:    4689        .F      MOV      r9,r1
        0x00011600:    0004        ..      MOVS     r4,r0
        0x00011602:    f04f0600    O...    MOV      r6,#0
        0x00011606:    bf19        ..      ITTEE    NE
        0x00011608:    f1b90f00    ....    CMPNE    r9,#0
        0x0001160c:    f1b80f00    ....    CMPNE    r8,#0
        0x00011610:    2001        .       MOVEQ    r0,#1
        0x00011612:    e8bd87f0    ....    POPEQ    {r4-r10,pc}
        0x00011616:    7a20         z      LDRB     r0,[r4,#8]
        0x00011618:    f0100f01    ....    TST      r0,#1
        0x0001161c:    bf1c        ..      ITT      NE
        0x0001161e:    2002        .       MOVNE    r0,#2
        0x00011620:    e8bd87f0    ....    POPNE    {r4-r10,pc}
        0x00011624:    483f        ?H      LDR      r0,[pc,#252] ; [0x11724] = 0xc0019da0
        0x00011626:    f7fefe9f    ....    BL       HAL_TryLock ; 0x10368
        0x0001162a:    f8a48054    ..T.    STRH     r8,[r4,#0x54]
        0x0001162e:    2300        .#      MOVS     r3,#0
        0x00011630:    f8c49050    ..P.    STR      r9,[r4,#0x50]
        0x00011634:    f8a43056    ..V0    STRH     r3,[r4,#0x56]
        0x00011638:    f8a48058    ..X.    STRH     r8,[r4,#0x58]
        0x0001163c:    68a0        .h      LDR      r0,[r4,#8]
        0x0001163e:    2d00        .-      CMP      r5,#0
        0x00011640:    f0400001    @...    ORR      r0,r0,#1
        0x00011644:    60a0        .`      STR      r0,[r4,#8]
        0x00011646:    bf1c        ..      ITT      NE
        0x00011648:    4836        6H      LDRNE    r0,[pc,#216] ; [0x11724] = 0xc0019da0
        0x0001164a:    6045        E`      STRNE    r5,[r0,#4]
        0x0001164c:    7c20         |      LDRB     r0,[r4,#0x10]
        0x0001164e:    b1a8        ..      CBZ      r0,0x1167c ; HAL_UART_Receive + 136
        0x00011650:    f1040214    ....    ADD      r2,r4,#0x14
        0x00011654:    2101        .!      MOVS     r1,#1
        0x00011656:    6820         h      LDR      r0,[r4,#0]
        0x00011658:    f7fffe50    ..P.    BL       UART_DMAConfig ; 0x112fc
        0x0001165c:    2001        .       MOVS     r0,#1
        0x0001165e:    74a0        .t      STRB     r0,[r4,#0x12]
        0x00011660:    f8b43058    ..X0    LDRH     r3,[r4,#0x58]
        0x00011664:    f1040014    ....    ADD      r0,r4,#0x14
        0x00011668:    6d22        "m      LDR      r2,[r4,#0x50]
        0x0001166a:    6821        !h      LDR      r1,[r4,#0]
        0x0001166c:    f002fc2c    ..,.    BL       HAL_DMA_Start ; 0x13ec8
        0x00011670:    482c        ,H      LDR      r0,[pc,#176] ; [0x11724] = 0xc0019da0
        0x00011672:    f7fefe88    ....    BL       HAL_UnLock ; 0x10386
        0x00011676:    4630        0F      MOV      r0,r6
        0x00011678:    e8bd87f0    ....    POP      {r4-r10,pc}
        0x0001167c:    f8b40058    ..X.    LDRH     r0,[r4,#0x58]
        0x00011680:    b1e0        ..      CBZ      r0,0x116bc ; HAL_UART_Receive + 200
        0x00011682:    89a0        ..      LDRH     r0,[r4,#0xc]
        0x00011684:    2801        .(      CMP      r0,#1
        0x00011686:    6820         h      LDR      r0,[r4,#0]
        0x00011688:    d04e        N.      BEQ      0x11728 ; HAL_UART_Receive + 308
        0x0001168a:    6940        @i      LDR      r0,[r0,#0x14]
        0x0001168c:    f0100f20    .. .    TST      r0,#0x20
        0x00011690:    d014        ..      BEQ      0x116bc ; HAL_UART_Receive + 200
        0x00011692:    bf00        ..      NOP      
        0x00011694:    f8b40058    ..X.    LDRH     r0,[r4,#0x58]
        0x00011698:    1e40        @.      SUBS     r0,r0,#1
        0x0001169a:    f8a40058    ..X.    STRH     r0,[r4,#0x58]
        0x0001169e:    6820         h      LDR      r0,[r4,#0]
        0x000116a0:    6800        .h      LDR      r0,[r0,#0]
        0x000116a2:    f8b41056    ..V.    LDRH     r1,[r4,#0x56]
        0x000116a6:    f8d48050    ..P.    LDR      r8,[r4,#0x50]
        0x000116aa:    1c4a        J.      ADDS     r2,r1,#1
        0x000116ac:    f8a42056    ..V     STRH     r2,[r4,#0x56]
        0x000116b0:    f8080001    ....    STRB     r0,[r8,r1]
        0x000116b4:    f8b40058    ..X.    LDRH     r0,[r4,#0x58]
        0x000116b8:    2800        .(      CMP      r0,#0
        0x000116ba:    d1e2        ..      BNE      0x11682 ; HAL_UART_Receive + 142
        0x000116bc:    f1170f02    ....    CMN      r7,#2
        0x000116c0:    d037        7.      BEQ      0x11732 ; HAL_UART_Receive + 318
        0x000116c2:    b1d7        ..      CBZ      r7,0x116fa ; HAL_UART_Receive + 262
        0x000116c4:    f8b40058    ..X.    LDRH     r0,[r4,#0x58]
        0x000116c8:    2800        .(      CMP      r0,#0
        0x000116ca:    d1d7        ..      BNE      0x1167c ; HAL_UART_Receive + 136
        0x000116cc:    f8b40054    ..T.    LDRH     r0,[r4,#0x54]
        0x000116d0:    f8b41056    ..V.    LDRH     r1,[r4,#0x56]
        0x000116d4:    4288        .B      CMP      r0,r1
        0x000116d6:    d104        ..      BNE      0x116e2 ; HAL_UART_Receive + 238
        0x000116d8:    68a0        .h      LDR      r0,[r4,#8]
        0x000116da:    2600        .&      MOVS     r6,#0
        0x000116dc:    f0200001     ...    BIC      r0,r0,#1
        0x000116e0:    60a0        .`      STR      r0,[r4,#8]
        0x000116e2:    2d00        .-      CMP      r5,#0
        0x000116e4:    bf1c        ..      ITT      NE
        0x000116e6:    f8b40056    ..V.    LDRHNE   r0,[r4,#0x56]
        0x000116ea:    8028        (.      STRHNE   r0,[r5,#0]
        0x000116ec:    6820         h      LDR      r0,[r4,#0]
        0x000116ee:    6940        @i      LDR      r0,[r0,#0x14]
        0x000116f0:    f0100f17    ....    TST      r0,#0x17
        0x000116f4:    bf18        ..      IT       NE
        0x000116f6:    2601        .&      MOVNE    r6,#1
        0x000116f8:    e7ba        ..      B        0x11670 ; HAL_UART_Receive + 124
        0x000116fa:    e020         .      B        0x1173e ; HAL_UART_Receive + 330
    $d
        0x000116fc:    40005000    .P.@    DCD    1073762304
        0x00011700:    40006000    .`.@    DCD    1073766400
        0x00011704:    4003d000    ...@    DCD    1073991680
        0x00011708:    40041000    ...@    DCD    1074008064
        0x0001170c:    40042000    . .@    DCD    1074012160
        0x00011710:    40043000    .0.@    DCD    1074016256
        0x00011714:    40044000    .@.@    DCD    1074020352
        0x00011718:    40020000    ...@    DCD    1073872896
        0x0001171c:    000112b1    ....    DCD    70321
        0x00011720:    00011243    C...    DCD    70211
        0x00011724:    c0019da0    ....    DCD    3221331360
    $t
        0x00011728:    6980        .i      LDR      r0,[r0,#0x18]
        0x0001172a:    f0105ff8    ..._    TST      r0,#0x1f000000
        0x0001172e:    d1b1        ..      BNE      0x11694 ; HAL_UART_Receive + 160
        0x00011730:    e7c4        ..      B        0x116bc ; HAL_UART_Receive + 200
        0x00011732:    f8b40058    ..X.    LDRH     r0,[r4,#0x58]
        0x00011736:    2605        .&      MOVS     r6,#5
        0x00011738:    2800        .(      CMP      r0,#0
        0x0001173a:    d1d2        ..      BNE      0x116e2 ; HAL_UART_Receive + 238
        0x0001173c:    e7c6        ..      B        0x116cc ; HAL_UART_Receive + 216
        0x0001173e:    f8b40056    ..V.    LDRH     r0,[r4,#0x56]
        0x00011742:    f8a40054    ..T.    STRH     r0,[r4,#0x54]
        0x00011746:    f8a43058    ..X0    STRH     r3,[r4,#0x58]
        0x0001174a:    e7bf        ..      B        0x116cc ; HAL_UART_Receive + 216
    HAL_UART_GetTransferStatus
        0x0001174c:    b570        p.      PUSH     {r4-r6,lr}
        0x0001174e:    4606        .F      MOV      r6,r0
        0x00011750:    6805        .h      LDR      r5,[r0,#0]
        0x00011752:    460c        .F      MOV      r4,r1
        0x00011754:    48fe        .H      LDR      r0,[pc,#1016] ; [0x11b50] = 0xc0019da0
        0x00011756:    f7fefe07    ....    BL       HAL_TryLock ; 0x10368
        0x0001175a:    2000        .       MOVS     r0,#0
        0x0001175c:    6060        ``      STR      r0,[r4,#4]
        0x0001175e:    6968        hi      LDR      r0,[r5,#0x14]
        0x00011760:    f0100f01    ....    TST      r0,#1
        0x00011764:    bf1c        ..      ITT      NE
        0x00011766:    2004        .       MOVNE    r0,#4
        0x00011768:    6060        ``      STRNE    r0,[r4,#4]
        0x0001176a:    6968        hi      LDR      r0,[r5,#0x14]
        0x0001176c:    f0100f02    ....    TST      r0,#2
        0x00011770:    d003        ..      BEQ      0x1177a ; HAL_UART_GetTransferStatus + 46
        0x00011772:    6860        `h      LDR      r0,[r4,#4]
        0x00011774:    f0400002    @...    ORR      r0,r0,#2
        0x00011778:    6060        ``      STR      r0,[r4,#4]
        0x0001177a:    6968        hi      LDR      r0,[r5,#0x14]
        0x0001177c:    f0100f04    ....    TST      r0,#4
        0x00011780:    d003        ..      BEQ      0x1178a ; HAL_UART_GetTransferStatus + 62
        0x00011782:    6860        `h      LDR      r0,[r4,#4]
        0x00011784:    f0400001    @...    ORR      r0,r0,#1
        0x00011788:    6060        ``      STR      r0,[r4,#4]
        0x0001178a:    6968        hi      LDR      r0,[r5,#0x14]
        0x0001178c:    f0100f08    ....    TST      r0,#8
        0x00011790:    d003        ..      BEQ      0x1179a ; HAL_UART_GetTransferStatus + 78
        0x00011792:    6860        `h      LDR      r0,[r4,#4]
        0x00011794:    f0400008    @...    ORR      r0,r0,#8
        0x00011798:    6060        ``      STR      r0,[r4,#4]
        0x0001179a:    6968        hi      LDR      r0,[r5,#0x14]
        0x0001179c:    f0100f10    ....    TST      r0,#0x10
        0x000117a0:    d003        ..      BEQ      0x117aa ; HAL_UART_GetTransferStatus + 94
        0x000117a2:    6860        `h      LDR      r0,[r4,#4]
        0x000117a4:    f0400020    @. .    ORR      r0,r0,#0x20
        0x000117a8:    6060        ``      STR      r0,[r4,#4]
        0x000117aa:    6968        hi      LDR      r0,[r5,#0x14]
        0x000117ac:    f0100f80    ....    TST      r0,#0x80
        0x000117b0:    d003        ..      BEQ      0x117ba ; HAL_UART_GetTransferStatus + 110
        0x000117b2:    6860        `h      LDR      r0,[r4,#4]
        0x000117b4:    f0400010    @...    ORR      r0,r0,#0x10
        0x000117b8:    6060        ``      STR      r0,[r4,#4]
        0x000117ba:    7c30        0|      LDRB     r0,[r6,#0x10]
        0x000117bc:    b918        ..      CBNZ     r0,0x117c6 ; HAL_UART_GetTransferStatus + 122
        0x000117be:    69a8        .i      LDR      r0,[r5,#0x18]
        0x000117c0:    f3c06004    ...`    UBFX     r0,r0,#24,#5
        0x000117c4:    8020         .      STRH     r0,[r4,#0]
        0x000117c6:    7c70        p|      LDRB     r0,[r6,#0x11]
        0x000117c8:    b918        ..      CBNZ     r0,0x117d2 ; HAL_UART_GetTransferStatus + 134
        0x000117ca:    69a8        .i      LDR      r0,[r5,#0x18]
        0x000117cc:    f3c02004    ...     UBFX     r0,r0,#8,#5
        0x000117d0:    8060        `.      STRH     r0,[r4,#2]
        0x000117d2:    e8bd4070    ..p@    POP      {r4-r6,lr}
        0x000117d6:    48de        .H      LDR      r0,[pc,#888] ; [0x11b50] = 0xc0019da0
        0x000117d8:    f7febdd5    ....    B        HAL_UnLock ; 0x10386
    HAL_UART_IRQHandler
        0x000117dc:    2808        .(      CMP      r0,#8
        0x000117de:    bf28        (.      IT       CS
        0x000117e0:    4770        pG      BXCS     lr
        0x000117e2:    e92d41f0    -..A    PUSH     {r4-r8,lr}
        0x000117e6:    49db        .I      LDR      r1,[pc,#876] ; [0x11b54] = 0xc001af68
        0x000117e8:    f8514020    Q. @    LDR      r4,[r1,r0,LSL #2]
        0x000117ec:    6825        %h      LDR      r5,[r4,#0]
        0x000117ee:    6de6        .m      LDR      r6,[r4,#0x5c]
        0x000117f0:    69e8        .i      LDR      r0,[r5,#0x1c]
        0x000117f2:    f0100f0f    ....    TST      r0,#0xf
        0x000117f6:    bf1c        ..      ITT      NE
        0x000117f8:    6a28        (j      LDRNE    r0,[r5,#0x20]
        0x000117fa:    f0100f0f    ....    TSTNE    r0,#0xf
        0x000117fe:    d00d        ..      BEQ      0x1181c ; HAL_UART_IRQHandler + 64
        0x00011800:    6a28        (j      LDR      r0,[r5,#0x20]
        0x00011802:    f040000f    @...    ORR      r0,r0,#0xf
        0x00011806:    6228        (b      STR      r0,[r5,#0x20]
        0x00011808:    6968        hi      LDR      r0,[r5,#0x14]
        0x0001180a:    f0100f17    ....    TST      r0,#0x17
        0x0001180e:    bf18        ..      IT       NE
        0x00011810:    2e00        ..      CMPNE    r6,#0
        0x00011812:    d003        ..      BEQ      0x1181c ; HAL_UART_IRQHandler + 64
        0x00011814:    2200        ."      MOVS     r2,#0
        0x00011816:    2104        .!      MOVS     r1,#4
        0x00011818:    4620         F      MOV      r0,r4
        0x0001181a:    47b0        .G      BLX      r6
        0x0001181c:    6a28        (j      LDR      r0,[r5,#0x20]
        0x0001181e:    f0100f10    ....    TST      r0,#0x10
        0x00011822:    d005        ..      BEQ      0x11830 ; HAL_UART_IRQHandler + 84
        0x00011824:    2301        .#      MOVS     r3,#1
        0x00011826:    4632        2F      MOV      r2,r6
        0x00011828:    4621        !F      MOV      r1,r4
        0x0001182a:    4628        (F      MOV      r0,r5
        0x0001182c:    f000f957    ..W.    BL       UART_RxInterruptHandler ; 0x11ade
        0x00011830:    89a0        ..      LDRH     r0,[r4,#0xc]
        0x00011832:    b9d0        ..      CBNZ     r0,0x1186a ; HAL_UART_IRQHandler + 142
        0x00011834:    6a28        (j      LDR      r0,[r5,#0x20]
        0x00011836:    f0100f20    .. .    TST      r0,#0x20
        0x0001183a:    d016        ..      BEQ      0x1186a ; HAL_UART_IRQHandler + 142
        0x0001183c:    f8b40054    ..T.    LDRH     r0,[r4,#0x54]
        0x00011840:    f8b41056    ..V.    LDRH     r1,[r4,#0x56]
        0x00011844:    4288        .B      CMP      r0,r1
        0x00011846:    d006        ..      BEQ      0x11856 ; HAL_UART_IRQHandler + 122
        0x00011848:    2300        .#      MOVS     r3,#0
        0x0001184a:    4632        2F      MOV      r2,r6
        0x0001184c:    4621        !F      MOV      r1,r4
        0x0001184e:    4628        (F      MOV      r0,r5
        0x00011850:    f000f945    ..E.    BL       UART_RxInterruptHandler ; 0x11ade
        0x00011854:    e009        ..      B        0x1186a ; HAL_UART_IRQHandler + 142
        0x00011856:    6968        hi      LDR      r0,[r5,#0x14]
        0x00011858:    f0100f20    .. .    TST      r0,#0x20
        0x0001185c:    d005        ..      BEQ      0x1186a ; HAL_UART_IRQHandler + 142
        0x0001185e:    6828        (h      LDR      r0,[r5,#0]
        0x00011860:    b2c2        ..      UXTB     r2,r0
        0x00011862:    b116        ..      CBZ      r6,0x1186a ; HAL_UART_IRQHandler + 142
        0x00011864:    2102        .!      MOVS     r1,#2
        0x00011866:    4620         F      MOV      r0,r4
        0x00011868:    47b0        .G      BLX      r6
        0x0001186a:    69e8        .i      LDR      r0,[r5,#0x1c]
        0x0001186c:    f0100f40    ..@.    TST      r0,#0x40
        0x00011870:    bf1c        ..      ITT      NE
        0x00011872:    6a28        (j      LDRNE    r0,[r5,#0x20]
        0x00011874:    f0100f80    ....    TSTNE    r0,#0x80
        0x00011878:    d04d        M.      BEQ      0x11916 ; HAL_UART_IRQHandler + 314
        0x0001187a:    6a28        (j      LDR      r0,[r5,#0x20]
        0x0001187c:    f0400080    @...    ORR      r0,r0,#0x80
        0x00011880:    6228        (b      STR      r0,[r5,#0x20]
        0x00011882:    f8b4004a    ..J.    LDRH     r0,[r4,#0x4a]
        0x00011886:    f8b4104c    ..L.    LDRH     r1,[r4,#0x4c]
        0x0001188a:    4288        .B      CMP      r0,r1
        0x0001188c:    d03e        >.      BEQ      0x1190c ; HAL_UART_IRQHandler + 304
        0x0001188e:    7c61        a|      LDRB     r1,[r4,#0x11]
        0x00011890:    4620         F      MOV      r0,r4
        0x00011892:    bbd1        ..      CBNZ     r1,0x1190a ; HAL_UART_IRQHandler + 302
        0x00011894:    6881        .h      LDR      r1,[r0,#8]
        0x00011896:    f0410102    A...    ORR      r1,r1,#2
        0x0001189a:    6081        .`      STR      r1,[r0,#8]
        0x0001189c:    f8b01048    ..H.    LDRH     r1,[r0,#0x48]
        0x000118a0:    b321        !.      CBZ      r1,0x118ec ; HAL_UART_IRQHandler + 272
        0x000118a2:    8981        ..      LDRH     r1,[r0,#0xc]
        0x000118a4:    2901        .)      CMP      r1,#1
        0x000118a6:    6801        .h      LDR      r1,[r0,#0]
        0x000118a8:    d01a        ..      BEQ      0x118e0 ; HAL_UART_IRQHandler + 260
        0x000118aa:    6949        Ii      LDR      r1,[r1,#0x14]
        0x000118ac:    f0110f40    ..@.    TST      r1,#0x40
        0x000118b0:    d012        ..      BEQ      0x118d8 ; HAL_UART_IRQHandler + 252
        0x000118b2:    bf00        ..      NOP      
        0x000118b4:    f8b01048    ..H.    LDRH     r1,[r0,#0x48]
        0x000118b8:    1e4a        J.      SUBS     r2,r1,#1
        0x000118ba:    f8a02048    ..H     STRH     r2,[r0,#0x48]
        0x000118be:    f8b0104c    ..L.    LDRH     r1,[r0,#0x4c]
        0x000118c2:    6c47        Gl      LDR      r7,[r0,#0x44]
        0x000118c4:    1c4b        K.      ADDS     r3,r1,#1
        0x000118c6:    6802        .h      LDR      r2,[r0,#0]
        0x000118c8:    f8a0304c    ..L0    STRH     r3,[r0,#0x4c]
        0x000118cc:    5c79        y\      LDRB     r1,[r7,r1]
        0x000118ce:    6011        .`      STR      r1,[r2,#0]
        0x000118d0:    f8b01048    ..H.    LDRH     r1,[r0,#0x48]
        0x000118d4:    2900        .)      CMP      r1,#0
        0x000118d6:    d1e4        ..      BNE      0x118a2 ; HAL_UART_IRQHandler + 198
        0x000118d8:    f8b01048    ..H.    LDRH     r1,[r0,#0x48]
        0x000118dc:    b9a9        ..      CBNZ     r1,0x1190a ; HAL_UART_IRQHandler + 302
        0x000118de:    e005        ..      B        0x118ec ; HAL_UART_IRQHandler + 272
        0x000118e0:    6989        .i      LDR      r1,[r1,#0x18]
        0x000118e2:    f3c12104    ...!    UBFX     r1,r1,#8,#5
        0x000118e6:    2910        .)      CMP      r1,#0x10
        0x000118e8:    d2f6        ..      BCS      0x118d8 ; HAL_UART_IRQHandler + 252
        0x000118ea:    e7e3        ..      B        0x118b4 ; HAL_UART_IRQHandler + 216
        0x000118ec:    f8b0104a    ..J.    LDRH     r1,[r0,#0x4a]
        0x000118f0:    f8b0204c    ..L     LDRH     r2,[r0,#0x4c]
        0x000118f4:    4291        .B      CMP      r1,r2
        0x000118f6:    d10e        ..      BNE      0x11916 ; HAL_UART_IRQHandler + 314
        0x000118f8:    6881        .h      LDR      r1,[r0,#8]
        0x000118fa:    f0210102    !...    BIC      r1,r1,#2
        0x000118fe:    6081        .`      STR      r1,[r0,#8]
        0x00011900:    b11e        ..      CBZ      r6,0x1190a ; HAL_UART_IRQHandler + 302
        0x00011902:    2200        ."      MOVS     r2,#0
        0x00011904:    2108        .!      MOVS     r1,#8
        0x00011906:    4633        3F      MOV      r3,r6
        0x00011908:    4798        .G      BLX      r3
        0x0001190a:    e004        ..      B        0x11916 ; HAL_UART_IRQHandler + 314
        0x0001190c:    b11e        ..      CBZ      r6,0x11916 ; HAL_UART_IRQHandler + 314
        0x0001190e:    2200        ."      MOVS     r2,#0
        0x00011910:    2101        .!      MOVS     r1,#1
        0x00011912:    4620         F      MOV      r0,r4
        0x00011914:    47b0        .G      BLX      r6
        0x00011916:    6a28        (j      LDR      r0,[r5,#0x20]
        0x00011918:    f3c04040    ..@@    UBFX     r0,r0,#17,#1
        0x0001191c:    b148        H.      CBZ      r0,0x11932 ; HAL_UART_IRQHandler + 342
        0x0001191e:    6a28        (j      LDR      r0,[r5,#0x20]
        0x00011920:    f4403000    @..0    ORR      r0,r0,#0x20000
        0x00011924:    6228        (b      STR      r0,[r5,#0x20]
        0x00011926:    2300        .#      MOVS     r3,#0
        0x00011928:    4632        2F      MOV      r2,r6
        0x0001192a:    4621        !F      MOV      r1,r4
        0x0001192c:    4628        (F      MOV      r0,r5
        0x0001192e:    f000f8d6    ....    BL       UART_RxInterruptHandler ; 0x11ade
        0x00011932:    6a28        (j      LDR      r0,[r5,#0x20]
        0x00011934:    f3c04000    ...@    UBFX     r0,r0,#16,#1
        0x00011938:    2800        .(      CMP      r0,#0
        0x0001193a:    bf08        ..      IT       EQ
        0x0001193c:    e8bd81f0    ....    POPEQ    {r4-r8,pc}
        0x00011940:    6a28        (j      LDR      r0,[r5,#0x20]
        0x00011942:    f4403080    @..0    ORR      r0,r0,#0x10000
        0x00011946:    6228        (b      STR      r0,[r5,#0x20]
        0x00011948:    7c61        a|      LDRB     r1,[r4,#0x11]
        0x0001194a:    4620         F      MOV      r0,r4
        0x0001194c:    2900        .)      CMP      r1,#0
        0x0001194e:    bf18        ..      IT       NE
        0x00011950:    e8bd81f0    ....    POPNE    {r4-r8,pc}
        0x00011954:    f8b0104a    ..J.    LDRH     r1,[r0,#0x4a]
        0x00011958:    f8b0204c    ..L     LDRH     r2,[r0,#0x4c]
        0x0001195c:    4291        .B      CMP      r1,r2
        0x0001195e:    d10b        ..      BNE      0x11978 ; HAL_UART_IRQHandler + 412
        0x00011960:    2e00        ..      CMP      r6,#0
        0x00011962:    bf08        ..      IT       EQ
        0x00011964:    e8bd81f0    ....    POPEQ    {r4-r8,pc}
        0x00011968:    69a9        .i      LDR      r1,[r5,#0x18]
        0x0001196a:    46b4        .F      MOV      r12,r6
        0x0001196c:    e8bd41f0    ...A    POP      {r4-r8,lr}
        0x00011970:    f3c12204    ..."    UBFX     r2,r1,#8,#5
        0x00011974:    2140        @!      MOVS     r1,#0x40
        0x00011976:    4760        `G      BX       r12
        0x00011978:    6881        .h      LDR      r1,[r0,#8]
        0x0001197a:    f0410102    A...    ORR      r1,r1,#2
        0x0001197e:    6081        .`      STR      r1,[r0,#8]
        0x00011980:    f8b01048    ..H.    LDRH     r1,[r0,#0x48]
        0x00011984:    b301        ..      CBZ      r1,0x119c8 ; HAL_UART_IRQHandler + 492
        0x00011986:    8981        ..      LDRH     r1,[r0,#0xc]
        0x00011988:    2901        .)      CMP      r1,#1
        0x0001198a:    6801        .h      LDR      r1,[r0,#0]
        0x0001198c:    d032        2.      BEQ      0x119f4 ; HAL_UART_IRQHandler + 536
        0x0001198e:    6949        Ii      LDR      r1,[r1,#0x14]
        0x00011990:    f0110f40    ..@.    TST      r1,#0x40
        0x00011994:    d012        ..      BEQ      0x119bc ; HAL_UART_IRQHandler + 480
        0x00011996:    bf00        ..      NOP      
        0x00011998:    f8b01048    ..H.    LDRH     r1,[r0,#0x48]
        0x0001199c:    1e49        I.      SUBS     r1,r1,#1
        0x0001199e:    f8a01048    ..H.    STRH     r1,[r0,#0x48]
        0x000119a2:    f8b0204c    ..L     LDRH     r2,[r0,#0x4c]
        0x000119a6:    6c44        Dl      LDR      r4,[r0,#0x44]
        0x000119a8:    1c53        S.      ADDS     r3,r2,#1
        0x000119aa:    6801        .h      LDR      r1,[r0,#0]
        0x000119ac:    f8a0304c    ..L0    STRH     r3,[r0,#0x4c]
        0x000119b0:    5ca2        .\      LDRB     r2,[r4,r2]
        0x000119b2:    600a        .`      STR      r2,[r1,#0]
        0x000119b4:    f8b01048    ..H.    LDRH     r1,[r0,#0x48]
        0x000119b8:    2900        .)      CMP      r1,#0
        0x000119ba:    d1e4        ..      BNE      0x11986 ; HAL_UART_IRQHandler + 426
        0x000119bc:    f8b01048    ..H.    LDRH     r1,[r0,#0x48]
        0x000119c0:    2900        .)      CMP      r1,#0
        0x000119c2:    bf18        ..      IT       NE
        0x000119c4:    e8bd81f0    ....    POPNE    {r4-r8,pc}
        0x000119c8:    f8b0104a    ..J.    LDRH     r1,[r0,#0x4a]
        0x000119cc:    f8b0204c    ..L     LDRH     r2,[r0,#0x4c]
        0x000119d0:    4291        .B      CMP      r1,r2
        0x000119d2:    bf18        ..      IT       NE
        0x000119d4:    e8bd81f0    ....    POPNE    {r4-r8,pc}
        0x000119d8:    6881        .h      LDR      r1,[r0,#8]
        0x000119da:    2e00        ..      CMP      r6,#0
        0x000119dc:    f0210102    !...    BIC      r1,r1,#2
        0x000119e0:    6081        .`      STR      r1,[r0,#8]
        0x000119e2:    bf08        ..      IT       EQ
        0x000119e4:    e8bd81f0    ....    POPEQ    {r4-r8,pc}
        0x000119e8:    2200        ."      MOVS     r2,#0
        0x000119ea:    46b4        .F      MOV      r12,r6
        0x000119ec:    e8bd41f0    ...A    POP      {r4-r8,lr}
        0x000119f0:    2108        .!      MOVS     r1,#8
        0x000119f2:    4760        `G      BX       r12
        0x000119f4:    6989        .i      LDR      r1,[r1,#0x18]
        0x000119f6:    f3c12104    ...!    UBFX     r1,r1,#8,#5
        0x000119fa:    2910        .)      CMP      r1,#0x10
        0x000119fc:    d2de        ..      BCS      0x119bc ; HAL_UART_IRQHandler + 480
        0x000119fe:    e7cb        ..      B        0x11998 ; HAL_UART_IRQHandler + 444
    HAL_UART_Tx_Complete
        0x00011a00:    6a00        .j      LDR      r0,[r0,#0x20]
        0x00011a02:    f3c010c0    ....    UBFX     r0,r0,#7,#1
        0x00011a06:    4770        pG      BX       lr
    HAL_UART_TxInt_Enabled
        0x00011a08:    69c0        .i      LDR      r0,[r0,#0x1c]
        0x00011a0a:    f3c01080    ....    UBFX     r0,r0,#6,#1
        0x00011a0e:    4770        pG      BX       lr
    HAL_UART_TxInt_Ready
        0x00011a10:    6a00        .j      LDR      r0,[r0,#0x20]
        0x00011a12:    f3c010c0    ....    UBFX     r0,r0,#7,#1
        0x00011a16:    4770        pG      BX       lr
    HAL_UART_Clear_TxInt
        0x00011a18:    6a01        .j      LDR      r1,[r0,#0x20]
        0x00011a1a:    f0410180    A...    ORR      r1,r1,#0x80
        0x00011a1e:    6201        .b      STR      r1,[r0,#0x20]
        0x00011a20:    4770        pG      BX       lr
    HAL_UART_TxFifoInt_Ready
        0x00011a22:    6a00        .j      LDR      r0,[r0,#0x20]
        0x00011a24:    f3c04000    ...@    UBFX     r0,r0,#16,#1
        0x00011a28:    4770        pG      BX       lr
    HAL_UART_TxFifoInt_Enabled
        0x00011a2a:    69c0        .i      LDR      r0,[r0,#0x1c]
        0x00011a2c:    f3c04000    ...@    UBFX     r0,r0,#16,#1
        0x00011a30:    4770        pG      BX       lr
    HAL_UART_Clear_TxFifoInt
        0x00011a32:    6a01        .j      LDR      r1,[r0,#0x20]
        0x00011a34:    f4413180    A..1    ORR      r1,r1,#0x10000
        0x00011a38:    6201        .b      STR      r1,[r0,#0x20]
        0x00011a3a:    4770        pG      BX       lr
    HAL_UART_Get_TxFifo_DataSize
        0x00011a3c:    6980        .i      LDR      r0,[r0,#0x18]
        0x00011a3e:    f3c02004    ...     UBFX     r0,r0,#8,#5
        0x00011a42:    4770        pG      BX       lr
    HAL_UART_RxInt_Enabled
        0x00011a44:    69c0        .i      LDR      r0,[r0,#0x1c]
        0x00011a46:    f3c01040    ..@.    UBFX     r0,r0,#5,#1
        0x00011a4a:    4770        pG      BX       lr
    HAL_UART_RxInt_Ready
        0x00011a4c:    6a00        .j      LDR      r0,[r0,#0x20]
        0x00011a4e:    f3c01040    ..@.    UBFX     r0,r0,#5,#1
        0x00011a52:    4770        pG      BX       lr
    HAL_UART_DataReady
        0x00011a54:    6940        @i      LDR      r0,[r0,#0x14]
        0x00011a56:    f3c01040    ..@.    UBFX     r0,r0,#5,#1
        0x00011a5a:    4770        pG      BX       lr
    HAL_UART_RxFifoTmo_Ready
        0x00011a5c:    6a00        .j      LDR      r0,[r0,#0x20]
        0x00011a5e:    f3c01000    ....    UBFX     r0,r0,#4,#1
        0x00011a62:    4770        pG      BX       lr
    HAL_UART_RxFifoInt_Ready
        0x00011a64:    6a00        .j      LDR      r0,[r0,#0x20]
        0x00011a66:    f3c04040    ..@@    UBFX     r0,r0,#17,#1
        0x00011a6a:    4770        pG      BX       lr
    HAL_UART_Clear_RxFifoInt
        0x00011a6c:    6a01        .j      LDR      r1,[r0,#0x20]
        0x00011a6e:    f4413100    A..1    ORR      r1,r1,#0x20000
        0x00011a72:    6201        .b      STR      r1,[r0,#0x20]
        0x00011a74:    4770        pG      BX       lr
    HAL_UART_Get_RxFifo_DataSize
        0x00011a76:    6980        .i      LDR      r0,[r0,#0x18]
        0x00011a78:    f3c06004    ...`    UBFX     r0,r0,#24,#5
        0x00011a7c:    4770        pG      BX       lr
    HAL_UART_Enable_Error_Interrupts
        0x00011a7e:    69c1        .i      LDR      r1,[r0,#0x1c]
        0x00011a80:    f041010f    A...    ORR      r1,r1,#0xf
        0x00011a84:    61c1        .a      STR      r1,[r0,#0x1c]
        0x00011a86:    4770        pG      BX       lr
    HAL_UART_Disable_Error_Interrupts
        0x00011a88:    69c1        .i      LDR      r1,[r0,#0x1c]
        0x00011a8a:    f021010f    !...    BIC      r1,r1,#0xf
        0x00011a8e:    61c1        .a      STR      r1,[r0,#0x1c]
        0x00011a90:    4770        pG      BX       lr
    HAL_UART_Error_Enabled
        0x00011a92:    69c0        .i      LDR      r0,[r0,#0x1c]
        0x00011a94:    f010000f    ....    ANDS     r0,r0,#0xf
        0x00011a98:    bf18        ..      IT       NE
        0x00011a9a:    2001        .       MOVNE    r0,#1
        0x00011a9c:    4770        pG      BX       lr
    HAL_UART_Error_Ready
        0x00011a9e:    6a00        .j      LDR      r0,[r0,#0x20]
        0x00011aa0:    f010000f    ....    ANDS     r0,r0,#0xf
        0x00011aa4:    bf18        ..      IT       NE
        0x00011aa6:    2001        .       MOVNE    r0,#1
        0x00011aa8:    4770        pG      BX       lr
    HAL_UART_Clear_ErrInt
        0x00011aaa:    6a01        .j      LDR      r1,[r0,#0x20]
        0x00011aac:    f041010f    A...    ORR      r1,r1,#0xf
        0x00011ab0:    6201        .b      STR      r1,[r0,#0x20]
        0x00011ab2:    4770        pG      BX       lr
    HAL_UART_Fifo_Enabled
        0x00011ab4:    68c0        .h      LDR      r0,[r0,#0xc]
        0x00011ab6:    f0000001    ....    AND      r0,r0,#1
        0x00011aba:    4770        pG      BX       lr
    HAL_UART_PutChar
        0x00011abc:    6942        Bi      LDR      r2,[r0,#0x14]
        0x00011abe:    f0120f40    ..@.    TST      r2,#0x40
        0x00011ac2:    d0fb        ..      BEQ      HAL_UART_PutChar ; 0x11abc
        0x00011ac4:    6001        .`      STR      r1,[r0,#0]
        0x00011ac6:    4770        pG      BX       lr
    HAL_UART_GetChar
        0x00011ac8:    6800        .h      LDR      r0,[r0,#0]
        0x00011aca:    f3c00008    ....    UBFX     r0,r0,#0,#9
        0x00011ace:    4770        pG      BX       lr
    HAL_UART_GetIsrFlag
        0x00011ad0:    6a00        .j      LDR      r0,[r0,#0x20]
        0x00011ad2:    4008        .@      ANDS     r0,r0,r1
        0x00011ad4:    4770        pG      BX       lr
    HAL_UART_ClearIsrFlag
        0x00011ad6:    6a02        .j      LDR      r2,[r0,#0x20]
        0x00011ad8:    4311        .C      ORRS     r1,r1,r2
        0x00011ada:    6201        .b      STR      r1,[r0,#0x20]
        0x00011adc:    4770        pG      BX       lr
    UART_RxInterruptHandler
        0x00011ade:    b430        0.      PUSH     {r4,r5}
        0x00011ae0:    468c        .F      MOV      r12,r1
        0x00011ae2:    7c09        .|      LDRB     r1,[r1,#0x10]
        0x00011ae4:    4614        .F      MOV      r4,r2
        0x00011ae6:    2900        .)      CMP      r1,#0
        0x00011ae8:    bf1c        ..      ITT      NE
        0x00011aea:    bc30        0.      POPNE    {r4,r5}
        0x00011aec:    4770        pG      BXNE     lr
        0x00011aee:    f8bc1054    ..T.    LDRH     r1,[r12,#0x54]
        0x00011af2:    f8bc2056    ..V     LDRH     r2,[r12,#0x56]
        0x00011af6:    4291        .B      CMP      r1,r2
        0x00011af8:    d11a        ..      BNE      0x11b30 ; UART_RxInterruptHandler + 82
        0x00011afa:    2c00        .,      CMP      r4,#0
        0x00011afc:    bf04        ..      ITT      EQ
        0x00011afe:    bc30        0.      POPEQ    {r4,r5}
        0x00011b00:    4770        pG      BXEQ     lr
        0x00011b02:    f8dc1000    ....    LDR      r1,[r12,#0]
        0x00011b06:    68c9        .h      LDR      r1,[r1,#0xc]
        0x00011b08:    f0110f01    ....    TST      r1,#1
        0x00011b0c:    bf04        ..      ITT      EQ
        0x00011b0e:    bc30        0.      POPEQ    {r4,r5}
        0x00011b10:    4770        pG      BXEQ     lr
        0x00011b12:    6980        .i      LDR      r0,[r0,#0x18]
        0x00011b14:    2b01        .+      CMP      r3,#1
        0x00011b16:    f3c06204    ...b    UBFX     r2,r0,#24,#5
        0x00011b1a:    d004        ..      BEQ      0x11b26 ; UART_RxInterruptHandler + 72
        0x00011b1c:    4660        `F      MOV      r0,r12
        0x00011b1e:    46a4        .F      MOV      r12,r4
        0x00011b20:    bc30        0.      POP      {r4,r5}
        0x00011b22:    2180        .!      MOVS     r1,#0x80
        0x00011b24:    4760        `G      BX       r12
        0x00011b26:    4660        `F      MOV      r0,r12
        0x00011b28:    46a4        .F      MOV      r12,r4
        0x00011b2a:    bc30        0.      POP      {r4,r5}
        0x00011b2c:    2120         !      MOVS     r1,#0x20
        0x00011b2e:    4760        `G      BX       r12
        0x00011b30:    f8dc0008    ....    LDR      r0,[r12,#8]
        0x00011b34:    f0400001    @...    ORR      r0,r0,#1
        0x00011b38:    f8cc0008    ....    STR      r0,[r12,#8]
        0x00011b3c:    f8bc0058    ..X.    LDRH     r0,[r12,#0x58]
        0x00011b40:    b350        P.      CBZ      r0,0x11b98 ; UART_RxInterruptHandler + 186
        0x00011b42:    bf00        ..      NOP      
        0x00011b44:    f8bc000c    ....    LDRH     r0,[r12,#0xc]
        0x00011b48:    2801        .(      CMP      r0,#1
        0x00011b4a:    f8dc0000    ....    LDR      r0,[r12,#0]
        0x00011b4e:    e003        ..      B        0x11b58 ; UART_RxInterruptHandler + 122
    $d
        0x00011b50:    c0019da0    ....    DCD    3221331360
        0x00011b54:    c001af68    h...    DCD    3221335912
    $t
        0x00011b58:    d03b        ;.      BEQ      0x11bd2 ; UART_RxInterruptHandler + 244
        0x00011b5a:    6940        @i      LDR      r0,[r0,#0x14]
        0x00011b5c:    f0100f20    .. .    TST      r0,#0x20
        0x00011b60:    d014        ..      BEQ      0x11b8c ; UART_RxInterruptHandler + 174
        0x00011b62:    bf00        ..      NOP      
        0x00011b64:    f8bc0058    ..X.    LDRH     r0,[r12,#0x58]
        0x00011b68:    1e40        @.      SUBS     r0,r0,#1
        0x00011b6a:    f8ac0058    ..X.    STRH     r0,[r12,#0x58]
        0x00011b6e:    f8dc0000    ....    LDR      r0,[r12,#0]
        0x00011b72:    6800        .h      LDR      r0,[r0,#0]
        0x00011b74:    f8bc1056    ..V.    LDRH     r1,[r12,#0x56]
        0x00011b78:    f8dc5050    ..PP    LDR      r5,[r12,#0x50]
        0x00011b7c:    1c4a        J.      ADDS     r2,r1,#1
        0x00011b7e:    f8ac2056    ..V     STRH     r2,[r12,#0x56]
        0x00011b82:    5468        hT      STRB     r0,[r5,r1]
        0x00011b84:    f8bc0058    ..X.    LDRH     r0,[r12,#0x58]
        0x00011b88:    2800        .(      CMP      r0,#0
        0x00011b8a:    d1db        ..      BNE      0x11b44 ; UART_RxInterruptHandler + 102
        0x00011b8c:    f8bc0058    ..X.    LDRH     r0,[r12,#0x58]
        0x00011b90:    2800        .(      CMP      r0,#0
        0x00011b92:    bf1c        ..      ITT      NE
        0x00011b94:    bc30        0.      POPNE    {r4,r5}
        0x00011b96:    4770        pG      BXNE     lr
        0x00011b98:    f8bc1054    ..T.    LDRH     r1,[r12,#0x54]
        0x00011b9c:    f8bc0056    ..V.    LDRH     r0,[r12,#0x56]
        0x00011ba0:    4281        .B      CMP      r1,r0
        0x00011ba2:    bf1c        ..      ITT      NE
        0x00011ba4:    bc30        0.      POPNE    {r4,r5}
        0x00011ba6:    4770        pG      BXNE     lr
        0x00011ba8:    f8dc1008    ....    LDR      r1,[r12,#8]
        0x00011bac:    f0210101    !...    BIC      r1,r1,#1
        0x00011bb0:    f8cc1008    ....    STR      r1,[r12,#8]
        0x00011bb4:    4909        .I      LDR      r1,[pc,#36] ; [0x11bdc] = 0xc0019da0
        0x00011bb6:    6849        Ih      LDR      r1,[r1,#4]
        0x00011bb8:    2900        .)      CMP      r1,#0
        0x00011bba:    bf18        ..      IT       NE
        0x00011bbc:    8008        ..      STRHNE   r0,[r1,#0]
        0x00011bbe:    2c00        .,      CMP      r4,#0
        0x00011bc0:    bf04        ..      ITT      EQ
        0x00011bc2:    bc30        0.      POPEQ    {r4,r5}
        0x00011bc4:    4770        pG      BXEQ     lr
        0x00011bc6:    2200        ."      MOVS     r2,#0
        0x00011bc8:    4660        `F      MOV      r0,r12
        0x00011bca:    46a4        .F      MOV      r12,r4
        0x00011bcc:    bc30        0.      POP      {r4,r5}
        0x00011bce:    2110        .!      MOVS     r1,#0x10
        0x00011bd0:    4760        `G      BX       r12
        0x00011bd2:    6980        .i      LDR      r0,[r0,#0x18]
        0x00011bd4:    f0105ff8    ..._    TST      r0,#0x1f000000
        0x00011bd8:    d1c4        ..      BNE      0x11b64 ; UART_RxInterruptHandler + 134
        0x00011bda:    e7d7        ..      B        0x11b8c ; UART_RxInterruptHandler + 174
    $d
        0x00011bdc:    c0019da0    ....    DCD    3221331360
    $t
    .text
    HAL_GPIOA_InterruptHandler
        0x00011be0:    48fe        .H      LDR      r0,[pc,#1016] ; [0x11fdc] = 0x40010000
        0x00011be2:    6b81        .k      LDR      r1,[r0,#0x38]
        0x00011be4:    0409        ..      LSLS     r1,r1,#16
        0x00011be6:    0c09        ..      LSRS     r1,r1,#16
        0x00011be8:    bf1c        ..      ITT      NE
        0x00011bea:    f64f71ff    O..q    MOVNE    r1,#0xffff
        0x00011bee:    6381        .c      STRNE    r1,[r0,#0x38]
        0x00011bf0:    4770        pG      BX       lr
    HAL_GPIOB_InterruptHandler
        0x00011bf2:    48fb        .H      LDR      r0,[pc,#1004] ; [0x11fe0] = 0x40011000
        0x00011bf4:    6b81        .k      LDR      r1,[r0,#0x38]
        0x00011bf6:    0409        ..      LSLS     r1,r1,#16
        0x00011bf8:    0c09        ..      LSRS     r1,r1,#16
        0x00011bfa:    bf1c        ..      ITT      NE
        0x00011bfc:    f64f71ff    O..q    MOVNE    r1,#0xffff
        0x00011c00:    6381        .c      STRNE    r1,[r0,#0x38]
        0x00011c02:    4770        pG      BX       lr
    HAL_GPIOC_InterruptHandler
        0x00011c04:    48f7        .H      LDR      r0,[pc,#988] ; [0x11fe4] = 0x40012000
        0x00011c06:    6b81        .k      LDR      r1,[r0,#0x38]
        0x00011c08:    0409        ..      LSLS     r1,r1,#16
        0x00011c0a:    0c09        ..      LSRS     r1,r1,#16
        0x00011c0c:    bf1c        ..      ITT      NE
        0x00011c0e:    f64f71ff    O..q    MOVNE    r1,#0xffff
        0x00011c12:    6381        .c      STRNE    r1,[r0,#0x38]
        0x00011c14:    4770        pG      BX       lr
    HAL_GPIOD_InterruptHandler
        0x00011c16:    48f4        .H      LDR      r0,[pc,#976] ; [0x11fe8] = 0x40013000
        0x00011c18:    6b81        .k      LDR      r1,[r0,#0x38]
        0x00011c1a:    0409        ..      LSLS     r1,r1,#16
        0x00011c1c:    0c09        ..      LSRS     r1,r1,#16
        0x00011c1e:    bf1c        ..      ITT      NE
        0x00011c20:    f64f71ff    O..q    MOVNE    r1,#0xffff
        0x00011c24:    6381        .c      STRNE    r1,[r0,#0x38]
        0x00011c26:    4770        pG      BX       lr
    HAL_GPIOE_InterruptHandler
        0x00011c28:    48f0        .H      LDR      r0,[pc,#960] ; [0x11fec] = 0x40014000
        0x00011c2a:    6b81        .k      LDR      r1,[r0,#0x38]
        0x00011c2c:    0409        ..      LSLS     r1,r1,#16
        0x00011c2e:    0c09        ..      LSRS     r1,r1,#16
        0x00011c30:    bf1c        ..      ITT      NE
        0x00011c32:    f64f71ff    O..q    MOVNE    r1,#0xffff
        0x00011c36:    6381        .c      STRNE    r1,[r0,#0x38]
        0x00011c38:    4770        pG      BX       lr
    HAL_GPIOF_InterruptHandler
        0x00011c3a:    48ed        .H      LDR      r0,[pc,#948] ; [0x11ff0] = 0x40015000
        0x00011c3c:    6b81        .k      LDR      r1,[r0,#0x38]
        0x00011c3e:    0409        ..      LSLS     r1,r1,#16
        0x00011c40:    0c09        ..      LSRS     r1,r1,#16
        0x00011c42:    bf1c        ..      ITT      NE
        0x00011c44:    f64f71ff    O..q    MOVNE    r1,#0xffff
        0x00011c48:    6381        .c      STRNE    r1,[r0,#0x38]
        0x00011c4a:    4770        pG      BX       lr
    HAL_GPIOG_InterruptHandler
        0x00011c4c:    48e9        .H      LDR      r0,[pc,#932] ; [0x11ff4] = 0x40016000
        0x00011c4e:    6b81        .k      LDR      r1,[r0,#0x38]
        0x00011c50:    0409        ..      LSLS     r1,r1,#16
        0x00011c52:    0c09        ..      LSRS     r1,r1,#16
        0x00011c54:    bf1c        ..      ITT      NE
        0x00011c56:    f64f71ff    O..q    MOVNE    r1,#0xffff
        0x00011c5a:    6381        .c      STRNE    r1,[r0,#0x38]
        0x00011c5c:    4770        pG      BX       lr
    HAL_GPIOH_InterruptHandler
        0x00011c5e:    48e6        .H      LDR      r0,[pc,#920] ; [0x11ff8] = 0x40017000
        0x00011c60:    6b81        .k      LDR      r1,[r0,#0x38]
        0x00011c62:    0409        ..      LSLS     r1,r1,#16
        0x00011c64:    0c09        ..      LSRS     r1,r1,#16
        0x00011c66:    bf1c        ..      ITT      NE
        0x00011c68:    f64f71ff    O..q    MOVNE    r1,#0xffff
        0x00011c6c:    6381        .c      STRNE    r1,[r0,#0x38]
        0x00011c6e:    4770        pG      BX       lr
    HAL_GPIOI_InterruptHandler
        0x00011c70:    48e2        .H      LDR      r0,[pc,#904] ; [0x11ffc] = 0x40018000
        0x00011c72:    6b81        .k      LDR      r1,[r0,#0x38]
        0x00011c74:    0409        ..      LSLS     r1,r1,#16
        0x00011c76:    0c09        ..      LSRS     r1,r1,#16
        0x00011c78:    bf1c        ..      ITT      NE
        0x00011c7a:    f64f71ff    O..q    MOVNE    r1,#0xffff
        0x00011c7e:    6381        .c      STRNE    r1,[r0,#0x38]
        0x00011c80:    4770        pG      BX       lr
    HAL_GPIOJ_InterruptHandler
        0x00011c82:    48df        .H      LDR      r0,[pc,#892] ; [0x12000] = 0x40019000
        0x00011c84:    6b81        .k      LDR      r1,[r0,#0x38]
        0x00011c86:    0409        ..      LSLS     r1,r1,#16
        0x00011c88:    0c09        ..      LSRS     r1,r1,#16
        0x00011c8a:    bf1c        ..      ITT      NE
        0x00011c8c:    f64f71ff    O..q    MOVNE    r1,#0xffff
        0x00011c90:    6381        .c      STRNE    r1,[r0,#0x38]
        0x00011c92:    4770        pG      BX       lr
    HAL_GPIOK_InterruptHandler
        0x00011c94:    48db        .H      LDR      r0,[pc,#876] ; [0x12004] = 0x4001a000
        0x00011c96:    6b81        .k      LDR      r1,[r0,#0x38]
        0x00011c98:    0409        ..      LSLS     r1,r1,#16
        0x00011c9a:    0c09        ..      LSRS     r1,r1,#16
        0x00011c9c:    bf1c        ..      ITT      NE
        0x00011c9e:    f64f71ff    O..q    MOVNE    r1,#0xffff
        0x00011ca2:    6381        .c      STRNE    r1,[r0,#0x38]
        0x00011ca4:    4770        pG      BX       lr
    HAL_GPIO_SW_Reset
        0x00011ca6:    2001        .       MOVS     r0,#1
        0x00011ca8:    f000bb5c    ..\.    B.W      HAL_Reset_Module ; 0x12364
    HAL_GPIO_CLK_ENABLE
        0x00011cac:    2002        .       MOVS     r0,#2
        0x00011cae:    f001b816    ....    B.W      HAL_CLOCK_PeripheralClockEnable0 ; 0x12cde
    HAL_GPIO_CLK_DISABLE
        0x00011cb2:    2002        .       MOVS     r0,#2
        0x00011cb4:    f001b81a    ....    B.W      HAL_CLOCK_PeripheralClockDisable0 ; 0x12cec
    HAL_GPIO_RequestIrq
        0x00011cb8:    4770        pG      BX       lr
    HAL_GPIO_DeInit
        0x00011cba:    e92d4ff0    -..O    PUSH     {r4-r11,lr}
        0x00011cbe:    4ad2        .J      LDR      r2,[pc,#840] ; [0x12008] = 0x19b3c
        0x00011cc0:    2300        .#      MOVS     r3,#0
        0x00011cc2:    bf00        ..      NOP      
        0x00011cc4:    f8524023    R.#@    LDR      r4,[r2,r3,LSL #2]
        0x00011cc8:    4284        .B      CMP      r4,r0
        0x00011cca:    bf1c        ..      ITT      NE
        0x00011ccc:    1c5b        [.      ADDNE    r3,r3,#1
        0x00011cce:    2b0b        .+      CMPNE    r3,#0xb
        0x00011cd0:    d3f8        ..      BCC      0x11cc4 ; HAL_GPIO_DeInit + 10
        0x00011cd2:    2b0b        .+      CMP      r3,#0xb
        0x00011cd4:    d25b        [.      BCS      0x11d8e ; HAL_GPIO_DeInit + 212
        0x00011cd6:    880a        ..      LDRH     r2,[r1,#0]
        0x00011cd8:    0412        ..      LSLS     r2,r2,#16
        0x00011cda:    0c12        ..      LSRS     r2,r2,#16
        0x00011cdc:    d057        W.      BEQ      0x11d8e ; HAL_GPIO_DeInit + 212
        0x00011cde:    ea4f7cc3    O..|    LSL      r12,r3,#31
        0x00011ce2:    ea4f66dc    O..f    LSR      r6,r12,#27
        0x00011ce6:    ea4f0c53    O.S.    LSR      r12,r3,#1
        0x00011cea:    2200        ."      MOVS     r2,#0
        0x00011cec:    2501        .%      MOVS     r5,#1
        0x00011cee:    005f        _.      LSLS     r7,r3,#1
        0x00011cf0:    ea4f0c8c    O...    LSL      r12,r12,#2
        0x00011cf4:    009b        ..      LSLS     r3,r3,#2
        0x00011cf6:    f04f0e03    O...    MOV      lr,#3
        0x00011cfa:    f04f080f    O...    MOV      r8,#0xf
        0x00011cfe:    f1034480    ...D    ADD      r4,r3,#0x40000000
        0x00011d02:    f10c4c80    ...L    ADD      r12,r12,#0x40000000
        0x00011d06:    bf00        ..      NOP      
        0x00011d08:    680b        .h      LDR      r3,[r1,#0]
        0x00011d0a:    fa05f902    ....    LSL      r9,r5,r2
        0x00011d0e:    ea030309    ....    AND      r3,r3,r9
        0x00011d12:    454b        KE      CMP      r3,r9
        0x00011d14:    d135        5.      BNE      0x11d82 ; HAL_GPIO_DeInit + 200
        0x00011d16:    6143        Ca      STR      r3,[r0,#0x14]
        0x00011d18:    f8d4a298    ....    LDR      r10,[r4,#0x298]
        0x00011d1c:    ea4f0942    O.B.    LSL      r9,r2,#1
        0x00011d20:    fa0ef909    ....    LSL      r9,lr,r9
        0x00011d24:    ea2a0a09    *...    BIC      r10,r10,r9
        0x00011d28:    f8c4a298    ....    STR      r10,[r4,#0x298]
        0x00011d2c:    f8d4a2c4    ....    LDR      r10,[r4,#0x2c4]
        0x00011d30:    ea2a0909    *...    BIC      r9,r10,r9
        0x00011d34:    f8c492c4    ....    STR      r9,[r4,#0x2c4]
        0x00011d38:    eb0709d2    ....    ADD      r9,r7,r2,LSR #3
        0x00011d3c:    ea4f0989    O...    LSL      r9,r9,#2
        0x00011d40:    f1094980    ...I    ADD      r9,r9,#0x40000000
        0x00011d44:    f8d9a2f0    ....    LDR      r10,[r9,#0x2f0]
        0x00011d48:    ea4f7b42    O.B{    LSL      r11,r2,#29
        0x00011d4c:    ea4f6bdb    O..k    LSR      r11,r11,#27
        0x00011d50:    fa08fb0b    ....    LSL      r11,r8,r11
        0x00011d54:    ea2a0a0b    *...    BIC      r10,r10,r11
        0x00011d58:    f8c9a2f0    ....    STR      r10,[r9,#0x2f0]
        0x00011d5c:    f8dc9268    ..h.    LDR      r9,[r12,#0x268]
        0x00011d60:    eb020a06    ....    ADD      r10,r2,r6
        0x00011d64:    fa05fa0a    ....    LSL      r10,r5,r10
        0x00011d68:    ea29090a    )...    BIC      r9,r9,r10
        0x00011d6c:    f8cc9268    ..h.    STR      r9,[r12,#0x268]
        0x00011d70:    f8dc9280    ....    LDR      r9,[r12,#0x280]
        0x00011d74:    ea29090a    )...    BIC      r9,r9,r10
        0x00011d78:    f8cc9280    ....    STR      r9,[r12,#0x280]
        0x00011d7c:    6243        Cb      STR      r3,[r0,#0x24]
        0x00011d7e:    62c3        .b      STR      r3,[r0,#0x2c]
        0x00011d80:    6343        Cc      STR      r3,[r0,#0x34]
        0x00011d82:    1c52        R.      ADDS     r2,r2,#1
        0x00011d84:    2a10        .*      CMP      r2,#0x10
        0x00011d86:    d3bf        ..      BCC      0x11d08 ; HAL_GPIO_DeInit + 78
        0x00011d88:    2000        .       MOVS     r0,#0
        0x00011d8a:    e8bd8ff0    ....    POP      {r4-r11,pc}
        0x00011d8e:    f04f30ff    O..0    MOV      r0,#0xffffffff
        0x00011d92:    e8bd8ff0    ....    POP      {r4-r11,pc}
    HAL_GPIO_Init
        0x00011d96:    e92d4ff8    -..O    PUSH     {r3-r11,lr}
        0x00011d9a:    460c        .F      MOV      r4,r1
        0x00011d9c:    499a        .I      LDR      r1,[pc,#616] ; [0x12008] = 0x19b3c
        0x00011d9e:    4606        .F      MOV      r6,r0
        0x00011da0:    2500        .%      MOVS     r5,#0
        0x00011da2:    bf00        ..      NOP      
        0x00011da4:    f8512025    Q.%     LDR      r2,[r1,r5,LSL #2]
        0x00011da8:    4282        .B      CMP      r2,r0
        0x00011daa:    bf1c        ..      ITT      NE
        0x00011dac:    1c6d        m.      ADDNE    r5,r5,#1
        0x00011dae:    2d0b        .-      CMPNE    r5,#0xb
        0x00011db0:    d3f8        ..      BCC      0x11da4 ; HAL_GPIO_Init + 14
        0x00011db2:    2d0b        .-      CMP      r5,#0xb
        0x00011db4:    d250        P.      BCS      0x11e58 ; HAL_GPIO_Init + 194
        0x00011db6:    8820         .      LDRH     r0,[r4,#0]
        0x00011db8:    0400        ..      LSLS     r0,r0,#16
        0x00011dba:    0c00        ..      LSRS     r0,r0,#16
        0x00011dbc:    d04c        L.      BEQ      0x11e58 ; HAL_GPIO_Init + 194
        0x00011dbe:    2002        .       MOVS     r0,#2
        0x00011dc0:    f000ff8d    ....    BL       HAL_CLOCK_PeripheralClockEnable0 ; 0x12cde
        0x00011dc4:    2001        .       MOVS     r0,#1
        0x00011dc6:    f000facd    ....    BL       HAL_Reset_Module ; 0x12364
        0x00011dca:    6860        `h      LDR      r0,[r4,#4]
        0x00011dcc:    2804        .(      CMP      r0,#4
        0x00011dce:    d047        G.      BEQ      0x11e60 ; HAL_GPIO_Init + 202
        0x00011dd0:    0068        h.      LSLS     r0,r5,#1
        0x00011dd2:    9000        ..      STR      r0,[sp,#0]
        0x00011dd4:    07e8        ..      LSLS     r0,r5,#31
        0x00011dd6:    0ec7        ..      LSRS     r7,r0,#27
        0x00011dd8:    0868        h.      LSRS     r0,r5,#1
        0x00011dda:    0080        ..      LSLS     r0,r0,#2
        0x00011ddc:    2100        .!      MOVS     r1,#0
        0x00011dde:    f1004380    ...C    ADD      r3,r0,#0x40000000
        0x00011de2:    00a8        ..      LSLS     r0,r5,#2
        0x00011de4:    f04f0e0f    O...    MOV      lr,#0xf
        0x00011de8:    f04f0c01    O...    MOV      r12,#1
        0x00011dec:    f1004280    ...B    ADD      r2,r0,#0x40000000
        0x00011df0:    6820         h      LDR      r0,[r4,#0]
        0x00011df2:    fa0cf801    ....    LSL      r8,r12,r1
        0x00011df6:    ea000008    ....    AND      r0,r0,r8
        0x00011dfa:    4540        @E      CMP      r0,r8
        0x00011dfc:    f040813d    @.=.    BNE.W    0x1207a ; HAL_GPIO_Init + 740
        0x00011e00:    f8d48004    ....    LDR      r8,[r4,#4]
        0x00011e04:    f1b80f00    ....    CMP      r8,#0
        0x00011e08:    bf18        ..      IT       NE
        0x00011e0a:    f1b85f80    ..._    CMPNE    r8,#0x10000000
        0x00011e0e:    d017        ..      BEQ      0x11e40 ; HAL_GPIO_Init + 170
        0x00011e10:    f1a85980    ...Y    SUB      r9,r8,#0x10000000
        0x00011e14:    f5b91980    ....    SUBS     r9,r9,#0x100000
        0x00011e18:    bf1f        ..      ITTTT    NE
        0x00011e1a:    f1a85980    ...Y    SUBNE    r9,r8,#0x10000000
        0x00011e1e:    f5b93980    ...9    SUBSNE   r9,r9,#0x10000
        0x00011e22:    f1a85980    ...Y    SUBNE    r9,r8,#0x10000000
        0x00011e26:    f5b91988    ....    SUBSNE   r9,r9,#0x110000
        0x00011e2a:    d009        ..      BEQ      0x11e40 ; HAL_GPIO_Init + 170
        0x00011e2c:    f1b80f01    ....    CMP      r8,#1
        0x00011e30:    d01d        ..      BEQ      0x11e6e ; HAL_GPIO_Init + 216
        0x00011e32:    f1b80f03    ....    CMP      r8,#3
        0x00011e36:    d03f        ?.      BEQ      0x11eb8 ; HAL_GPIO_Init + 290
        0x00011e38:    f1b80f05    ....    CMP      r8,#5
        0x00011e3c:    d04b        K.      BEQ      0x11ed6 ; HAL_GPIO_Init + 320
        0x00011e3e:    e05c        \.      B        0x11efa ; HAL_GPIO_Init + 356
        0x00011e40:    6170        pa      STR      r0,[r6,#0x14]
        0x00011e42:    f8d292c4    ....    LDR      r9,[r2,#0x2c4]
        0x00011e46:    ea4f0a41    O.A.    LSL      r10,r1,#1
        0x00011e4a:    f04f0803    O...    MOV      r8,#3
        0x00011e4e:    fa08f80a    ....    LSL      r8,r8,r10
        0x00011e52:    ea290808    )...    BIC      r8,r9,r8
        0x00011e56:    e04e        N.      B        0x11ef6 ; HAL_GPIO_Init + 352
        0x00011e58:    f04f30ff    O..0    MOV      r0,#0xffffffff
        0x00011e5c:    e8bd8ff8    ....    POP      {r3-r11,pc}
        0x00011e60:    4621        !F      MOV      r1,r4
        0x00011e62:    4630        0F      MOV      r0,r6
        0x00011e64:    f7ffff29    ..).    BL       HAL_GPIO_DeInit ; 0x11cba
        0x00011e68:    2000        .       MOVS     r0,#0
        0x00011e6a:    e8bd8ff8    ....    POP      {r3-r11,pc}
        0x00011e6e:    6130        0a      STR      r0,[r6,#0x10]
        0x00011e70:    f8d2a2c4    ....    LDR      r10,[r2,#0x2c4]
        0x00011e74:    ea4f0841    O.A.    LSL      r8,r1,#1
        0x00011e78:    f04f0903    O...    MOV      r9,#3
        0x00011e7c:    fa09f908    ....    LSL      r9,r9,r8
        0x00011e80:    ea2a0a09    *...    BIC      r10,r10,r9
        0x00011e84:    f8c2a2c4    ....    STR      r10,[r2,#0x2c4]
        0x00011e88:    f8d4a010    ....    LDR      r10,[r4,#0x10]
        0x00011e8c:    f1ba0f03    ....    CMP      r10,#3
        0x00011e90:    bf84        ..      ITT      HI
        0x00011e92:    f04f0a00    O...    MOVHI    r10,#0
        0x00011e96:    f8c4a010    ....    STRHI    r10,[r4,#0x10]
        0x00011e9a:    f8d2a298    ....    LDR      r10,[r2,#0x298]
        0x00011e9e:    ea2a0909    *...    BIC      r9,r10,r9
        0x00011ea2:    f894a010    ....    LDRB     r10,[r4,#0x10]
        0x00011ea6:    f00a0a03    ....    AND      r10,r10,#3
        0x00011eaa:    fa0af808    ....    LSL      r8,r10,r8
        0x00011eae:    ea490808    I...    ORR      r8,r9,r8
        0x00011eb2:    f8c28298    ....    STR      r8,[r2,#0x298]
        0x00011eb6:    e020         .      B        0x11efa ; HAL_GPIO_Init + 356
        0x00011eb8:    f8d292c4    ....    LDR      r9,[r2,#0x2c4]
        0x00011ebc:    ea4f0a41    O.A.    LSL      r10,r1,#1
        0x00011ec0:    f04f0803    O...    MOV      r8,#3
        0x00011ec4:    fa08f80a    ....    LSL      r8,r8,r10
        0x00011ec8:    ea290908    )...    BIC      r9,r9,r8
        0x00011ecc:    ea490808    I...    ORR      r8,r9,r8
        0x00011ed0:    f8c282c4    ....    STR      r8,[r2,#0x2c4]
        0x00011ed4:    e011        ..      B        0x11efa ; HAL_GPIO_Init + 356
        0x00011ed6:    f8d2a2c4    ....    LDR      r10,[r2,#0x2c4]
        0x00011eda:    ea4f0841    O.A.    LSL      r8,r1,#1
        0x00011ede:    f04f0903    O...    MOV      r9,#3
        0x00011ee2:    fa09f908    ....    LSL      r9,r9,r8
        0x00011ee6:    ea2a0909    *...    BIC      r9,r10,r9
        0x00011eea:    f04f0a02    O...    MOV      r10,#2
        0x00011eee:    fa0af808    ....    LSL      r8,r10,r8
        0x00011ef2:    ea490808    I...    ORR      r8,r9,r8
        0x00011ef6:    f8c282c4    ....    STR      r8,[r2,#0x2c4]
        0x00011efa:    f8d48004    ....    LDR      r8,[r4,#4]
        0x00011efe:    f1b80f02    ....    CMP      r8,#2
        0x00011f02:    d129        ).      BNE      0x11f58 ; HAL_GPIO_Init + 450
        0x00011f04:    f8d2a2c4    ....    LDR      r10,[r2,#0x2c4]
        0x00011f08:    ea4f0841    O.A.    LSL      r8,r1,#1
        0x00011f0c:    f04f0903    O...    MOV      r9,#3
        0x00011f10:    fa09f908    ....    LSL      r9,r9,r8
        0x00011f14:    ea2a0909    *...    BIC      r9,r10,r9
        0x00011f18:    fa0cf808    ....    LSL      r8,r12,r8
        0x00011f1c:    ea490808    I...    ORR      r8,r9,r8
        0x00011f20:    f8c282c4    ....    STR      r8,[r2,#0x2c4]
        0x00011f24:    f8dd8000    ....    LDR      r8,[sp,#0]
        0x00011f28:    eb0808d1    ....    ADD      r8,r8,r1,LSR #3
        0x00011f2c:    ea4f0888    O...    LSL      r8,r8,#2
        0x00011f30:    f1084880    ...H    ADD      r8,r8,#0x40000000
        0x00011f34:    f8d8a2f0    ....    LDR      r10,[r8,#0x2f0]
        0x00011f38:    ea4f7941    O.Ay    LSL      r9,r1,#29
        0x00011f3c:    ea4f69d9    O..i    LSR      r9,r9,#27
        0x00011f40:    fa0efb09    ....    LSL      r11,lr,r9
        0x00011f44:    ea2a0a0b    *...    BIC      r10,r10,r11
        0x00011f48:    f8d4b00c    ....    LDR      r11,[r4,#0xc]
        0x00011f4c:    fa0bf909    ....    LSL      r9,r11,r9
        0x00011f50:    ea4a0909    J...    ORR      r9,r10,r9
        0x00011f54:    f8c892f0    ....    STR      r9,[r8,#0x2f0]
        0x00011f58:    f8d49004    ....    LDR      r9,[r4,#4]
        0x00011f5c:    f1b90f00    ....    CMP      r9,#0
        0x00011f60:    bf18        ..      IT       NE
        0x00011f62:    f1b95f80    ..._    CMPNE    r9,#0x10000000
        0x00011f66:    d011        ..      BEQ      0x11f8c ; HAL_GPIO_Init + 502
        0x00011f68:    f1a95a80    ...Z    SUB      r10,r9,#0x10000000
        0x00011f6c:    f5ba1a80    ....    SUBS     r10,r10,#0x100000
        0x00011f70:    bf1c        ..      ITT      NE
        0x00011f72:    f1a95a80    ...Z    SUBNE    r10,r9,#0x10000000
        0x00011f76:    f5ba3a80    ...:    SUBSNE   r10,r10,#0x10000
        0x00011f7a:    d007        ..      BEQ      0x11f8c ; HAL_GPIO_Init + 502
        0x00011f7c:    f1a95a80    ...Z    SUB      r10,r9,#0x10000000
        0x00011f80:    f5ba1a88    ....    SUBS     r10,r10,#0x110000
        0x00011f84:    bf18        ..      IT       NE
        0x00011f86:    f1b90f02    ....    CMPNE    r9,#2
        0x00011f8a:    d117        ..      BNE      0x11fbc ; HAL_GPIO_Init + 550
        0x00011f8c:    f8d49008    ....    LDR      r9,[r4,#8]
        0x00011f90:    f1b90f01    ....    CMP      r9,#1
        0x00011f94:    d046        F.      BEQ      0x12024 ; HAL_GPIO_Init + 654
        0x00011f96:    f1b90f02    ....    CMP      r9,#2
        0x00011f9a:    d050        P.      BEQ      0x1203e ; HAL_GPIO_Init + 680
        0x00011f9c:    f8d39268    ..h.    LDR      r9,[r3,#0x268]
        0x00011fa0:    eb010807    ....    ADD      r8,r1,r7
        0x00011fa4:    fa0cf808    ....    LSL      r8,r12,r8
        0x00011fa8:    ea290908    )...    BIC      r9,r9,r8
        0x00011fac:    f8c39268    ..h.    STR      r9,[r3,#0x268]
        0x00011fb0:    f8d39280    ....    LDR      r9,[r3,#0x280]
        0x00011fb4:    ea290808    )...    BIC      r8,r9,r8
        0x00011fb8:    f8c38280    ....    STR      r8,[r3,#0x280]
        0x00011fbc:    f8d48004    ....    LDR      r8,[r4,#4]
        0x00011fc0:    f0185f80    ..._    TST      r8,#0x10000000
        0x00011fc4:    d059        Y.      BEQ      0x1207a ; HAL_GPIO_Init + 740
        0x00011fc6:    f1b85f80    ..._    CMP      r8,#0x10000000
        0x00011fca:    bf1a        ..      ITTE     NE
        0x00011fcc:    f1a85980    ...Y    SUBNE    r9,r8,#0x10000000
        0x00011fd0:    f5b91980    ....    SUBSNE   r9,r9,#0x100000
        0x00011fd4:    62f0        .b      STREQ    r0,[r6,#0x2c]
        0x00011fd6:    d03d        =.      BEQ      0x12054 ; HAL_GPIO_Init + 702
        0x00011fd8:    e018        ..      B        0x1200c ; HAL_GPIO_Init + 630
    $d
        0x00011fda:    0000        ..      DCW    0
        0x00011fdc:    40010000    ...@    DCD    1073807360
        0x00011fe0:    40011000    ...@    DCD    1073811456
        0x00011fe4:    40012000    . .@    DCD    1073815552
        0x00011fe8:    40013000    .0.@    DCD    1073819648
        0x00011fec:    40014000    .@.@    DCD    1073823744
        0x00011ff0:    40015000    .P.@    DCD    1073827840
        0x00011ff4:    40016000    .`.@    DCD    1073831936
        0x00011ff8:    40017000    .p.@    DCD    1073836032
        0x00011ffc:    40018000    ...@    DCD    1073840128
        0x00012000:    40019000    ...@    DCD    1073844224
        0x00012004:    4001a000    ...@    DCD    1073848320
        0x00012008:    00019b3c    <...    DCD    105276
    $t
        0x0001200c:    f1a85980    ...Y    SUB      r9,r8,#0x10000000
        0x00012010:    f5b93980    ...9    SUBS     r9,r9,#0x10000
        0x00012014:    bf1a        ..      ITTE     NE
        0x00012016:    f1a85980    ...Y    SUBNE    r9,r8,#0x10000000
        0x0001201a:    f5b91988    ....    SUBSNE   r9,r9,#0x110000
        0x0001201e:    62b0        .b      STREQ    r0,[r6,#0x28]
        0x00012020:    d018        ..      BEQ      0x12054 ; HAL_GPIO_Init + 702
        0x00012022:    e01c        ..      B        0x1205e ; HAL_GPIO_Init + 712
        0x00012024:    f8d39268    ..h.    LDR      r9,[r3,#0x268]
        0x00012028:    eb010807    ....    ADD      r8,r1,r7
        0x0001202c:    fa0cf808    ....    LSL      r8,r12,r8
        0x00012030:    ea290908    )...    BIC      r9,r9,r8
        0x00012034:    ea490808    I...    ORR      r8,r9,r8
        0x00012038:    f8c38268    ..h.    STR      r8,[r3,#0x268]
        0x0001203c:    e7be        ..      B        0x11fbc ; HAL_GPIO_Init + 550
        0x0001203e:    f8d39280    ....    LDR      r9,[r3,#0x280]
        0x00012042:    eb010807    ....    ADD      r8,r1,r7
        0x00012046:    fa0cf808    ....    LSL      r8,r12,r8
        0x0001204a:    ea290908    )...    BIC      r9,r9,r8
        0x0001204e:    ea490808    I...    ORR      r8,r9,r8
        0x00012052:    e7b1        ..      B        0x11fb8 ; HAL_GPIO_Init + 546
        0x00012054:    f8d48004    ....    LDR      r8,[r4,#4]
        0x00012058:    f1b85f80    ..._    CMP      r8,#0x10000000
        0x0001205c:    d014        ..      BEQ      0x12088 ; HAL_GPIO_Init + 754
        0x0001205e:    f1a85980    ...Y    SUB      r9,r8,#0x10000000
        0x00012062:    f5b93980    ...9    SUBS     r9,r9,#0x10000
        0x00012066:    d00f        ..      BEQ      0x12088 ; HAL_GPIO_Init + 754
        0x00012068:    f5b92970    ..p)    SUBS     r9,r9,#0xf0000
        0x0001206c:    bf1a        ..      ITTE     NE
        0x0001206e:    f1a85980    ...Y    SUBNE    r9,r8,#0x10000000
        0x00012072:    f5b91988    ....    SUBSNE   r9,r9,#0x110000
        0x00012076:    6330        0c      STREQ    r0,[r6,#0x30]
        0x00012078:    6230        0b      STR      r0,[r6,#0x20]
        0x0001207a:    1c49        I.      ADDS     r1,r1,#1
        0x0001207c:    2910        .)      CMP      r1,#0x10
        0x0001207e:    f4ffaeb7    ....    BCC      0x11df0 ; HAL_GPIO_Init + 90
        0x00012082:    2000        .       MOVS     r0,#0
        0x00012084:    e8bd8ff8    ....    POP      {r3-r11,pc}
        0x00012088:    6370        pc      STR      r0,[r6,#0x34]
        0x0001208a:    e7f5        ..      B        0x12078 ; HAL_GPIO_Init + 738
    HAL_GPIO_PinWrite
        0x0001208c:    b139        9.      CBZ      r1,0x1209e ; HAL_GPIO_PinWrite + 18
        0x0001208e:    f4106100    ...a    ANDS     r1,r0,#0x800
        0x00012092:    bf18        ..      IT       NE
        0x00012094:    2108        .!      MOVNE    r1,#8
        0x00012096:    f3c00287    ....    UBFX     r2,r0,#2,#8
        0x0001209a:    fa02f101    ....    LSL      r1,r2,r1
        0x0001209e:    6001        .`      STR      r1,[r0,#0]
        0x000120a0:    4770        pG      BX       lr
    HAL_GPIO_PinRead
        0x000120a2:    4601        .F      MOV      r1,r0
        0x000120a4:    2000        .       MOVS     r0,#0
        0x000120a6:    6809        .h      LDR      r1,[r1,#0]
        0x000120a8:    2900        .)      CMP      r1,#0
        0x000120aa:    bf18        ..      IT       NE
        0x000120ac:    2001        .       MOVNE    r0,#1
        0x000120ae:    4770        pG      BX       lr
    HAL_GPIO_PinToggle
        0x000120b0:    6801        .h      LDR      r1,[r0,#0]
        0x000120b2:    2900        .)      CMP      r1,#0
        0x000120b4:    bf18        ..      IT       NE
        0x000120b6:    2100        .!      MOVNE    r1,#0
        0x000120b8:    d001        ..      BEQ      0x120be ; HAL_GPIO_PinToggle + 14
        0x000120ba:    6001        .`      STR      r1,[r0,#0]
        0x000120bc:    4770        pG      BX       lr
        0x000120be:    f4106100    ...a    ANDS     r1,r0,#0x800
        0x000120c2:    bf18        ..      IT       NE
        0x000120c4:    2108        .!      MOVNE    r1,#8
        0x000120c6:    f3c00287    ....    UBFX     r2,r0,#2,#8
        0x000120ca:    fa02f101    ....    LSL      r1,r2,r1
        0x000120ce:    e7f4        ..      B        0x120ba ; HAL_GPIO_PinToggle + 10
    HAL_GPIO_SetPinDirection
        0x000120d0:    4602        .F      MOV      r2,r0
        0x000120d2:    f36f020b    o...    BFC      r2,#0,#12
        0x000120d6:    f4106300    ...c    ANDS     r3,r0,#0x800
        0x000120da:    bf18        ..      IT       NE
        0x000120dc:    2308        .#      MOVNE    r3,#8
        0x000120de:    f3c00087    ....    UBFX     r0,r0,#2,#8
        0x000120e2:    4098        .@      LSLS     r0,r0,r3
        0x000120e4:    2901        .)      CMP      r1,#1
        0x000120e6:    bf04        ..      ITT      EQ
        0x000120e8:    6150        Pa      STREQ    r0,[r2,#0x14]
        0x000120ea:    4770        pG      BXEQ     lr
        0x000120ec:    2900        .)      CMP      r1,#0
        0x000120ee:    bf08        ..      IT       EQ
        0x000120f0:    6110        .a      STREQ    r0,[r2,#0x10]
        0x000120f2:    4770        pG      BX       lr
    HAL_GPIO_PesConfig
        0x000120f4:    f36f000b    o...    BFC      r0,#0,#12
        0x000120f8:    b159        Y.      CBZ      r1,0x12112 ; HAL_GPIO_PesConfig + 30
        0x000120fa:    680a        .h      LDR      r2,[r1,#0]
        0x000120fc:    2a0f        .*      CMP      r2,#0xf
        0x000120fe:    bf9c        ..      ITT      LS
        0x00012100:    684b        Kh      LDRLS    r3,[r1,#4]
        0x00012102:    2b0c        .+      CMPLS    r3,#0xc
        0x00012104:    d805        ..      BHI      0x12112 ; HAL_GPIO_PesConfig + 30
        0x00012106:    688b        .h      LDR      r3,[r1,#8]
        0x00012108:    2b03        .+      CMP      r3,#3
        0x0001210a:    bf9c        ..      ITT      LS
        0x0001210c:    7b0b        .{      LDRBLS   r3,[r1,#0xc]
        0x0001210e:    2b01        .+      CMPLS    r3,#1
        0x00012110:    d902        ..      BLS      0x12118 ; HAL_GPIO_PesConfig + 36
        0x00012112:    f04f30ff    O..0    MOV      r0,#0xffffffff
        0x00012116:    4770        pG      BX       lr
        0x00012118:    f8d03c00    ...<    LDR      r3,[r0,#0xc00]
        0x0001211c:    f362731f    b..s    BFI      r3,r2,#28,#4
        0x00012120:    f8c03c00    ...<    STR      r3,[r0,#0xc00]
        0x00012124:    f8d02c00    ...,    LDR      r2,[r0,#0xc00]
        0x00012128:    888b        ..      LDRH     r3,[r1,#4]
        0x0001212a:    f4222270    ".p"    BIC      r2,r2,#0xf0000
        0x0001212e:    ea424203    B..B    ORR      r2,r2,r3,LSL #16
        0x00012132:    f8c02c00    ...,    STR      r2,[r0,#0xc00]
        0x00012136:    f8d02c00    ...,    LDR      r2,[r0,#0xc00]
        0x0001213a:    688b        .h      LDR      r3,[r1,#8]
        0x0001213c:    f0220230    ".0.    BIC      r2,r2,#0x30
        0x00012140:    ea421203    B...    ORR      r2,r2,r3,LSL #4
        0x00012144:    f8c02c00    ...,    STR      r2,[r0,#0xc00]
        0x00012148:    f8d02c00    ...,    LDR      r2,[r0,#0xc00]
        0x0001214c:    7b09        .{      LDRB     r1,[r1,#0xc]
        0x0001214e:    f0220201    "...    BIC      r2,r2,#1
        0x00012152:    4311        .C      ORRS     r1,r1,r2
        0x00012154:    f8c01c00    ....    STR      r1,[r0,#0xc00]
        0x00012158:    2000        .       MOVS     r0,#0
        0x0001215a:    4770        pG      BX       lr
    HAL_GPIO_SetPinFilter
        0x0001215c:    b410        ..      PUSH     {r4}
        0x0001215e:    4603        .F      MOV      r3,r0
        0x00012160:    f8dfc1fc    ....    LDR      r12,[pc,#508] ; [0x12360] = 0x19b3c
        0x00012164:    f36f030b    o...    BFC      r3,#0,#12
        0x00012168:    2200        ."      MOVS     r2,#0
        0x0001216a:    bf00        ..      NOP      
        0x0001216c:    f85c4022    \."@    LDR      r4,[r12,r2,LSL #2]
        0x00012170:    429c        .B      CMP      r4,r3
        0x00012172:    bf1c        ..      ITT      NE
        0x00012174:    1c52        R.      ADDNE    r2,r2,#1
        0x00012176:    2a0b        .*      CMPNE    r2,#0xb
        0x00012178:    d3f8        ..      BCC      0x1216c ; HAL_GPIO_SetPinFilter + 16
        0x0001217a:    2a0b        .*      CMP      r2,#0xb
        0x0001217c:    bf22        ".      ITTT     CS
        0x0001217e:    f04f30ff    O..0    MOVCS    r0,#0xffffffff
        0x00012182:    bc10        ..      POPCS    {r4}
        0x00012184:    4770        pG      BXCS     lr
        0x00012186:    f4106300    ...c    ANDS     r3,r0,#0x800
        0x0001218a:    bf18        ..      IT       NE
        0x0001218c:    2308        .#      MOVNE    r3,#8
        0x0001218e:    f3c00087    ....    UBFX     r0,r0,#2,#8
        0x00012192:    4098        .@      LSLS     r0,r0,r3
        0x00012194:    f891c00c    ....    LDRB     r12,[r1,#0xc]
        0x00012198:    f04f4380    O..C    MOV      r3,#0x40000000
        0x0001219c:    f1bc0f00    ....    CMP      r12,#0
        0x000121a0:    d043        C.      BEQ      0x1222a ; HAL_GPIO_SetPinFilter + 206
        0x000121a2:    b1f2        ..      CBZ      r2,0x121e2 ; HAL_GPIO_SetPinFilter + 134
        0x000121a4:    2a01        .*      CMP      r2,#1
        0x000121a6:    bf08        ..      IT       EQ
        0x000121a8:    0400        ..      LSLEQ    r0,r0,#16
        0x000121aa:    d01a        ..      BEQ      0x121e2 ; HAL_GPIO_SetPinFilter + 134
        0x000121ac:    2a02        .*      CMP      r2,#2
        0x000121ae:    d01e        ..      BEQ      0x121ee ; HAL_GPIO_SetPinFilter + 146
        0x000121b0:    2a03        .*      CMP      r2,#3
        0x000121b2:    bf08        ..      IT       EQ
        0x000121b4:    0400        ..      LSLEQ    r0,r0,#16
        0x000121b6:    d01a        ..      BEQ      0x121ee ; HAL_GPIO_SetPinFilter + 146
        0x000121b8:    2a04        .*      CMP      r2,#4
        0x000121ba:    d01e        ..      BEQ      0x121fa ; HAL_GPIO_SetPinFilter + 158
        0x000121bc:    2a05        .*      CMP      r2,#5
        0x000121be:    bf08        ..      IT       EQ
        0x000121c0:    0400        ..      LSLEQ    r0,r0,#16
        0x000121c2:    d01a        ..      BEQ      0x121fa ; HAL_GPIO_SetPinFilter + 158
        0x000121c4:    2a06        .*      CMP      r2,#6
        0x000121c6:    d01e        ..      BEQ      0x12206 ; HAL_GPIO_SetPinFilter + 170
        0x000121c8:    2a07        .*      CMP      r2,#7
        0x000121ca:    bf08        ..      IT       EQ
        0x000121cc:    0400        ..      LSLEQ    r0,r0,#16
        0x000121ce:    d01a        ..      BEQ      0x12206 ; HAL_GPIO_SetPinFilter + 170
        0x000121d0:    2a08        .*      CMP      r2,#8
        0x000121d2:    d01e        ..      BEQ      0x12212 ; HAL_GPIO_SetPinFilter + 182
        0x000121d4:    2a09        .*      CMP      r2,#9
        0x000121d6:    bf08        ..      IT       EQ
        0x000121d8:    0400        ..      LSLEQ    r0,r0,#16
        0x000121da:    d01a        ..      BEQ      0x12212 ; HAL_GPIO_SetPinFilter + 182
        0x000121dc:    2a0a        .*      CMP      r2,#0xa
        0x000121de:    d01e        ..      BEQ      0x1221e ; HAL_GPIO_SetPinFilter + 194
        0x000121e0:    e0bb        ..      B        0x1235a ; HAL_GPIO_SetPinFilter + 510
        0x000121e2:    f8d31220    .. .    LDR      r1,[r3,#0x220]
        0x000121e6:    4308        .C      ORRS     r0,r0,r1
        0x000121e8:    f8c30220    .. .    STR      r0,[r3,#0x220]
        0x000121ec:    e0b5        ..      B        0x1235a ; HAL_GPIO_SetPinFilter + 510
        0x000121ee:    f8d31224    ..$.    LDR      r1,[r3,#0x224]
        0x000121f2:    4308        .C      ORRS     r0,r0,r1
        0x000121f4:    f8c30224    ..$.    STR      r0,[r3,#0x224]
        0x000121f8:    e0af        ..      B        0x1235a ; HAL_GPIO_SetPinFilter + 510
        0x000121fa:    f8d31228    ..(.    LDR      r1,[r3,#0x228]
        0x000121fe:    4308        .C      ORRS     r0,r0,r1
        0x00012200:    f8c30228    ..(.    STR      r0,[r3,#0x228]
        0x00012204:    e0a9        ..      B        0x1235a ; HAL_GPIO_SetPinFilter + 510
        0x00012206:    f8d3122c    ..,.    LDR      r1,[r3,#0x22c]
        0x0001220a:    4308        .C      ORRS     r0,r0,r1
        0x0001220c:    f8c3022c    ..,.    STR      r0,[r3,#0x22c]
        0x00012210:    e0a3        ..      B        0x1235a ; HAL_GPIO_SetPinFilter + 510
        0x00012212:    f8d31230    ..0.    LDR      r1,[r3,#0x230]
        0x00012216:    4308        .C      ORRS     r0,r0,r1
        0x00012218:    f8c30230    ..0.    STR      r0,[r3,#0x230]
        0x0001221c:    e09d        ..      B        0x1235a ; HAL_GPIO_SetPinFilter + 510
        0x0001221e:    f8d31234    ..4.    LDR      r1,[r3,#0x234]
        0x00012222:    4308        .C      ORRS     r0,r0,r1
        0x00012224:    f8c30234    ..4.    STR      r0,[r3,#0x234]
        0x00012228:    e097        ..      B        0x1235a ; HAL_GPIO_SetPinFilter + 510
        0x0001222a:    b1f2        ..      CBZ      r2,0x1226a ; HAL_GPIO_SetPinFilter + 270
        0x0001222c:    2a01        .*      CMP      r2,#1
        0x0001222e:    bf08        ..      IT       EQ
        0x00012230:    0400        ..      LSLEQ    r0,r0,#16
        0x00012232:    d01a        ..      BEQ      0x1226a ; HAL_GPIO_SetPinFilter + 270
        0x00012234:    2a02        .*      CMP      r2,#2
        0x00012236:    d01f        ..      BEQ      0x12278 ; HAL_GPIO_SetPinFilter + 284
        0x00012238:    2a03        .*      CMP      r2,#3
        0x0001223a:    bf08        ..      IT       EQ
        0x0001223c:    0400        ..      LSLEQ    r0,r0,#16
        0x0001223e:    d01b        ..      BEQ      0x12278 ; HAL_GPIO_SetPinFilter + 284
        0x00012240:    2a04        .*      CMP      r2,#4
        0x00012242:    d020         .      BEQ      0x12286 ; HAL_GPIO_SetPinFilter + 298
        0x00012244:    2a05        .*      CMP      r2,#5
        0x00012246:    bf08        ..      IT       EQ
        0x00012248:    0400        ..      LSLEQ    r0,r0,#16
        0x0001224a:    d01c        ..      BEQ      0x12286 ; HAL_GPIO_SetPinFilter + 298
        0x0001224c:    2a06        .*      CMP      r2,#6
        0x0001224e:    d021        !.      BEQ      0x12294 ; HAL_GPIO_SetPinFilter + 312
        0x00012250:    2a07        .*      CMP      r2,#7
        0x00012252:    bf08        ..      IT       EQ
        0x00012254:    0400        ..      LSLEQ    r0,r0,#16
        0x00012256:    d01d        ..      BEQ      0x12294 ; HAL_GPIO_SetPinFilter + 312
        0x00012258:    2a08        .*      CMP      r2,#8
        0x0001225a:    d022        ".      BEQ      0x122a2 ; HAL_GPIO_SetPinFilter + 326
        0x0001225c:    2a09        .*      CMP      r2,#9
        0x0001225e:    bf08        ..      IT       EQ
        0x00012260:    0400        ..      LSLEQ    r0,r0,#16
        0x00012262:    d01e        ..      BEQ      0x122a2 ; HAL_GPIO_SetPinFilter + 326
        0x00012264:    2a0a        .*      CMP      r2,#0xa
        0x00012266:    d023        #.      BEQ      0x122b0 ; HAL_GPIO_SetPinFilter + 340
        0x00012268:    e028        (.      B        0x122bc ; HAL_GPIO_SetPinFilter + 352
        0x0001226a:    f8d3c220    .. .    LDR      r12,[r3,#0x220]
        0x0001226e:    ea2c0000    ,...    BIC      r0,r12,r0
        0x00012272:    f8c30220    .. .    STR      r0,[r3,#0x220]
        0x00012276:    e021        !.      B        0x122bc ; HAL_GPIO_SetPinFilter + 352
        0x00012278:    f8d3c224    ..$.    LDR      r12,[r3,#0x224]
        0x0001227c:    ea2c0000    ,...    BIC      r0,r12,r0
        0x00012280:    f8c30224    ..$.    STR      r0,[r3,#0x224]
        0x00012284:    e01a        ..      B        0x122bc ; HAL_GPIO_SetPinFilter + 352
        0x00012286:    f8d3c228    ..(.    LDR      r12,[r3,#0x228]
        0x0001228a:    ea2c0000    ,...    BIC      r0,r12,r0
        0x0001228e:    f8c30228    ..(.    STR      r0,[r3,#0x228]
        0x00012292:    e013        ..      B        0x122bc ; HAL_GPIO_SetPinFilter + 352
        0x00012294:    f8d3c22c    ..,.    LDR      r12,[r3,#0x22c]
        0x00012298:    ea2c0000    ,...    BIC      r0,r12,r0
        0x0001229c:    f8c3022c    ..,.    STR      r0,[r3,#0x22c]
        0x000122a0:    e00c        ..      B        0x122bc ; HAL_GPIO_SetPinFilter + 352
        0x000122a2:    f8d3c230    ..0.    LDR      r12,[r3,#0x230]
        0x000122a6:    ea2c0000    ,...    BIC      r0,r12,r0
        0x000122aa:    f8c30230    ..0.    STR      r0,[r3,#0x230]
        0x000122ae:    e005        ..      B        0x122bc ; HAL_GPIO_SetPinFilter + 352
        0x000122b0:    f8d3c234    ..4.    LDR      r12,[r3,#0x234]
        0x000122b4:    ea2c0000    ,...    BIC      r0,r12,r0
        0x000122b8:    f8c30234    ..4.    STR      r0,[r3,#0x234]
        0x000122bc:    f8d3c0c0    ....    LDR      r12,[r3,#0xc0]
        0x000122c0:    0050        P.      LSLS     r0,r2,#1
        0x000122c2:    2203        ."      MOVS     r2,#3
        0x000122c4:    4082        .@      LSLS     r2,r2,r0
        0x000122c6:    ea2c0202    ,...    BIC      r2,r12,r2
        0x000122ca:    f891c004    ....    LDRB     r12,[r1,#4]
        0x000122ce:    f00c0c03    ....    AND      r12,r12,#3
        0x000122d2:    fa0cf000    ....    LSL      r0,r12,r0
        0x000122d6:    4310        .C      ORRS     r0,r0,r2
        0x000122d8:    f8c300c0    ....    STR      r0,[r3,#0xc0]
        0x000122dc:    6808        .h      LDR      r0,[r1,#0]
        0x000122de:    2801        .(      CMP      r0,#1
        0x000122e0:    bf1c        ..      ITT      NE
        0x000122e2:    2000        .       MOVNE    r0,#0
        0x000122e4:    6008        .`      STRNE    r0,[r1,#0]
        0x000122e6:    780a        .x      LDRB     r2,[r1,#0]
        0x000122e8:    f8d300bc    ....    LDR      r0,[r3,#0xbc]
        0x000122ec:    f3620001    b...    BFI      r0,r2,#0,#2
        0x000122f0:    f8c300bc    ....    STR      r0,[r3,#0xbc]
        0x000122f4:    f8d300bc    ....    LDR      r0,[r3,#0xbc]
        0x000122f8:    f4403080    @..0    ORR      r0,r0,#0x10000
        0x000122fc:    f8c300bc    ....    STR      r0,[r3,#0xbc]
        0x00012300:    6848        Hh      LDR      r0,[r1,#4]
        0x00012302:    b120         .      CBZ      r0,0x1230e ; HAL_GPIO_SetPinFilter + 434
        0x00012304:    2801        .(      CMP      r0,#1
        0x00012306:    d00f        ..      BEQ      0x12328 ; HAL_GPIO_SetPinFilter + 460
        0x00012308:    2802        .(      CMP      r0,#2
        0x0001230a:    d01a        ..      BEQ      0x12342 ; HAL_GPIO_SetPinFilter + 486
        0x0001230c:    e025        %.      B        0x1235a ; HAL_GPIO_SetPinFilter + 510
        0x0001230e:    f8d300bc    ....    LDR      r0,[r3,#0xbc]
        0x00012312:    6889        .h      LDR      r1,[r1,#8]
        0x00012314:    f44f7240    O.@r    MOV      r2,#0x300
        0x00012318:    f420505c     .\P    BIC      r0,r0,#0x3700
        0x0001231c:    ea021101    ....    AND      r1,r2,r1,LSL #4
        0x00012320:    4308        .C      ORRS     r0,r0,r1
        0x00012322:    f8c300bc    ....    STR      r0,[r3,#0xbc]
        0x00012326:    e018        ..      B        0x1235a ; HAL_GPIO_SetPinFilter + 510
        0x00012328:    f8d300bc    ....    LDR      r0,[r3,#0xbc]
        0x0001232c:    6889        .h      LDR      r1,[r1,#8]
        0x0001232e:    f44f62e0    O..b    MOV      r2,#0x700
        0x00012332:    f420505c     .\P    BIC      r0,r0,#0x3700
        0x00012336:    ea022101    ...!    AND      r1,r2,r1,LSL #8
        0x0001233a:    4308        .C      ORRS     r0,r0,r1
        0x0001233c:    f8c300bc    ....    STR      r0,[r3,#0xbc]
        0x00012340:    e00b        ..      B        0x1235a ; HAL_GPIO_SetPinFilter + 510
        0x00012342:    f8d300bc    ....    LDR      r0,[r3,#0xbc]
        0x00012346:    6889        .h      LDR      r1,[r1,#8]
        0x00012348:    f44f5240    O.@R    MOV      r2,#0x3000
        0x0001234c:    f420505c     .\P    BIC      r0,r0,#0x3700
        0x00012350:    ea023101    ...1    AND      r1,r2,r1,LSL #12
        0x00012354:    4308        .C      ORRS     r0,r0,r1
        0x00012356:    f8c300bc    ....    STR      r0,[r3,#0xbc]
        0x0001235a:    bc10        ..      POP      {r4}
        0x0001235c:    2000        .       MOVS     r0,#0
        0x0001235e:    4770        pG      BX       lr
    $d
        0x00012360:    00019b3c    <...    DCD    105276
    $t
    .text
    HAL_Reset_Module
        0x00012364:    b510        ..      PUSH     {r4,lr}
        0x00012366:    4604        .F      MOV      r4,r0
        0x00012368:    48e0        .H      LDR      r0,[pc,#896] ; [0x126ec] = 0xc0019da8
        0x0001236a:    f7fdfffd    ....    BL       HAL_TryLock ; 0x10368
        0x0001236e:    2800        .(      CMP      r0,#0
        0x00012370:    bf18        ..      IT       NE
        0x00012372:    bd10        ..      POPNE    {r4,pc}
        0x00012374:    2c39        9,      CMP      r4,#0x39
        0x00012376:    f08081a7    ....    BCS.W    0x126c8 ; HAL_Reset_Module + 868
        0x0001237a:    e8dff004    ....    TBB      [pc,r4]
    $d
        0x0001237e:    231d        .#      DCW    8989
        0x00012380:    3b352f29    )/5;    DCD    993341225
        0x00012384:    5d4d4741    AGM]    DCD    1565345601
        0x00012388:    756f6963    ciou    DCD    1970235747
        0x0001238c:    8d87817b    {...    DCD    2374467963
        0x00012390:    ada7a19b    ....    DCD    2913444251
        0x00012394:    c6c0bab3    ....    DCD    3334519475
        0x00012398:    fcf6f0cc    ....    DCD    4244041932
        0x0001239c:    e9eaebec    ....    DCD    3924487148
        0x000123a0:    e5e6e7e8    ....    DCD    3857115112
        0x000123a4:    e1e2e3e4    ....    DCD    3789743076
        0x000123a8:    dddedfe0    ....    DCD    3722371040
        0x000123ac:    d9dadbdc    ....    DCD    3654999004
        0x000123b0:    d5d6d7d8    ....    DCD    3587626968
        0x000123b4:    00d2d3d4    ....    DCD    13816788
    $t
        0x000123b8:    f04f4080    O..@    MOV      r0,#0x40000000
        0x000123bc:    6f01        .o      LDR      r1,[r0,#0x70]
        0x000123be:    f0410101    A...    ORR      r1,r1,#1
        0x000123c2:    e094        ..      B        0x124ee ; HAL_Reset_Module + 394
        0x000123c4:    f04f4080    O..@    MOV      r0,#0x40000000
        0x000123c8:    6f01        .o      LDR      r1,[r0,#0x70]
        0x000123ca:    f0410102    A...    ORR      r1,r1,#2
        0x000123ce:    e08e        ..      B        0x124ee ; HAL_Reset_Module + 394
        0x000123d0:    f04f4080    O..@    MOV      r0,#0x40000000
        0x000123d4:    6f01        .o      LDR      r1,[r0,#0x70]
        0x000123d6:    f0410104    A...    ORR      r1,r1,#4
        0x000123da:    e088        ..      B        0x124ee ; HAL_Reset_Module + 394
        0x000123dc:    f04f4080    O..@    MOV      r0,#0x40000000
        0x000123e0:    6f01        .o      LDR      r1,[r0,#0x70]
        0x000123e2:    f0410108    A...    ORR      r1,r1,#8
        0x000123e6:    e082        ..      B        0x124ee ; HAL_Reset_Module + 394
        0x000123e8:    f04f4080    O..@    MOV      r0,#0x40000000
        0x000123ec:    6f01        .o      LDR      r1,[r0,#0x70]
        0x000123ee:    f0410110    A...    ORR      r1,r1,#0x10
        0x000123f2:    e07c        |.      B        0x124ee ; HAL_Reset_Module + 394
        0x000123f4:    f04f4080    O..@    MOV      r0,#0x40000000
        0x000123f8:    6f01        .o      LDR      r1,[r0,#0x70]
        0x000123fa:    f0410120    A. .    ORR      r1,r1,#0x20
        0x000123fe:    e076        v.      B        0x124ee ; HAL_Reset_Module + 394
        0x00012400:    f04f4080    O..@    MOV      r0,#0x40000000
        0x00012404:    6f01        .o      LDR      r1,[r0,#0x70]
        0x00012406:    f0410140    A.@.    ORR      r1,r1,#0x40
        0x0001240a:    e070        p.      B        0x124ee ; HAL_Reset_Module + 394
        0x0001240c:    f04f4080    O..@    MOV      r0,#0x40000000
        0x00012410:    6f01        .o      LDR      r1,[r0,#0x70]
        0x00012412:    f0410180    A...    ORR      r1,r1,#0x80
        0x00012416:    e06a        j.      B        0x124ee ; HAL_Reset_Module + 394
        0x00012418:    48b5        .H      LDR      r0,[pc,#724] ; [0x126f0] = 0x40009000
        0x0001241a:    6d81        .m      LDR      r1,[r0,#0x58]
        0x0001241c:    f0214100    !..A    BIC      r1,r1,#0x80000000
        0x00012420:    6581        .e      STR      r1,[r0,#0x58]
        0x00012422:    6d81        .m      LDR      r1,[r0,#0x58]
        0x00012424:    f0414100    A..A    ORR      r1,r1,#0x80000000
        0x00012428:    6581        .e      STR      r1,[r0,#0x58]
        0x0001242a:    0480        ..      LSLS     r0,r0,#18
        0x0001242c:    6841        Ah      LDR      r1,[r0,#4]
        0x0001242e:    f0110f40    ..@.    TST      r1,#0x40
        0x00012432:    d0fb        ..      BEQ      0x1242c ; HAL_Reset_Module + 200
        0x00012434:    f000b948    ..H.    B.W      0x126c8 ; HAL_Reset_Module + 868
        0x00012438:    f04f4080    O..@    MOV      r0,#0x40000000
        0x0001243c:    6f01        .o      LDR      r1,[r0,#0x70]
        0x0001243e:    f4417100    A..q    ORR      r1,r1,#0x200
        0x00012442:    e054        T.      B        0x124ee ; HAL_Reset_Module + 394
        0x00012444:    f04f4080    O..@    MOV      r0,#0x40000000
        0x00012448:    6f01        .o      LDR      r1,[r0,#0x70]
        0x0001244a:    f4416180    A..a    ORR      r1,r1,#0x400
        0x0001244e:    e04e        N.      B        0x124ee ; HAL_Reset_Module + 394
        0x00012450:    f04f4080    O..@    MOV      r0,#0x40000000
        0x00012454:    6f01        .o      LDR      r1,[r0,#0x70]
        0x00012456:    f4416100    A..a    ORR      r1,r1,#0x800
        0x0001245a:    e048        H.      B        0x124ee ; HAL_Reset_Module + 394
        0x0001245c:    f04f4080    O..@    MOV      r0,#0x40000000
        0x00012460:    6f01        .o      LDR      r1,[r0,#0x70]
        0x00012462:    f4415180    A..Q    ORR      r1,r1,#0x1000
        0x00012466:    e042        B.      B        0x124ee ; HAL_Reset_Module + 394
        0x00012468:    f04f4080    O..@    MOV      r0,#0x40000000
        0x0001246c:    6f01        .o      LDR      r1,[r0,#0x70]
        0x0001246e:    f4414180    A..A    ORR      r1,r1,#0x4000
        0x00012472:    e03c        <.      B        0x124ee ; HAL_Reset_Module + 394
        0x00012474:    f04f4080    O..@    MOV      r0,#0x40000000
        0x00012478:    6f01        .o      LDR      r1,[r0,#0x70]
        0x0001247a:    f4414100    A..A    ORR      r1,r1,#0x8000
        0x0001247e:    e036        6.      B        0x124ee ; HAL_Reset_Module + 394
        0x00012480:    f04f4080    O..@    MOV      r0,#0x40000000
        0x00012484:    6f01        .o      LDR      r1,[r0,#0x70]
        0x00012486:    f4413180    A..1    ORR      r1,r1,#0x10000
        0x0001248a:    e030        0.      B        0x124ee ; HAL_Reset_Module + 394
        0x0001248c:    f04f4080    O..@    MOV      r0,#0x40000000
        0x00012490:    6f01        .o      LDR      r1,[r0,#0x70]
        0x00012492:    f4413100    A..1    ORR      r1,r1,#0x20000
        0x00012496:    e02a        *.      B        0x124ee ; HAL_Reset_Module + 394
        0x00012498:    f04f4080    O..@    MOV      r0,#0x40000000
        0x0001249c:    6f01        .o      LDR      r1,[r0,#0x70]
        0x0001249e:    f4212180    !..!    BIC      r1,r1,#0x40000
        0x000124a2:    6701        .g      STR      r1,[r0,#0x70]
        0x000124a4:    6f01        .o      LDR      r1,[r0,#0x70]
        0x000124a6:    f4112f80    .../    TST      r1,#0x40000
        0x000124aa:    d1fb        ..      BNE      0x124a4 ; HAL_Reset_Module + 320
        0x000124ac:    6f01        .o      LDR      r1,[r0,#0x70]
        0x000124ae:    f4412180    A..!    ORR      r1,r1,#0x40000
        0x000124b2:    e01c        ..      B        0x124ee ; HAL_Reset_Module + 394
        0x000124b4:    f04f4080    O..@    MOV      r0,#0x40000000
        0x000124b8:    6f01        .o      LDR      r1,[r0,#0x70]
        0x000124ba:    f4412100    A..!    ORR      r1,r1,#0x80000
        0x000124be:    e016        ..      B        0x124ee ; HAL_Reset_Module + 394
        0x000124c0:    f04f4080    O..@    MOV      r0,#0x40000000
        0x000124c4:    6f01        .o      LDR      r1,[r0,#0x70]
        0x000124c6:    f0417180    A..q    ORR      r1,r1,#0x1000000
        0x000124ca:    e010        ..      B        0x124ee ; HAL_Reset_Module + 394
        0x000124cc:    f04f4080    O..@    MOV      r0,#0x40000000
        0x000124d0:    6f01        .o      LDR      r1,[r0,#0x70]
        0x000124d2:    f0417100    A..q    ORR      r1,r1,#0x2000000
        0x000124d6:    e00a        ..      B        0x124ee ; HAL_Reset_Module + 394
        0x000124d8:    f04f4080    O..@    MOV      r0,#0x40000000
        0x000124dc:    6f01        .o      LDR      r1,[r0,#0x70]
        0x000124de:    f0415180    A..Q    ORR      r1,r1,#0x10000000
        0x000124e2:    e004        ..      B        0x124ee ; HAL_Reset_Module + 394
        0x000124e4:    f04f4080    O..@    MOV      r0,#0x40000000
        0x000124e8:    6f01        .o      LDR      r1,[r0,#0x70]
        0x000124ea:    f0415100    A..Q    ORR      r1,r1,#0x20000000
        0x000124ee:    6701        .g      STR      r1,[r0,#0x70]
        0x000124f0:    e0ea        ..      B        0x126c8 ; HAL_Reset_Module + 868
        0x000124f2:    f04f4080    O..@    MOV      r0,#0x40000000
        0x000124f6:    6f41        Ao      LDR      r1,[r0,#0x74]
        0x000124f8:    f0410101    A...    ORR      r1,r1,#1
        0x000124fc:    e06a        j.      B        0x125d4 ; HAL_Reset_Module + 624
        0x000124fe:    f04f4080    O..@    MOV      r0,#0x40000000
        0x00012502:    6f41        Ao      LDR      r1,[r0,#0x74]
        0x00012504:    f0410102    A...    ORR      r1,r1,#2
        0x00012508:    e064        d.      B        0x125d4 ; HAL_Reset_Module + 624
        0x0001250a:    f04f4080    O..@    MOV      r0,#0x40000000
        0x0001250e:    6f41        Ao      LDR      r1,[r0,#0x74]
        0x00012510:    f0410104    A...    ORR      r1,r1,#4
        0x00012514:    e05e        ^.      B        0x125d4 ; HAL_Reset_Module + 624
        0x00012516:    f04f4080    O..@    MOV      r0,#0x40000000
        0x0001251a:    6f41        Ao      LDR      r1,[r0,#0x74]
        0x0001251c:    f0410108    A...    ORR      r1,r1,#8
        0x00012520:    e058        X.      B        0x125d4 ; HAL_Reset_Module + 624
        0x00012522:    e0cb        ..      B        0x126bc ; HAL_Reset_Module + 856
        0x00012524:    e0c4        ..      B        0x126b0 ; HAL_Reset_Module + 844
        0x00012526:    e0bd        ..      B        0x126a4 ; HAL_Reset_Module + 832
        0x00012528:    e0b6        ..      B        0x12698 ; HAL_Reset_Module + 820
        0x0001252a:    e0af        ..      B        0x1268c ; HAL_Reset_Module + 808
        0x0001252c:    e0a8        ..      B        0x12680 ; HAL_Reset_Module + 796
        0x0001252e:    e0a1        ..      B        0x12674 ; HAL_Reset_Module + 784
        0x00012530:    e09a        ..      B        0x12668 ; HAL_Reset_Module + 772
        0x00012532:    e093        ..      B        0x1265c ; HAL_Reset_Module + 760
        0x00012534:    e08c        ..      B        0x12650 ; HAL_Reset_Module + 748
        0x00012536:    e085        ..      B        0x12644 ; HAL_Reset_Module + 736
        0x00012538:    e07e        ~.      B        0x12638 ; HAL_Reset_Module + 724
        0x0001253a:    e077        w.      B        0x1262c ; HAL_Reset_Module + 712
        0x0001253c:    e070        p.      B        0x12620 ; HAL_Reset_Module + 700
        0x0001253e:    e069        i.      B        0x12614 ; HAL_Reset_Module + 688
        0x00012540:    e062        b.      B        0x12608 ; HAL_Reset_Module + 676
        0x00012542:    e05b        [.      B        0x125fc ; HAL_Reset_Module + 664
        0x00012544:    e054        T.      B        0x125f0 ; HAL_Reset_Module + 652
        0x00012546:    e04d        M.      B        0x125e4 ; HAL_Reset_Module + 640
        0x00012548:    e046        F.      B        0x125d8 ; HAL_Reset_Module + 628
        0x0001254a:    e03e        >.      B        0x125ca ; HAL_Reset_Module + 614
        0x0001254c:    e037        7.      B        0x125be ; HAL_Reset_Module + 602
        0x0001254e:    e030        0.      B        0x125b2 ; HAL_Reset_Module + 590
        0x00012550:    e029        ).      B        0x125a6 ; HAL_Reset_Module + 578
        0x00012552:    e022        ".      B        0x1259a ; HAL_Reset_Module + 566
        0x00012554:    e01b        ..      B        0x1258e ; HAL_Reset_Module + 554
        0x00012556:    e014        ..      B        0x12582 ; HAL_Reset_Module + 542
        0x00012558:    e00d        ..      B        0x12576 ; HAL_Reset_Module + 530
        0x0001255a:    e006        ..      B        0x1256a ; HAL_Reset_Module + 518
        0x0001255c:    e7ff        ..      B        0x1255e ; HAL_Reset_Module + 506
        0x0001255e:    f04f4080    O..@    MOV      r0,#0x40000000
        0x00012562:    6f41        Ao      LDR      r1,[r0,#0x74]
        0x00012564:    f0410110    A...    ORR      r1,r1,#0x10
        0x00012568:    e034        4.      B        0x125d4 ; HAL_Reset_Module + 624
        0x0001256a:    f04f4080    O..@    MOV      r0,#0x40000000
        0x0001256e:    6f41        Ao      LDR      r1,[r0,#0x74]
        0x00012570:    f0410120    A. .    ORR      r1,r1,#0x20
        0x00012574:    e02e        ..      B        0x125d4 ; HAL_Reset_Module + 624
        0x00012576:    f04f4080    O..@    MOV      r0,#0x40000000
        0x0001257a:    6f41        Ao      LDR      r1,[r0,#0x74]
        0x0001257c:    f4417180    A..q    ORR      r1,r1,#0x100
        0x00012580:    e028        (.      B        0x125d4 ; HAL_Reset_Module + 624
        0x00012582:    f04f4080    O..@    MOV      r0,#0x40000000
        0x00012586:    6f41        Ao      LDR      r1,[r0,#0x74]
        0x00012588:    f4417100    A..q    ORR      r1,r1,#0x200
        0x0001258c:    e022        ".      B        0x125d4 ; HAL_Reset_Module + 624
        0x0001258e:    f04f4080    O..@    MOV      r0,#0x40000000
        0x00012592:    6f41        Ao      LDR      r1,[r0,#0x74]
        0x00012594:    f4416180    A..a    ORR      r1,r1,#0x400
        0x00012598:    e01c        ..      B        0x125d4 ; HAL_Reset_Module + 624
        0x0001259a:    f04f4080    O..@    MOV      r0,#0x40000000
        0x0001259e:    6f41        Ao      LDR      r1,[r0,#0x74]
        0x000125a0:    f4413180    A..1    ORR      r1,r1,#0x10000
        0x000125a4:    e016        ..      B        0x125d4 ; HAL_Reset_Module + 624
        0x000125a6:    f04f4080    O..@    MOV      r0,#0x40000000
        0x000125aa:    6f41        Ao      LDR      r1,[r0,#0x74]
        0x000125ac:    f4413100    A..1    ORR      r1,r1,#0x20000
        0x000125b0:    e010        ..      B        0x125d4 ; HAL_Reset_Module + 624
        0x000125b2:    f04f4080    O..@    MOV      r0,#0x40000000
        0x000125b6:    6f41        Ao      LDR      r1,[r0,#0x74]
        0x000125b8:    f0417180    A..q    ORR      r1,r1,#0x1000000
        0x000125bc:    e00a        ..      B        0x125d4 ; HAL_Reset_Module + 624
        0x000125be:    f04f4080    O..@    MOV      r0,#0x40000000
        0x000125c2:    6f41        Ao      LDR      r1,[r0,#0x74]
        0x000125c4:    f0417100    A..q    ORR      r1,r1,#0x2000000
        0x000125c8:    e004        ..      B        0x125d4 ; HAL_Reset_Module + 624
        0x000125ca:    f04f4080    O..@    MOV      r0,#0x40000000
        0x000125ce:    6f41        Ao      LDR      r1,[r0,#0x74]
        0x000125d0:    f0415180    A..Q    ORR      r1,r1,#0x10000000
        0x000125d4:    6741        Ag      STR      r1,[r0,#0x74]
        0x000125d6:    e077        w.      B        0x126c8 ; HAL_Reset_Module + 868
        0x000125d8:    f04f4080    O..@    MOV      r0,#0x40000000
        0x000125dc:    6f81        .o      LDR      r1,[r0,#0x78]
        0x000125de:    f0410101    A...    ORR      r1,r1,#1
        0x000125e2:    e070        p.      B        0x126c6 ; HAL_Reset_Module + 866
        0x000125e4:    f04f4080    O..@    MOV      r0,#0x40000000
        0x000125e8:    6f81        .o      LDR      r1,[r0,#0x78]
        0x000125ea:    f0410102    A...    ORR      r1,r1,#2
        0x000125ee:    e06a        j.      B        0x126c6 ; HAL_Reset_Module + 866
        0x000125f0:    f04f4080    O..@    MOV      r0,#0x40000000
        0x000125f4:    6f81        .o      LDR      r1,[r0,#0x78]
        0x000125f6:    f0410104    A...    ORR      r1,r1,#4
        0x000125fa:    e064        d.      B        0x126c6 ; HAL_Reset_Module + 866
        0x000125fc:    f04f4080    O..@    MOV      r0,#0x40000000
        0x00012600:    6f81        .o      LDR      r1,[r0,#0x78]
        0x00012602:    f0410108    A...    ORR      r1,r1,#8
        0x00012606:    e05e        ^.      B        0x126c6 ; HAL_Reset_Module + 866
        0x00012608:    f04f4080    O..@    MOV      r0,#0x40000000
        0x0001260c:    6f81        .o      LDR      r1,[r0,#0x78]
        0x0001260e:    f0410110    A...    ORR      r1,r1,#0x10
        0x00012612:    e058        X.      B        0x126c6 ; HAL_Reset_Module + 866
        0x00012614:    f04f4080    O..@    MOV      r0,#0x40000000
        0x00012618:    6f81        .o      LDR      r1,[r0,#0x78]
        0x0001261a:    f0410120    A. .    ORR      r1,r1,#0x20
        0x0001261e:    e052        R.      B        0x126c6 ; HAL_Reset_Module + 866
        0x00012620:    f04f4080    O..@    MOV      r0,#0x40000000
        0x00012624:    6f81        .o      LDR      r1,[r0,#0x78]
        0x00012626:    f0410140    A.@.    ORR      r1,r1,#0x40
        0x0001262a:    e04c        L.      B        0x126c6 ; HAL_Reset_Module + 866
        0x0001262c:    f04f4080    O..@    MOV      r0,#0x40000000
        0x00012630:    6f81        .o      LDR      r1,[r0,#0x78]
        0x00012632:    f0410180    A...    ORR      r1,r1,#0x80
        0x00012636:    e046        F.      B        0x126c6 ; HAL_Reset_Module + 866
        0x00012638:    f04f4080    O..@    MOV      r0,#0x40000000
        0x0001263c:    6f81        .o      LDR      r1,[r0,#0x78]
        0x0001263e:    f4413180    A..1    ORR      r1,r1,#0x10000
        0x00012642:    e040        @.      B        0x126c6 ; HAL_Reset_Module + 866
        0x00012644:    f04f4080    O..@    MOV      r0,#0x40000000
        0x00012648:    6f81        .o      LDR      r1,[r0,#0x78]
        0x0001264a:    f4413100    A..1    ORR      r1,r1,#0x20000
        0x0001264e:    e03a        :.      B        0x126c6 ; HAL_Reset_Module + 866
        0x00012650:    f04f4080    O..@    MOV      r0,#0x40000000
        0x00012654:    6f81        .o      LDR      r1,[r0,#0x78]
        0x00012656:    f4412180    A..!    ORR      r1,r1,#0x40000
        0x0001265a:    e034        4.      B        0x126c6 ; HAL_Reset_Module + 866
        0x0001265c:    f04f4080    O..@    MOV      r0,#0x40000000
        0x00012660:    6f81        .o      LDR      r1,[r0,#0x78]
        0x00012662:    f4412100    A..!    ORR      r1,r1,#0x80000
        0x00012666:    e02e        ..      B        0x126c6 ; HAL_Reset_Module + 866
        0x00012668:    f04f4080    O..@    MOV      r0,#0x40000000
        0x0001266c:    6f81        .o      LDR      r1,[r0,#0x78]
        0x0001266e:    f4411180    A...    ORR      r1,r1,#0x100000
        0x00012672:    e028        (.      B        0x126c6 ; HAL_Reset_Module + 866
        0x00012674:    f04f4080    O..@    MOV      r0,#0x40000000
        0x00012678:    6f81        .o      LDR      r1,[r0,#0x78]
        0x0001267a:    f4411100    A...    ORR      r1,r1,#0x200000
        0x0001267e:    e022        ".      B        0x126c6 ; HAL_Reset_Module + 866
        0x00012680:    f04f4080    O..@    MOV      r0,#0x40000000
        0x00012684:    6f81        .o      LDR      r1,[r0,#0x78]
        0x00012686:    f4410180    A...    ORR      r1,r1,#0x400000
        0x0001268a:    e01c        ..      B        0x126c6 ; HAL_Reset_Module + 866
        0x0001268c:    f04f4080    O..@    MOV      r0,#0x40000000
        0x00012690:    6f81        .o      LDR      r1,[r0,#0x78]
        0x00012692:    f4410100    A...    ORR      r1,r1,#0x800000
        0x00012696:    e016        ..      B        0x126c6 ; HAL_Reset_Module + 866
        0x00012698:    f04f4080    O..@    MOV      r0,#0x40000000
        0x0001269c:    6f81        .o      LDR      r1,[r0,#0x78]
        0x0001269e:    f0417180    A..q    ORR      r1,r1,#0x1000000
        0x000126a2:    e010        ..      B        0x126c6 ; HAL_Reset_Module + 866
        0x000126a4:    f04f4080    O..@    MOV      r0,#0x40000000
        0x000126a8:    6f81        .o      LDR      r1,[r0,#0x78]
        0x000126aa:    f0417100    A..q    ORR      r1,r1,#0x2000000
        0x000126ae:    e00a        ..      B        0x126c6 ; HAL_Reset_Module + 866
        0x000126b0:    f04f4080    O..@    MOV      r0,#0x40000000
        0x000126b4:    6f81        .o      LDR      r1,[r0,#0x78]
        0x000126b6:    f0416180    A..a    ORR      r1,r1,#0x4000000
        0x000126ba:    e004        ..      B        0x126c6 ; HAL_Reset_Module + 866
        0x000126bc:    f04f4080    O..@    MOV      r0,#0x40000000
        0x000126c0:    6f81        .o      LDR      r1,[r0,#0x78]
        0x000126c2:    f0416100    A..a    ORR      r1,r1,#0x8000000
        0x000126c6:    6781        .g      STR      r1,[r0,#0x78]
        0x000126c8:    4808        .H      LDR      r0,[pc,#32] ; [0x126ec] = 0xc0019da8
        0x000126ca:    f7fdfe5c    ..\.    BL       HAL_UnLock ; 0x10386
        0x000126ce:    2000        .       MOVS     r0,#0
        0x000126d0:    bd10        ..      POP      {r4,pc}
    HAL_Reset_ClearRestCause
        0x000126d2:    b510        ..      PUSH     {r4,lr}
        0x000126d4:    4604        .F      MOV      r4,r0
        0x000126d6:    4807        .H      LDR      r0,[pc,#28] ; [0x126f4] = 0xc0019da9
        0x000126d8:    f7fdfe46    ..F.    BL       HAL_TryLock ; 0x10368
        0x000126dc:    f04f4080    O..@    MOV      r0,#0x40000000
        0x000126e0:    6044        D`      STR      r4,[r0,#4]
        0x000126e2:    4804        .H      LDR      r0,[pc,#16] ; [0x126f4] = 0xc0019da9
        0x000126e4:    f7fdfe4f    ..O.    BL       HAL_UnLock ; 0x10386
        0x000126e8:    2000        .       MOVS     r0,#0
        0x000126ea:    bd10        ..      POP      {r4,pc}
    $d
        0x000126ec:    c0019da8    ....    DCD    3221331368
        0x000126f0:    40009000    ...@    DCD    1073778688
        0x000126f4:    c0019da9    ....    DCD    3221331369
    $t
    .text
    HAL_CLOCK_WaitForStable
        0x000126f8:    f04f4180    O..A    MOV      r1,#0x40000000
        0x000126fc:    f8d111a4    ....    LDR      r1,[r1,#0x1a4]
        0x00012700:    4008        .@      ANDS     r0,r0,r1
        0x00012702:    4770        pG      BX       lr
    HAL_CLOCK_SYSCLKConfig
        0x00012704:    b570        p.      PUSH     {r4-r6,lr}
        0x00012706:    4605        .F      MOV      r5,r0
        0x00012708:    7800        .x      LDRB     r0,[r0,#0]
        0x0001270a:    f04f4480    O..D    MOV      r4,#0x40000000
        0x0001270e:    b980        ..      CBNZ     r0,0x12732 ; HAL_CLOCK_SYSCLKConfig + 46
        0x00012710:    f8d401a4    ....    LDR      r0,[r4,#0x1a4]
        0x00012714:    f0100f01    ....    TST      r0,#1
        0x00012718:    d17e        ~.      BNE      0x12818 ; HAL_CLOCK_SYSCLKConfig + 276
        0x0001271a:    f8d40170    ..p.    LDR      r0,[r4,#0x170]
        0x0001271e:    f0400001    @...    ORR      r0,r0,#1
        0x00012722:    f8c40170    ..p.    STR      r0,[r4,#0x170]
        0x00012726:    bf00        ..      NOP      
        0x00012728:    f8d401a4    ....    LDR      r0,[r4,#0x1a4]
        0x0001272c:    f0100f01    ....    TST      r0,#1
        0x00012730:    d0fa        ..      BEQ      0x12728 ; HAL_CLOCK_SYSCLKConfig + 36
        0x00012732:    7828        (x      LDRB     r0,[r5,#0]
        0x00012734:    2801        .(      CMP      r0,#1
        0x00012736:    d10c        ..      BNE      0x12752 ; HAL_CLOCK_SYSCLKConfig + 78
        0x00012738:    f8d401a4    ....    LDR      r0,[r4,#0x1a4]
        0x0001273c:    f0100f04    ....    TST      r0,#4
        0x00012740:    d16a        j.      BNE      0x12818 ; HAL_CLOCK_SYSCLKConfig + 276
        0x00012742:    2001        .       MOVS     r0,#1
        0x00012744:    f001f89e    ....    BL       HAL_CLOCK_HOSCcmd ; 0x13884
        0x00012748:    f8d401a4    ....    LDR      r0,[r4,#0x1a4]
        0x0001274c:    f0100f04    ....    TST      r0,#4
        0x00012750:    d0fa        ..      BEQ      0x12748 ; HAL_CLOCK_SYSCLKConfig + 68
        0x00012752:    7828        (x      LDRB     r0,[r5,#0]
        0x00012754:    2803        .(      CMP      r0,#3
        0x00012756:    d11d        ..      BNE      0x12794 ; HAL_CLOCK_SYSCLKConfig + 144
        0x00012758:    f8d401a4    ....    LDR      r0,[r4,#0x1a4]
        0x0001275c:    f0100f10    ....    TST      r0,#0x10
        0x00012760:    d113        ..      BNE      0x1278a ; HAL_CLOCK_SYSCLKConfig + 134
        0x00012762:    f8d40180    ....    LDR      r0,[r4,#0x180]
        0x00012766:    f4207040     .@p    BIC      r0,r0,#0x300
        0x0001276a:    f4407080    @..p    ORR      r0,r0,#0x100
        0x0001276e:    f8c40180    ....    STR      r0,[r4,#0x180]
        0x00012772:    f8d40180    ....    LDR      r0,[r4,#0x180]
        0x00012776:    f0200030     .0.    BIC      r0,r0,#0x30
        0x0001277a:    f8c40180    ....    STR      r0,[r4,#0x180]
        0x0001277e:    f8d40180    ....    LDR      r0,[r4,#0x180]
        0x00012782:    f0400001    @...    ORR      r0,r0,#1
        0x00012786:    f8c40180    ....    STR      r0,[r4,#0x180]
        0x0001278a:    f8d401a4    ....    LDR      r0,[r4,#0x1a4]
        0x0001278e:    f0100f10    ....    TST      r0,#0x10
        0x00012792:    d0fa        ..      BEQ      0x1278a ; HAL_CLOCK_SYSCLKConfig + 134
        0x00012794:    7828        (x      LDRB     r0,[r5,#0]
        0x00012796:    2804        .(      CMP      r0,#4
        0x00012798:    d11d        ..      BNE      0x127d6 ; HAL_CLOCK_SYSCLKConfig + 210
        0x0001279a:    f8d401a4    ....    LDR      r0,[r4,#0x1a4]
        0x0001279e:    f0100f20    .. .    TST      r0,#0x20
        0x000127a2:    d113        ..      BNE      0x127cc ; HAL_CLOCK_SYSCLKConfig + 200
        0x000127a4:    f8d40188    ....    LDR      r0,[r4,#0x188]
        0x000127a8:    f4207040     .@p    BIC      r0,r0,#0x300
        0x000127ac:    f4407080    @..p    ORR      r0,r0,#0x100
        0x000127b0:    f8c40188    ....    STR      r0,[r4,#0x188]
        0x000127b4:    f8d40188    ....    LDR      r0,[r4,#0x188]
        0x000127b8:    f0200030     .0.    BIC      r0,r0,#0x30
        0x000127bc:    f8c40188    ....    STR      r0,[r4,#0x188]
        0x000127c0:    f8d40188    ....    LDR      r0,[r4,#0x188]
        0x000127c4:    f0400001    @...    ORR      r0,r0,#1
        0x000127c8:    f8c40188    ....    STR      r0,[r4,#0x188]
        0x000127cc:    f8d401a4    ....    LDR      r0,[r4,#0x1a4]
        0x000127d0:    f0100f20    .. .    TST      r0,#0x20
        0x000127d4:    d0fa        ..      BEQ      0x127cc ; HAL_CLOCK_SYSCLKConfig + 200
        0x000127d6:    7828        (x      LDRB     r0,[r5,#0]
        0x000127d8:    2802        .(      CMP      r0,#2
        0x000127da:    d11f        ..      BNE      0x1281c ; HAL_CLOCK_SYSCLKConfig + 280
        0x000127dc:    f8d401a4    ....    LDR      r0,[r4,#0x1a4]
        0x000127e0:    f0100f20    .. .    TST      r0,#0x20
        0x000127e4:    d113        ..      BNE      0x1280e ; HAL_CLOCK_SYSCLKConfig + 266
        0x000127e6:    f8d40188    ....    LDR      r0,[r4,#0x188]
        0x000127ea:    f4207040     .@p    BIC      r0,r0,#0x300
        0x000127ee:    f4407080    @..p    ORR      r0,r0,#0x100
        0x000127f2:    f8c40188    ....    STR      r0,[r4,#0x188]
        0x000127f6:    f8d40188    ....    LDR      r0,[r4,#0x188]
        0x000127fa:    f0200030     .0.    BIC      r0,r0,#0x30
        0x000127fe:    f8c40188    ....    STR      r0,[r4,#0x188]
        0x00012802:    f8d40188    ....    LDR      r0,[r4,#0x188]
        0x00012806:    f0400001    @...    ORR      r0,r0,#1
        0x0001280a:    f8c40188    ....    STR      r0,[r4,#0x188]
        0x0001280e:    f8d401a4    ....    LDR      r0,[r4,#0x1a4]
        0x00012812:    f0100f20    .. .    TST      r0,#0x20
        0x00012816:    e000        ..      B        0x1281a ; HAL_CLOCK_SYSCLKConfig + 278
        0x00012818:    e021        !.      B        0x1285e ; HAL_CLOCK_SYSCLKConfig + 346
        0x0001281a:    d0f8        ..      BEQ      0x1280e ; HAL_CLOCK_SYSCLKConfig + 266
        0x0001281c:    7828        (x      LDRB     r0,[r5,#0]
        0x0001281e:    2805        .(      CMP      r0,#5
        0x00012820:    d11d        ..      BNE      0x1285e ; HAL_CLOCK_SYSCLKConfig + 346
        0x00012822:    f8d401a4    ....    LDR      r0,[r4,#0x1a4]
        0x00012826:    f0100f80    ....    TST      r0,#0x80
        0x0001282a:    d113        ..      BNE      0x12854 ; HAL_CLOCK_SYSCLKConfig + 336
        0x0001282c:    f8d40198    ....    LDR      r0,[r4,#0x198]
        0x00012830:    f4207040     .@p    BIC      r0,r0,#0x300
        0x00012834:    f4407080    @..p    ORR      r0,r0,#0x100
        0x00012838:    f8c40198    ....    STR      r0,[r4,#0x198]
        0x0001283c:    f8d40198    ....    LDR      r0,[r4,#0x198]
        0x00012840:    f0200030     .0.    BIC      r0,r0,#0x30
        0x00012844:    f8c40198    ....    STR      r0,[r4,#0x198]
        0x00012848:    f8d40198    ....    LDR      r0,[r4,#0x198]
        0x0001284c:    f0400001    @...    ORR      r0,r0,#1
        0x00012850:    f8c40198    ....    STR      r0,[r4,#0x198]
        0x00012854:    f8d401a4    ....    LDR      r0,[r4,#0x1a4]
        0x00012858:    f0100f80    ....    TST      r0,#0x80
        0x0001285c:    d0fa        ..      BEQ      0x12854 ; HAL_CLOCK_SYSCLKConfig + 336
        0x0001285e:    f8d40090    ....    LDR      r0,[r4,#0x90]
        0x00012862:    8869        i.      LDRH     r1,[r5,#2]
        0x00012864:    f36f100c    o...    BFC      r0,#4,#9
        0x00012868:    ea401001    @...    ORR      r0,r0,r1,LSL #4
        0x0001286c:    f8c40090    ....    STR      r0,[r4,#0x90]
        0x00012870:    f8d40090    ....    LDR      r0,[r4,#0x90]
        0x00012874:    7829        )x      LDRB     r1,[r5,#0]
        0x00012876:    f0200007     ...    BIC      r0,r0,#7
        0x0001287a:    4308        .C      ORRS     r0,r0,r1
        0x0001287c:    f8c40090    ....    STR      r0,[r4,#0x90]
        0x00012880:    f8d40090    ....    LDR      r0,[r4,#0x90]
        0x00012884:    f4101f80    ....    TST      r0,#0x100000
        0x00012888:    bf08        ..      IT       EQ
        0x0001288a:    bd70        p.      POPEQ    {r4-r6,pc}
        0x0001288c:    f8d40090    ....    LDR      r0,[r4,#0x90]
        0x00012890:    f4401080    @...    ORR      r0,r0,#0x100000
        0x00012894:    f8c40090    ....    STR      r0,[r4,#0x90]
        0x00012898:    f8d40090    ....    LDR      r0,[r4,#0x90]
        0x0001289c:    7829        )x      LDRB     r1,[r5,#0]
        0x0001289e:    f0200007     ...    BIC      r0,r0,#7
        0x000128a2:    4308        .C      ORRS     r0,r0,r1
        0x000128a4:    f8c40090    ....    STR      r0,[r4,#0x90]
        0x000128a8:    f8d40090    ....    LDR      r0,[r4,#0x90]
        0x000128ac:    f4101f80    ....    TST      r0,#0x100000
        0x000128b0:    d1ec        ..      BNE      0x1288c ; HAL_CLOCK_SYSCLKConfig + 392
        0x000128b2:    bd70        p.      POP      {r4-r6,pc}
    HAL_CLOCK_DeInit
        0x000128b4:    b538        8.      PUSH     {r3-r5,lr}
        0x000128b6:    2000        .       MOVS     r0,#0
        0x000128b8:    f88d0000    ....    STRB     r0,[sp,#0]
        0x000128bc:    f04f4480    O..D    MOV      r4,#0x40000000
        0x000128c0:    f8ad0002    ....    STRH     r0,[sp,#2]
        0x000128c4:    f8d40170    ..p.    LDR      r0,[r4,#0x170]
        0x000128c8:    f0400001    @...    ORR      r0,r0,#1
        0x000128cc:    f8c40170    ..p.    STR      r0,[r4,#0x170]
        0x000128d0:    f8d401a4    ....    LDR      r0,[r4,#0x1a4]
        0x000128d4:    f0100f01    ....    TST      r0,#1
        0x000128d8:    d0fa        ..      BEQ      0x128d0 ; HAL_CLOCK_DeInit + 28
        0x000128da:    4668        hF      MOV      r0,sp
        0x000128dc:    f7ffff12    ....    BL       HAL_CLOCK_SYSCLKConfig ; 0x12704
        0x000128e0:    2000        .       MOVS     r0,#0
        0x000128e2:    f000ffcf    ....    BL       HAL_CLOCK_HOSCcmd ; 0x13884
        0x000128e6:    2000        .       MOVS     r0,#0
        0x000128e8:    f000ffa1    ....    BL       HAL_CLOCK_LOSCcmd ; 0x1382e
        0x000128ec:    f8d40180    ....    LDR      r0,[r4,#0x180]
        0x000128f0:    f4207040     .@p    BIC      r0,r0,#0x300
        0x000128f4:    f4407080    @..p    ORR      r0,r0,#0x100
        0x000128f8:    f8c40180    ....    STR      r0,[r4,#0x180]
        0x000128fc:    f8d40180    ....    LDR      r0,[r4,#0x180]
        0x00012900:    f0200030     .0.    BIC      r0,r0,#0x30
        0x00012904:    f8c40180    ....    STR      r0,[r4,#0x180]
        0x00012908:    f8d40180    ....    LDR      r0,[r4,#0x180]
        0x0001290c:    f0200001     ...    BIC      r0,r0,#1
        0x00012910:    f8c40180    ....    STR      r0,[r4,#0x180]
        0x00012914:    f8d40188    ....    LDR      r0,[r4,#0x188]
        0x00012918:    f4207040     .@p    BIC      r0,r0,#0x300
        0x0001291c:    f4407080    @..p    ORR      r0,r0,#0x100
        0x00012920:    f8c40188    ....    STR      r0,[r4,#0x188]
        0x00012924:    f8d40188    ....    LDR      r0,[r4,#0x188]
        0x00012928:    f0200030     .0.    BIC      r0,r0,#0x30
        0x0001292c:    f8c40188    ....    STR      r0,[r4,#0x188]
        0x00012930:    f8d40188    ....    LDR      r0,[r4,#0x188]
        0x00012934:    f0200001     ...    BIC      r0,r0,#1
        0x00012938:    f8c40188    ....    STR      r0,[r4,#0x188]
        0x0001293c:    f8d40190    ....    LDR      r0,[r4,#0x190]
        0x00012940:    f4207040     .@p    BIC      r0,r0,#0x300
        0x00012944:    f4407080    @..p    ORR      r0,r0,#0x100
        0x00012948:    f8c40190    ....    STR      r0,[r4,#0x190]
        0x0001294c:    f8d40190    ....    LDR      r0,[r4,#0x190]
        0x00012950:    f0200030     .0.    BIC      r0,r0,#0x30
        0x00012954:    f8c40190    ....    STR      r0,[r4,#0x190]
        0x00012958:    f8d40190    ....    LDR      r0,[r4,#0x190]
        0x0001295c:    f0200001     ...    BIC      r0,r0,#1
        0x00012960:    f8c40190    ....    STR      r0,[r4,#0x190]
        0x00012964:    f8d40198    ....    LDR      r0,[r4,#0x198]
        0x00012968:    f4207040     .@p    BIC      r0,r0,#0x300
        0x0001296c:    f4407080    @..p    ORR      r0,r0,#0x100
        0x00012970:    f8c40198    ....    STR      r0,[r4,#0x198]
        0x00012974:    f8d40198    ....    LDR      r0,[r4,#0x198]
        0x00012978:    f0200030     .0.    BIC      r0,r0,#0x30
        0x0001297c:    f8c40198    ....    STR      r0,[r4,#0x198]
        0x00012980:    f8d40198    ....    LDR      r0,[r4,#0x198]
        0x00012984:    f0200001     ...    BIC      r0,r0,#1
        0x00012988:    f8c40198    ....    STR      r0,[r4,#0x198]
        0x0001298c:    bd38        8.      POP      {r3-r5,pc}
    HAL_CLOCK_AdjustPLLDefaultDiv
        0x0001298e:    b410        ..      PUSH     {r4}
        0x00012990:    f04f4c80    O..L    MOV      r12,#0x40000000
        0x00012994:    b130        0.      CBZ      r0,0x129a4 ; HAL_CLOCK_AdjustPLLDefaultDiv + 22
        0x00012996:    f8dc4184    ...A    LDR      r4,[r12,#0x184]
        0x0001299a:    f02404ff    $...    BIC      r4,r4,#0xff
        0x0001299e:    4320         C      ORRS     r0,r0,r4
        0x000129a0:    f8cc0184    ....    STR      r0,[r12,#0x184]
        0x000129a4:    b139        9.      CBZ      r1,0x129b6 ; HAL_CLOCK_AdjustPLLDefaultDiv + 40
        0x000129a6:    f8dc0184    ....    LDR      r0,[r12,#0x184]
        0x000129aa:    f420407f     ..@    BIC      r0,r0,#0xff00
        0x000129ae:    ea402001    @..     ORR      r0,r0,r1,LSL #8
        0x000129b2:    f8cc0184    ....    STR      r0,[r12,#0x184]
        0x000129b6:    b13a        :.      CBZ      r2,0x129c8 ; HAL_CLOCK_AdjustPLLDefaultDiv + 58
        0x000129b8:    f8dc0184    ....    LDR      r0,[r12,#0x184]
        0x000129bc:    f420007f     ...    BIC      r0,r0,#0xff0000
        0x000129c0:    ea404002    @..@    ORR      r0,r0,r2,LSL #16
        0x000129c4:    f8cc0184    ....    STR      r0,[r12,#0x184]
        0x000129c8:    2b00        .+      CMP      r3,#0
        0x000129ca:    bf04        ..      ITT      EQ
        0x000129cc:    bc10        ..      POPEQ    {r4}
        0x000129ce:    4770        pG      BXEQ     lr
        0x000129d0:    f8dc0184    ....    LDR      r0,[r12,#0x184]
        0x000129d4:    f363601f    c..`    BFI      r0,r3,#24,#8
        0x000129d8:    f8cc0184    ....    STR      r0,[r12,#0x184]
        0x000129dc:    bc10        ..      POP      {r4}
        0x000129de:    4770        pG      BX       lr
    HAL_CLOCK_AdjustPLLsDefaultDivM
        0x000129e0:    f04f4180    O..A    MOV      r1,#0x40000000
        0x000129e4:    f8d121a0    ...!    LDR      r2,[r1,#0x1a0]
        0x000129e8:    f4226270    ".pb    BIC      r2,r2,#0xf00
        0x000129ec:    ea422000    B..     ORR      r0,r2,r0,LSL #8
        0x000129f0:    f8c101a0    ....    STR      r0,[r1,#0x1a0]
        0x000129f4:    4770        pG      BX       lr
    HAL_CLOCK_PLLsReferenceClock
        0x000129f6:    b570        p.      PUSH     {r4-r6,lr}
        0x000129f8:    f04f4480    O..D    MOV      r4,#0x40000000
        0x000129fc:    0005        ..      MOVS     r5,r0
        0x000129fe:    f8d401a4    ....    LDR      r0,[r4,#0x1a4]
        0x00012a02:    d003        ..      BEQ      0x12a0c ; HAL_CLOCK_PLLsReferenceClock + 22
        0x00012a04:    f0100f04    ....    TST      r0,#4
        0x00012a08:    d010        ..      BEQ      0x12a2c ; HAL_CLOCK_PLLsReferenceClock + 54
        0x00012a0a:    e018        ..      B        0x12a3e ; HAL_CLOCK_PLLsReferenceClock + 72
        0x00012a0c:    f0100f01    ....    TST      r0,#1
        0x00012a10:    d115        ..      BNE      0x12a3e ; HAL_CLOCK_PLLsReferenceClock + 72
        0x00012a12:    f8d40170    ..p.    LDR      r0,[r4,#0x170]
        0x00012a16:    f0400001    @...    ORR      r0,r0,#1
        0x00012a1a:    f8c40170    ..p.    STR      r0,[r4,#0x170]
        0x00012a1e:    bf00        ..      NOP      
        0x00012a20:    f8d411a4    ....    LDR      r1,[r4,#0x1a4]
        0x00012a24:    f0110f01    ....    TST      r1,#1
        0x00012a28:    d0fa        ..      BEQ      0x12a20 ; HAL_CLOCK_PLLsReferenceClock + 42
        0x00012a2a:    e008        ..      B        0x12a3e ; HAL_CLOCK_PLLsReferenceClock + 72
        0x00012a2c:    2001        .       MOVS     r0,#1
        0x00012a2e:    f000ff29    ..).    BL       HAL_CLOCK_HOSCcmd ; 0x13884
        0x00012a32:    bf00        ..      NOP      
        0x00012a34:    f8d401a4    ....    LDR      r0,[r4,#0x1a4]
        0x00012a38:    f0100f04    ....    TST      r0,#4
        0x00012a3c:    d0fa        ..      BEQ      0x12a34 ; HAL_CLOCK_PLLsReferenceClock + 62
        0x00012a3e:    f8d401a0    ....    LDR      r0,[r4,#0x1a0]
        0x00012a42:    f0200003     ...    BIC      r0,r0,#3
        0x00012a46:    4328        (C      ORRS     r0,r0,r5
        0x00012a48:    f8c401a0    ....    STR      r0,[r4,#0x1a0]
        0x00012a4c:    bd70        p.      POP      {r4-r6,pc}
    HAL_CLOCK_AdjustPLLKDPDefaultDiv
        0x00012a4e:    b410        ..      PUSH     {r4}
        0x00012a50:    f04f4c80    O..L    MOV      r12,#0x40000000
        0x00012a54:    b130        0.      CBZ      r0,0x12a64 ; HAL_CLOCK_AdjustPLLKDPDefaultDiv + 22
        0x00012a56:    f8dc418c    ...A    LDR      r4,[r12,#0x18c]
        0x00012a5a:    f02404ff    $...    BIC      r4,r4,#0xff
        0x00012a5e:    4320         C      ORRS     r0,r0,r4
        0x00012a60:    f8cc018c    ....    STR      r0,[r12,#0x18c]
        0x00012a64:    b139        9.      CBZ      r1,0x12a76 ; HAL_CLOCK_AdjustPLLKDPDefaultDiv + 40
        0x00012a66:    f8dc018c    ....    LDR      r0,[r12,#0x18c]
        0x00012a6a:    f420407f     ..@    BIC      r0,r0,#0xff00
        0x00012a6e:    ea402001    @..     ORR      r0,r0,r1,LSL #8
        0x00012a72:    f8cc018c    ....    STR      r0,[r12,#0x18c]
        0x00012a76:    b13a        :.      CBZ      r2,0x12a88 ; HAL_CLOCK_AdjustPLLKDPDefaultDiv + 58
        0x00012a78:    f8dc018c    ....    LDR      r0,[r12,#0x18c]
        0x00012a7c:    f420007f     ...    BIC      r0,r0,#0xff0000
        0x00012a80:    ea404002    @..@    ORR      r0,r0,r2,LSL #16
        0x00012a84:    f8cc018c    ....    STR      r0,[r12,#0x18c]
        0x00012a88:    2b00        .+      CMP      r3,#0
        0x00012a8a:    bf04        ..      ITT      EQ
        0x00012a8c:    bc10        ..      POPEQ    {r4}
        0x00012a8e:    4770        pG      BXEQ     lr
        0x00012a90:    f8dc0188    ....    LDR      r0,[r12,#0x188]
        0x00012a94:    f36f4018    o..@    BFC      r0,#16,#9
        0x00012a98:    ea404003    @..@    ORR      r0,r0,r3,LSL #16
        0x00012a9c:    f8cc0188    ....    STR      r0,[r12,#0x188]
        0x00012aa0:    bc10        ..      POP      {r4}
        0x00012aa2:    4770        pG      BX       lr
    HAL_CLOCK_AdjustPLLI2SDefaultDiv
        0x00012aa4:    061b        ..      LSLS     r3,r3,#24
        0x00012aa6:    ea434202    C..B    ORR      r2,r3,r2,LSL #16
        0x00012aaa:    ea422101    B..!    ORR      r1,r2,r1,LSL #8
        0x00012aae:    4308        .C      ORRS     r0,r0,r1
        0x00012ab0:    f04f4180    O..A    MOV      r1,#0x40000000
        0x00012ab4:    f8c10194    ....    STR      r0,[r1,#0x194]
        0x00012ab8:    4770        pG      BX       lr
    HAL_CLOCK_AdjustPLLSAIDefaultDiv
        0x00012aba:    b410        ..      PUSH     {r4}
        0x00012abc:    f04f4c80    O..L    MOV      r12,#0x40000000
        0x00012ac0:    b130        0.      CBZ      r0,0x12ad0 ; HAL_CLOCK_AdjustPLLSAIDefaultDiv + 22
        0x00012ac2:    f8dc419c    ...A    LDR      r4,[r12,#0x19c]
        0x00012ac6:    f02404ff    $...    BIC      r4,r4,#0xff
        0x00012aca:    4320         C      ORRS     r0,r0,r4
        0x00012acc:    f8cc019c    ....    STR      r0,[r12,#0x19c]
        0x00012ad0:    b139        9.      CBZ      r1,0x12ae2 ; HAL_CLOCK_AdjustPLLSAIDefaultDiv + 40
        0x00012ad2:    f8dc019c    ....    LDR      r0,[r12,#0x19c]
        0x00012ad6:    f420407f     ..@    BIC      r0,r0,#0xff00
        0x00012ada:    ea402001    @..     ORR      r0,r0,r1,LSL #8
        0x00012ade:    f8cc019c    ....    STR      r0,[r12,#0x19c]
        0x00012ae2:    b13a        :.      CBZ      r2,0x12af4 ; HAL_CLOCK_AdjustPLLSAIDefaultDiv + 58
        0x00012ae4:    f8dc019c    ....    LDR      r0,[r12,#0x19c]
        0x00012ae8:    f420007f     ...    BIC      r0,r0,#0xff0000
        0x00012aec:    ea404002    @..@    ORR      r0,r0,r2,LSL #16
        0x00012af0:    f8cc019c    ....    STR      r0,[r12,#0x19c]
        0x00012af4:    2b00        .+      CMP      r3,#0
        0x00012af6:    bf04        ..      ITT      EQ
        0x00012af8:    bc10        ..      POPEQ    {r4}
        0x00012afa:    4770        pG      BXEQ     lr
        0x00012afc:    f8dc019c    ....    LDR      r0,[r12,#0x19c]
        0x00012b00:    f363601f    c..`    BFI      r0,r3,#24,#8
        0x00012b04:    f8cc019c    ....    STR      r0,[r12,#0x19c]
        0x00012b08:    bc10        ..      POP      {r4}
        0x00012b0a:    4770        pG      BX       lr
    HAL_CLOCK_ClockCmd
        0x00012b0c:    f04f4280    O..B    MOV      r2,#0x40000000
        0x00012b10:    2810        .(      CMP      r0,#0x10
        0x00012b12:    d034        4.      BEQ      0x12b7e ; HAL_CLOCK_ClockCmd + 114
        0x00012b14:    dc0b        ..      BGT      0x12b2e ; HAL_CLOCK_ClockCmd + 34
        0x00012b16:    2801        .(      CMP      r0,#1
        0x00012b18:    d029        ).      BEQ      0x12b6e ; HAL_CLOCK_ClockCmd + 98
        0x00012b1a:    2802        .(      CMP      r0,#2
        0x00012b1c:    d024        $.      BEQ      0x12b68 ; HAL_CLOCK_ClockCmd + 92
        0x00012b1e:    2804        .(      CMP      r0,#4
        0x00012b20:    d025        %.      BEQ      0x12b6e ; HAL_CLOCK_ClockCmd + 98
        0x00012b22:    2808        .(      CMP      r0,#8
        0x00012b24:    bf18        ..      IT       NE
        0x00012b26:    4770        pG      BXNE     lr
        0x00012b28:    4608        .F      MOV      r0,r1
        0x00012b2a:    f000be80    ....    B.W      HAL_CLOCK_LOSCcmd ; 0x1382e
        0x00012b2e:    2820         (      CMP      r0,#0x20
        0x00012b30:    d03b        ;.      BEQ      0x12baa ; HAL_CLOCK_ClockCmd + 158
        0x00012b32:    2840        @(      CMP      r0,#0x40
        0x00012b34:    d04f        O.      BEQ      0x12bd6 ; HAL_CLOCK_ClockCmd + 202
        0x00012b36:    2880        .(      CMP      r0,#0x80
        0x00012b38:    bf18        ..      IT       NE
        0x00012b3a:    4770        pG      BXNE     lr
        0x00012b3c:    f8d20198    ....    LDR      r0,[r2,#0x198]
        0x00012b40:    f4207040     .@p    BIC      r0,r0,#0x300
        0x00012b44:    f4407080    @..p    ORR      r0,r0,#0x100
        0x00012b48:    f8c20198    ....    STR      r0,[r2,#0x198]
        0x00012b4c:    f8d20198    ....    LDR      r0,[r2,#0x198]
        0x00012b50:    f0200030     .0.    BIC      r0,r0,#0x30
        0x00012b54:    f8c20198    ....    STR      r0,[r2,#0x198]
        0x00012b58:    f8d20198    ....    LDR      r0,[r2,#0x198]
        0x00012b5c:    f0200001     ...    BIC      r0,r0,#1
        0x00012b60:    4308        .C      ORRS     r0,r0,r1
        0x00012b62:    f8c20198    ....    STR      r0,[r2,#0x198]
        0x00012b66:    4770        pG      BX       lr
        0x00012b68:    4608        .F      MOV      r0,r1
        0x00012b6a:    f000be8b    ....    B.W      HAL_CLOCK_HOSCcmd ; 0x13884
        0x00012b6e:    f8d20170    ..p.    LDR      r0,[r2,#0x170]
        0x00012b72:    f0200001     ...    BIC      r0,r0,#1
        0x00012b76:    4308        .C      ORRS     r0,r0,r1
        0x00012b78:    f8c20170    ..p.    STR      r0,[r2,#0x170]
        0x00012b7c:    4770        pG      BX       lr
        0x00012b7e:    f8d20188    ....    LDR      r0,[r2,#0x188]
        0x00012b82:    f4207040     .@p    BIC      r0,r0,#0x300
        0x00012b86:    f4407080    @..p    ORR      r0,r0,#0x100
        0x00012b8a:    f8c20188    ....    STR      r0,[r2,#0x188]
        0x00012b8e:    f8d20188    ....    LDR      r0,[r2,#0x188]
        0x00012b92:    f0200030     .0.    BIC      r0,r0,#0x30
        0x00012b96:    f8c20188    ....    STR      r0,[r2,#0x188]
        0x00012b9a:    f8d20188    ....    LDR      r0,[r2,#0x188]
        0x00012b9e:    f0200001     ...    BIC      r0,r0,#1
        0x00012ba2:    4308        .C      ORRS     r0,r0,r1
        0x00012ba4:    f8c20188    ....    STR      r0,[r2,#0x188]
        0x00012ba8:    4770        pG      BX       lr
        0x00012baa:    f8d20180    ....    LDR      r0,[r2,#0x180]
        0x00012bae:    f4207040     .@p    BIC      r0,r0,#0x300
        0x00012bb2:    f4407080    @..p    ORR      r0,r0,#0x100
        0x00012bb6:    f8c20180    ....    STR      r0,[r2,#0x180]
        0x00012bba:    f8d20180    ....    LDR      r0,[r2,#0x180]
        0x00012bbe:    f0200030     .0.    BIC      r0,r0,#0x30
        0x00012bc2:    f8c20180    ....    STR      r0,[r2,#0x180]
        0x00012bc6:    f8d20180    ....    LDR      r0,[r2,#0x180]
        0x00012bca:    f0200001     ...    BIC      r0,r0,#1
        0x00012bce:    4308        .C      ORRS     r0,r0,r1
        0x00012bd0:    f8c20180    ....    STR      r0,[r2,#0x180]
        0x00012bd4:    4770        pG      BX       lr
        0x00012bd6:    f8d20190    ....    LDR      r0,[r2,#0x190]
        0x00012bda:    f4207040     .@p    BIC      r0,r0,#0x300
        0x00012bde:    f4407080    @..p    ORR      r0,r0,#0x100
        0x00012be2:    f8c20190    ....    STR      r0,[r2,#0x190]
        0x00012be6:    f8d20190    ....    LDR      r0,[r2,#0x190]
        0x00012bea:    f0200030     .0.    BIC      r0,r0,#0x30
        0x00012bee:    f8c20190    ....    STR      r0,[r2,#0x190]
        0x00012bf2:    f8d20190    ....    LDR      r0,[r2,#0x190]
        0x00012bf6:    f0200001     ...    BIC      r0,r0,#1
        0x00012bfa:    4308        .C      ORRS     r0,r0,r1
        0x00012bfc:    f8c20190    ....    STR      r0,[r2,#0x190]
        0x00012c00:    4770        pG      BX       lr
    HAL_CLOCK_GetSYSCLKConfig
        0x00012c02:    f04f4180    O..A    MOV      r1,#0x40000000
        0x00012c06:    f8512f90    Q../    LDR      r2,[r1,#0x90]!
        0x00012c0a:    f0020207    ....    AND      r2,r2,#7
        0x00012c0e:    7002        .p      STRB     r2,[r0,#0]
        0x00012c10:    6809        .h      LDR      r1,[r1,#0]
        0x00012c12:    f64172f0    A..r    MOV      r2,#0x1ff0
        0x00012c16:    4011        .@      ANDS     r1,r1,r2
        0x00012c18:    0909        ..      LSRS     r1,r1,#4
        0x00012c1a:    8041        A.      STRH     r1,[r0,#2]
        0x00012c1c:    4770        pG      BX       lr
    HAL_CLOCK_GetSYSCLKFreq
        0x00012c1e:    b410        ..      PUSH     {r4}
        0x00012c20:    f04f4180    O..A    MOV      r1,#0x40000000
        0x00012c24:    f8d12090    ...     LDR      r2,[r1,#0x90]
        0x00012c28:    f0020c07    ....    AND      r12,r2,#7
        0x00012c2c:    f8d12090    ...     LDR      r2,[r1,#0x90]
        0x00012c30:    f64173f0    A..s    MOV      r3,#0x1ff0
        0x00012c34:    401a        .@      ANDS     r2,r2,r3
        0x00012c36:    0912        ..      LSRS     r2,r2,#4
        0x00012c38:    4bf8        .K      LDR      r3,[pc,#992] ; [0x1301c] = 0x7a1200
        0x00012c3a:    f1bc0f06    ....    CMP      r12,#6
        0x00012c3e:    d24b        K.      BCS      0x12cd8 ; HAL_CLOCK_GetSYSCLKFreq + 186
        0x00012c40:    e8dff00c    ....    TBB      [pc,r12]
    $d
        0x00012c44:    1f080303    ....    DCD    520618755
        0x00012c48:    0633        3.      DCW    1587
    $t
        0x00012c4a:    1c50        P.      ADDS     r0,r2,#1
        0x00012c4c:    fbb3f0f0    ....    UDIV     r0,r3,r0
        0x00012c50:    bc10        ..      POP      {r4}
        0x00012c52:    4770        pG      BX       lr
        0x00012c54:    f8d101a0    ....    LDR      r0,[r1,#0x1a0]
        0x00012c58:    f8d1c188    ....    LDR      r12,[r1,#0x188]
        0x00012c5c:    f3c02003    ...     UBFX     r0,r0,#8,#4
        0x00012c60:    f8d1118c    ....    LDR      r1,[r1,#0x18c]
        0x00012c64:    f3cc4c08    ...L    UBFX     r12,r12,#16,#9
        0x00012c68:    fbb3f0f0    ....    UDIV     r0,r3,r0
        0x00012c6c:    f3c12107    ...!    UBFX     r1,r1,#8,#8
        0x00012c70:    fb00f00c    ....    MUL      r0,r0,r12
        0x00012c74:    fbb0f0f1    ....    UDIV     r0,r0,r1
        0x00012c78:    1c51        Q.      ADDS     r1,r2,#1
        0x00012c7a:    fbb0f0f1    ....    UDIV     r0,r0,r1
        0x00012c7e:    bc10        ..      POP      {r4}
        0x00012c80:    4770        pG      BX       lr
        0x00012c82:    f8d101a0    ....    LDR      r0,[r1,#0x1a0]
        0x00012c86:    f3c02c03    ...,    UBFX     r12,r0,#8,#4
        0x00012c8a:    f8d10184    ....    LDR      r0,[r1,#0x184]
        0x00012c8e:    f8d11184    ....    LDR      r1,[r1,#0x184]
        0x00012c92:    0e00        ..      LSRS     r0,r0,#24
        0x00012c94:    fbb3f3fc    ....    UDIV     r3,r3,r12
        0x00012c98:    b2c9        ..      UXTB     r1,r1
        0x00012c9a:    4358        XC      MULS     r0,r3,r0
        0x00012c9c:    fbb0f0f1    ....    UDIV     r0,r0,r1
        0x00012ca0:    1c51        Q.      ADDS     r1,r2,#1
        0x00012ca2:    fbb0f0f1    ....    UDIV     r0,r0,r1
        0x00012ca6:    bc10        ..      POP      {r4}
        0x00012ca8:    4770        pG      BX       lr
        0x00012caa:    f8d101a0    ....    LDR      r0,[r1,#0x1a0]
        0x00012cae:    f8d1c188    ....    LDR      r12,[r1,#0x188]
        0x00012cb2:    f3c02003    ...     UBFX     r0,r0,#8,#4
        0x00012cb6:    f8d1118c    ....    LDR      r1,[r1,#0x18c]
        0x00012cba:    f3cc4c08    ...L    UBFX     r12,r12,#16,#9
        0x00012cbe:    fbb3f0f0    ....    UDIV     r0,r3,r0
        0x00012cc2:    f3c14107    ...A    UBFX     r1,r1,#16,#8
        0x00012cc6:    fb00f00c    ....    MUL      r0,r0,r12
        0x00012cca:    fbb0f0f1    ....    UDIV     r0,r0,r1
        0x00012cce:    1c51        Q.      ADDS     r1,r2,#1
        0x00012cd0:    fbb0f0f1    ....    UDIV     r0,r0,r1
        0x00012cd4:    bc10        ..      POP      {r4}
        0x00012cd6:    4770        pG      BX       lr
        0x00012cd8:    bc10        ..      POP      {r4}
        0x00012cda:    2000        .       MOVS     r0,#0
        0x00012cdc:    4770        pG      BX       lr
    HAL_CLOCK_PeripheralClockEnable0
        0x00012cde:    f04f4180    O..A    MOV      r1,#0x40000000
        0x00012ce2:    f8512f80    Q../    LDR      r2,[r1,#0x80]!
        0x00012ce6:    4310        .C      ORRS     r0,r0,r2
        0x00012ce8:    6008        .`      STR      r0,[r1,#0]
        0x00012cea:    4770        pG      BX       lr
    HAL_CLOCK_PeripheralClockDisable0
        0x00012cec:    f04f4180    O..A    MOV      r1,#0x40000000
        0x00012cf0:    f8512f80    Q../    LDR      r2,[r1,#0x80]!
        0x00012cf4:    ea220000    "...    BIC      r0,r2,r0
        0x00012cf8:    6008        .`      STR      r0,[r1,#0]
        0x00012cfa:    4770        pG      BX       lr
    HAL_CLOCK_PeripheralClockEnable1
        0x00012cfc:    f04f4180    O..A    MOV      r1,#0x40000000
        0x00012d00:    f8512f84    Q../    LDR      r2,[r1,#0x84]!
        0x00012d04:    4310        .C      ORRS     r0,r0,r2
        0x00012d06:    6008        .`      STR      r0,[r1,#0]
        0x00012d08:    4770        pG      BX       lr
    HAL_CLOCK_PeripheralClockDisable1
        0x00012d0a:    f04f4180    O..A    MOV      r1,#0x40000000
        0x00012d0e:    f8512f84    Q../    LDR      r2,[r1,#0x84]!
        0x00012d12:    ea220000    "...    BIC      r0,r2,r0
        0x00012d16:    6008        .`      STR      r0,[r1,#0]
        0x00012d18:    4770        pG      BX       lr
    HAL_CLOCK_PeripheralClockEnable2
        0x00012d1a:    f04f4180    O..A    MOV      r1,#0x40000000
        0x00012d1e:    f8512f88    Q../    LDR      r2,[r1,#0x88]!
        0x00012d22:    4310        .C      ORRS     r0,r0,r2
        0x00012d24:    6008        .`      STR      r0,[r1,#0]
        0x00012d26:    4770        pG      BX       lr
    HAL_CLOCK_PeripheralClockDisable2
        0x00012d28:    f04f4180    O..A    MOV      r1,#0x40000000
        0x00012d2c:    f8512f88    Q../    LDR      r2,[r1,#0x88]!
        0x00012d30:    ea220000    "...    BIC      r0,r2,r0
        0x00012d34:    6008        .`      STR      r0,[r1,#0]
        0x00012d36:    4770        pG      BX       lr
    HAL_CLOCK_PeripheralClkSetConfig
        0x00012d38:    b570        p.      PUSH     {r4-r6,lr}
        0x00012d3a:    4605        .F      MOV      r5,r0
        0x00012d3c:    4ab8        .J      LDR      r2,[pc,#736] ; [0x13020] = 0x10000001
        0x00012d3e:    6800        .h      LDR      r0,[r0,#0]
        0x00012d40:    0794        ..      LSLS     r4,r2,#30
        0x00012d42:    1a81        ..      SUBS     r1,r0,r2
        0x00012d44:    4290        .B      CMP      r0,r2
        0x00012d46:    f0008429    ..).    BEQ.W    0x1359c ; HAL_CLOCK_PeripheralClkSetConfig + 2148
        0x00012d4a:    dc7d        }.      BGT      0x12e48 ; HAL_CLOCK_PeripheralClkSetConfig + 272
        0x00012d4c:    f5b06f80    ...o    CMP      r0,#0x400
        0x00012d50:    f00082c9    ....    BEQ.W    0x132e6 ; HAL_CLOCK_PeripheralClkSetConfig + 1454
        0x00012d54:    dc47        G.      BGT      0x12de6 ; HAL_CLOCK_PeripheralClkSetConfig + 174
        0x00012d56:    2820         (      CMP      r0,#0x20
        0x00012d58:    f0008142    ..B.    BEQ.W    0x12fe0 ; HAL_CLOCK_PeripheralClkSetConfig + 680
        0x00012d5c:    dc28        (.      BGT      0x12db0 ; HAL_CLOCK_PeripheralClkSetConfig + 120
        0x00012d5e:    2804        .(      CMP      r0,#4
        0x00012d60:    d073        s.      BEQ      0x12e4a ; HAL_CLOCK_PeripheralClkSetConfig + 274
        0x00012d62:    dc0e        ..      BGT      0x12d82 ; HAL_CLOCK_PeripheralClkSetConfig + 74
        0x00012d64:    2801        .(      CMP      r0,#1
        0x00012d66:    d071        q.      BEQ      0x12e4c ; HAL_CLOCK_PeripheralClkSetConfig + 276
        0x00012d68:    2802        .(      CMP      r0,#2
        0x00012d6a:    bf18        ..      IT       NE
        0x00012d6c:    bd70        p.      POPNE    {r4-r6,pc}
        0x00012d6e:    f8d40094    ....    LDR      r0,[r4,#0x94]
        0x00012d72:    88a9        ..      LDRH     r1,[r5,#4]
        0x00012d74:    f36f100c    o...    BFC      r0,#4,#9
        0x00012d78:    ea401001    @...    ORR      r0,r0,r1,LSL #4
        0x00012d7c:    f8c40094    ....    STR      r0,[r4,#0x94]
        0x00012d80:    bd70        p.      POP      {r4-r6,pc}
        0x00012d82:    2808        .(      CMP      r0,#8
        0x00012d84:    d07d        }.      BEQ      0x12e82 ; HAL_CLOCK_PeripheralClkSetConfig + 330
        0x00012d86:    2810        .(      CMP      r0,#0x10
        0x00012d88:    bf18        ..      IT       NE
        0x00012d8a:    bd70        p.      POPNE    {r4-r6,pc}
        0x00012d8c:    f8d40098    ....    LDR      r0,[r4,#0x98]
        0x00012d90:    7969        iy      LDRB     r1,[r5,#5]
        0x00012d92:    f42040e0     ..@    BIC      r0,r0,#0x7000
        0x00012d96:    ea403001    @..0    ORR      r0,r0,r1,LSL #12
        0x00012d9a:    f8c40098    ....    STR      r0,[r4,#0x98]
        0x00012d9e:    f8d40098    ....    LDR      r0,[r4,#0x98]
        0x00012da2:    7929        )y      LDRB     r1,[r5,#4]
        0x00012da4:    f42020e0     ..     BIC      r0,r0,#0x70000
        0x00012da8:    ea404001    @..@    ORR      r0,r0,r1,LSL #16
        0x00012dac:    f000b964    ..d.    B.W      0x13078 ; HAL_CLOCK_PeripheralClkSetConfig + 832
        0x00012db0:    2840        @(      CMP      r0,#0x40
        0x00012db2:    f0008164    ..d.    BEQ.W    0x1307e ; HAL_CLOCK_PeripheralClkSetConfig + 838
        0x00012db6:    2880        .(      CMP      r0,#0x80
        0x00012db8:    bf1e        ..      ITTT     NE
        0x00012dba:    f5b07f80    ....    CMPNE    r0,#0x100
        0x00012dbe:    f5b07f00    ....    CMPNE    r0,#0x200
        0x00012dc2:    bd70        p.      POPNE    {r4-r6,pc}
        0x00012dc4:    7968        hy      LDRB     r0,[r5,#5]
        0x00012dc6:    2800        .(      CMP      r0,#0
        0x00012dc8:    f00081d6    ....    BEQ.W    0x13178 ; HAL_CLOCK_PeripheralClkSetConfig + 1088
        0x00012dcc:    2801        .(      CMP      r0,#1
        0x00012dce:    f0008219    ....    BEQ.W    0x13204 ; HAL_CLOCK_PeripheralClkSetConfig + 1228
        0x00012dd2:    2802        .(      CMP      r0,#2
        0x00012dd4:    bf04        ..      ITT      EQ
        0x00012dd6:    f8d401a4    ....    LDREQ    r0,[r4,#0x1a4]
        0x00012dda:    f0100f10    ....    TSTEQ    r0,#0x10
        0x00012dde:    f00081dd    ....    BEQ.W    0x1319c ; HAL_CLOCK_PeripheralClkSetConfig + 1124
        0x00012de2:    f000ba46    ..F.    B.W      0x13272 ; HAL_CLOCK_PeripheralClkSetConfig + 1338
        0x00012de6:    f5b04f00    ...O    CMP      r0,#0x8000
        0x00012dea:    f0008337    ..7.    BEQ.W    0x1345c ; HAL_CLOCK_PeripheralClkSetConfig + 1828
        0x00012dee:    dc18        ..      BGT      0x12e22 ; HAL_CLOCK_PeripheralClkSetConfig + 234
        0x00012df0:    f5b06f00    ...o    CMP      r0,#0x800
        0x00012df4:    f00082a5    ....    BEQ.W    0x13342 ; HAL_CLOCK_PeripheralClkSetConfig + 1546
        0x00012df8:    f5b05f80    ..._    CMP      r0,#0x1000
        0x00012dfc:    f00082e4    ....    BEQ.W    0x133c8 ; HAL_CLOCK_PeripheralClkSetConfig + 1680
        0x00012e00:    f5b05f00    ..._    CMP      r0,#0x2000
        0x00012e04:    f0008322    ..".    BEQ.W    0x1344c ; HAL_CLOCK_PeripheralClkSetConfig + 1812
        0x00012e08:    f5b04f80    ...O    CMP      r0,#0x4000
        0x00012e0c:    bf18        ..      IT       NE
        0x00012e0e:    bd70        p.      POPNE    {r4-r6,pc}
        0x00012e10:    7929        )y      LDRB     r1,[r5,#4]
        0x00012e12:    f8d400a4    ....    LDR      r0,[r4,#0xa4]
        0x00012e16:    f361601f    a..`    BFI      r0,r1,#24,#8
        0x00012e1a:    bf00        ..      NOP      
        0x00012e1c:    f8c400a4    ....    STR      r0,[r4,#0xa4]
        0x00012e20:    bd70        p.      POP      {r4-r6,pc}
        0x00012e22:    f5b03f80    ...?    CMP      r0,#0x10000
        0x00012e26:    f0008321    ..!.    BEQ.W    0x1346c ; HAL_CLOCK_PeripheralClkSetConfig + 1844
        0x00012e2a:    f5b03f00    ...?    CMP      r0,#0x20000
        0x00012e2e:    f0008327    ..'.    BEQ.W    0x13480 ; HAL_CLOCK_PeripheralClkSetConfig + 1864
        0x00012e32:    f5b02f80    .../    CMP      r0,#0x40000
        0x00012e36:    bf1c        ..      ITT      NE
        0x00012e38:    f5b02f00    .../    CMPNE    r0,#0x80000
        0x00012e3c:    bd70        p.      POPNE    {r4-r6,pc}
        0x00012e3e:    7928        (y      LDRB     r0,[r5,#4]
        0x00012e40:    2800        .(      CMP      r0,#0
        0x00012e42:    f0008325    ..%.    BEQ.W    0x13490 ; HAL_CLOCK_PeripheralClkSetConfig + 1880
        0x00012e46:    e002        ..      B        0x12e4e ; HAL_CLOCK_PeripheralClkSetConfig + 278
        0x00012e48:    e00b        ..      B        0x12e62 ; HAL_CLOCK_PeripheralClkSetConfig + 298
        0x00012e4a:    e079        y.      B        0x12f40 ; HAL_CLOCK_PeripheralClkSetConfig + 520
        0x00012e4c:    e070        p.      B        0x12f30 ; HAL_CLOCK_PeripheralClkSetConfig + 504
        0x00012e4e:    2801        .(      CMP      r0,#1
        0x00012e50:    bf04        ..      ITT      EQ
        0x00012e52:    f8d401a4    ....    LDREQ    r0,[r4,#0x1a4]
        0x00012e56:    f0100f40    ..@.    TSTEQ    r0,#0x40
        0x00012e5a:    f0008351    ..Q.    BEQ.W    0x13500 ; HAL_CLOCK_PeripheralClkSetConfig + 1992
        0x00012e5e:    f000bb82    ....    B.W      0x13566 ; HAL_CLOCK_PeripheralClkSetConfig + 2094
        0x00012e62:    f24032ff    @..2    MOV      r2,#0x3ff
        0x00012e66:    f2a130ff    ...0    SUB      r0,r1,#0x3ff
        0x00012e6a:    4291        .B      CMP      r1,r2
        0x00012e6c:    f0008490    ....    BEQ.W    0x13790 ; HAL_CLOCK_PeripheralClkSetConfig + 2648
        0x00012e70:    dc27        '.      BGT      0x12ec2 ; HAL_CLOCK_PeripheralClkSetConfig + 394
        0x00012e72:    291f        .)      CMP      r1,#0x1f
        0x00012e74:    f0008392    ....    BEQ.W    0x1359c ; HAL_CLOCK_PeripheralClkSetConfig + 2148
        0x00012e78:    dc0c        ..      BGT      0x12e94 ; HAL_CLOCK_PeripheralClkSetConfig + 348
        0x00012e7a:    2901        .)      CMP      r1,#1
        0x00012e7c:    bf18        ..      IT       NE
        0x00012e7e:    2903        .)      CMPNE    r1,#3
        0x00012e80:    e000        ..      B        0x12e84 ; HAL_CLOCK_PeripheralClkSetConfig + 332
        0x00012e82:    e09c        ..      B        0x12fbe ; HAL_CLOCK_PeripheralClkSetConfig + 646
        0x00012e84:    f000838a    ....    BEQ.W    0x1359c ; HAL_CLOCK_PeripheralClkSetConfig + 2148
        0x00012e88:    2907        .)      CMP      r1,#7
        0x00012e8a:    bf18        ..      IT       NE
        0x00012e8c:    290f        .)      CMPNE    r1,#0xf
        0x00012e8e:    f0008385    ....    BEQ.W    0x1359c ; HAL_CLOCK_PeripheralClkSetConfig + 2148
        0x00012e92:    bd70        p.      POP      {r4-r6,pc}
        0x00012e94:    293f        ?)      CMP      r1,#0x3f
        0x00012e96:    bf18        ..      IT       NE
        0x00012e98:    297f        .)      CMPNE    r1,#0x7f
        0x00012e9a:    f000837f    ....    BEQ.W    0x1359c ; HAL_CLOCK_PeripheralClkSetConfig + 2148
        0x00012e9e:    29ff        .)      CMP      r1,#0xff
        0x00012ea0:    f000846e    ..n.    BEQ.W    0x13780 ; HAL_CLOCK_PeripheralClkSetConfig + 2632
        0x00012ea4:    f5a17080    ...p    SUB      r0,r1,#0x100
        0x00012ea8:    38ff        .8      SUBS     r0,r0,#0xff
        0x00012eaa:    bf18        ..      IT       NE
        0x00012eac:    bd70        p.      POPNE    {r4-r6,pc}
        0x00012eae:    f8d400b8    ....    LDR      r0,[r4,#0xb8]
        0x00012eb2:    7929        )y      LDRB     r1,[r5,#4]
        0x00012eb4:    f020000c     ...    BIC      r0,r0,#0xc
        0x00012eb8:    ea400081    @...    ORR      r0,r0,r1,LSL #2
        0x00012ebc:    f8c400b8    ....    STR      r0,[r4,#0xb8]
        0x00012ec0:    bd70        p.      POP      {r4-r6,pc}
        0x00012ec2:    f5b04ff8    ...O    CMP      r0,#0x7c00
        0x00012ec6:    f000848b    ....    BEQ.W    0x137e0 ; HAL_CLOCK_PeripheralClkSetConfig + 2728
        0x00012eca:    dc17        ..      BGT      0x12efc ; HAL_CLOCK_PeripheralClkSetConfig + 452
        0x00012ecc:    f5b06f80    ...o    CMP      r0,#0x400
        0x00012ed0:    f0008468    ..h.    BEQ.W    0x137a4 ; HAL_CLOCK_PeripheralClkSetConfig + 2668
        0x00012ed4:    f5b06f40    ..@o    CMP      r0,#0xc00
        0x00012ed8:    f000846e    ..n.    BEQ.W    0x137b8 ; HAL_CLOCK_PeripheralClkSetConfig + 2688
        0x00012edc:    f5b05fe0    ..._    CMP      r0,#0x1c00
        0x00012ee0:    f0008474    ..t.    BEQ.W    0x137cc ; HAL_CLOCK_PeripheralClkSetConfig + 2708
        0x00012ee4:    f5b05f70    ..p_    CMP      r0,#0x3c00
        0x00012ee8:    bf18        ..      IT       NE
        0x00012eea:    bd70        p.      POPNE    {r4-r6,pc}
        0x00012eec:    f8d400b8    ....    LDR      r0,[r4,#0xb8]
        0x00012ef0:    7929        )y      LDRB     r1,[r5,#4]
        0x00012ef2:    f4205040     .@P    BIC      r0,r0,#0x3000
        0x00012ef6:    ea403001    @..0    ORR      r0,r0,r1,LSL #12
        0x00012efa:    e7df        ..      B        0x12ebc ; HAL_CLOCK_PeripheralClkSetConfig + 388
        0x00012efc:    f5b04f7c    ..|O    CMP      r0,#0xfc00
        0x00012f00:    f0008478    ..x.    BEQ.W    0x137f4 ; HAL_CLOCK_PeripheralClkSetConfig + 2748
        0x00012f04:    f5b03ffe    ...?    CMP      r0,#0x1fc00
        0x00012f08:    f000847e    ..~.    BEQ.W    0x13808 ; HAL_CLOCK_PeripheralClkSetConfig + 2768
        0x00012f0c:    f5b03f7f    ...?    CMP      r0,#0x3fc00
        0x00012f10:    f0008484    ....    BEQ.W    0x1381c ; HAL_CLOCK_PeripheralClkSetConfig + 2788
        0x00012f14:    f5006080    ...`    ADD      r0,r0,#0x400
        0x00012f18:    f5b02f00    .../    CMP      r0,#0x80000
        0x00012f1c:    bf18        ..      IT       NE
        0x00012f1e:    bd70        p.      POPNE    {r4-r6,pc}
        0x00012f20:    f8d400b8    ....    LDR      r0,[r4,#0xb8]
        0x00012f24:    7929        )y      LDRB     r1,[r5,#4]
        0x00012f26:    f4200040     .@.    BIC      r0,r0,#0xc00000
        0x00012f2a:    ea405081    @..P    ORR      r0,r0,r1,LSL #22
        0x00012f2e:    e7c5        ..      B        0x12ebc ; HAL_CLOCK_PeripheralClkSetConfig + 388
        0x00012f30:    f8d40094    ....    LDR      r0,[r4,#0x94]
        0x00012f34:    7929        )y      LDRB     r1,[r5,#4]
        0x00012f36:    f42000e0     ...    BIC      r0,r0,#0x700000
        0x00012f3a:    ea405001    @..P    ORR      r0,r0,r1,LSL #20
        0x00012f3e:    e71d        ..      B        0x12d7c ; HAL_CLOCK_PeripheralClkSetConfig + 68
        0x00012f40:    7928        (y      LDRB     r0,[r5,#4]
        0x00012f42:    2801        .(      CMP      r0,#1
        0x00012f44:    d009        ..      BEQ      0x12f5a ; HAL_CLOCK_PeripheralClkSetConfig + 546
        0x00012f46:    2802        .(      CMP      r0,#2
        0x00012f48:    d018        ..      BEQ      0x12f7c ; HAL_CLOCK_PeripheralClkSetConfig + 580
        0x00012f4a:    2803        .(      CMP      r0,#3
        0x00012f4c:    bf04        ..      ITT      EQ
        0x00012f4e:    f8d401a4    ....    LDREQ    r0,[r4,#0x1a4]
        0x00012f52:    f0100f01    ....    TSTEQ    r0,#1
        0x00012f56:    d01f        ..      BEQ      0x12f98 ; HAL_CLOCK_PeripheralClkSetConfig + 608
        0x00012f58:    e029        ).      B        0x12fae ; HAL_CLOCK_PeripheralClkSetConfig + 630
        0x00012f5a:    f8d401a4    ....    LDR      r0,[r4,#0x1a4]
        0x00012f5e:    f0100f02    ....    TST      r0,#2
        0x00012f62:    d124        $.      BNE      0x12fae ; HAL_CLOCK_PeripheralClkSetConfig + 630
        0x00012f64:    f8d40170    ..p.    LDR      r0,[r4,#0x170]
        0x00012f68:    f0400001    @...    ORR      r0,r0,#1
        0x00012f6c:    f8c40170    ..p.    STR      r0,[r4,#0x170]
        0x00012f70:    f8d401a4    ....    LDR      r0,[r4,#0x1a4]
        0x00012f74:    f0100f02    ....    TST      r0,#2
        0x00012f78:    d0fa        ..      BEQ      0x12f70 ; HAL_CLOCK_PeripheralClkSetConfig + 568
        0x00012f7a:    e018        ..      B        0x12fae ; HAL_CLOCK_PeripheralClkSetConfig + 630
        0x00012f7c:    f8d401a4    ....    LDR      r0,[r4,#0x1a4]
        0x00012f80:    f0100f08    ....    TST      r0,#8
        0x00012f84:    d113        ..      BNE      0x12fae ; HAL_CLOCK_PeripheralClkSetConfig + 630
        0x00012f86:    2001        .       MOVS     r0,#1
        0x00012f88:    f000fc51    ..Q.    BL       HAL_CLOCK_LOSCcmd ; 0x1382e
        0x00012f8c:    f8d401a4    ....    LDR      r0,[r4,#0x1a4]
        0x00012f90:    f0100f08    ....    TST      r0,#8
        0x00012f94:    d0fa        ..      BEQ      0x12f8c ; HAL_CLOCK_PeripheralClkSetConfig + 596
        0x00012f96:    e00a        ..      B        0x12fae ; HAL_CLOCK_PeripheralClkSetConfig + 630
        0x00012f98:    f8d40170    ..p.    LDR      r0,[r4,#0x170]
        0x00012f9c:    f0400001    @...    ORR      r0,r0,#1
        0x00012fa0:    f8c40170    ..p.    STR      r0,[r4,#0x170]
        0x00012fa4:    f8d401a4    ....    LDR      r0,[r4,#0x1a4]
        0x00012fa8:    f0100f01    ....    TST      r0,#1
        0x00012fac:    d0fa        ..      BEQ      0x12fa4 ; HAL_CLOCK_PeripheralClkSetConfig + 620
        0x00012fae:    f8d40098    ....    LDR      r0,[r4,#0x98]
        0x00012fb2:    7929        )y      LDRB     r1,[r5,#4]
        0x00012fb4:    f4201040     .@.    BIC      r0,r0,#0x300000
        0x00012fb8:    ea405001    @..P    ORR      r0,r0,r1,LSL #20
        0x00012fbc:    e05c        \.      B        0x13078 ; HAL_CLOCK_PeripheralClkSetConfig + 832
        0x00012fbe:    f8d40098    ....    LDR      r0,[r4,#0x98]
        0x00012fc2:    7969        iy      LDRB     r1,[r5,#5]
        0x00012fc4:    f0200070     .p.    BIC      r0,r0,#0x70
        0x00012fc8:    ea401001    @...    ORR      r0,r0,r1,LSL #4
        0x00012fcc:    f8c40098    ....    STR      r0,[r4,#0x98]
        0x00012fd0:    f8d40098    ....    LDR      r0,[r4,#0x98]
        0x00012fd4:    7929        )y      LDRB     r1,[r5,#4]
        0x00012fd6:    f42060e0     ..`    BIC      r0,r0,#0x700
        0x00012fda:    ea402001    @..     ORR      r0,r0,r1,LSL #8
        0x00012fde:    e04b        K.      B        0x13078 ; HAL_CLOCK_PeripheralClkSetConfig + 832
        0x00012fe0:    7968        hy      LDRB     r0,[r5,#5]
        0x00012fe2:    b148        H.      CBZ      r0,0x12ff8 ; HAL_CLOCK_PeripheralClkSetConfig + 704
        0x00012fe4:    2801        .(      CMP      r0,#1
        0x00012fe6:    d01d        ..      BEQ      0x13024 ; HAL_CLOCK_PeripheralClkSetConfig + 748
        0x00012fe8:    2802        .(      CMP      r0,#2
        0x00012fea:    bf04        ..      ITT      EQ
        0x00012fec:    f8d401a4    ....    LDREQ    r0,[r4,#0x1a4]
        0x00012ff0:    f0100f04    ....    TSTEQ    r0,#4
        0x00012ff4:    d024        $.      BEQ      0x13040 ; HAL_CLOCK_PeripheralClkSetConfig + 776
        0x00012ff6:    e02c        ,.      B        0x13052 ; HAL_CLOCK_PeripheralClkSetConfig + 794
        0x00012ff8:    f8d401a4    ....    LDR      r0,[r4,#0x1a4]
        0x00012ffc:    f0100f02    ....    TST      r0,#2
        0x00013000:    d127        '.      BNE      0x13052 ; HAL_CLOCK_PeripheralClkSetConfig + 794
        0x00013002:    f8d40170    ..p.    LDR      r0,[r4,#0x170]
        0x00013006:    f0400001    @...    ORR      r0,r0,#1
        0x0001300a:    f8c40170    ..p.    STR      r0,[r4,#0x170]
        0x0001300e:    bf00        ..      NOP      
        0x00013010:    f8d401a4    ....    LDR      r0,[r4,#0x1a4]
        0x00013014:    f0100f02    ....    TST      r0,#2
        0x00013018:    d0fa        ..      BEQ      0x13010 ; HAL_CLOCK_PeripheralClkSetConfig + 728
        0x0001301a:    e01a        ..      B        0x13052 ; HAL_CLOCK_PeripheralClkSetConfig + 794
    $d
        0x0001301c:    007a1200    ..z.    DCD    8000000
        0x00013020:    10000001    ....    DCD    268435457
    $t
        0x00013024:    f8d401a4    ....    LDR      r0,[r4,#0x1a4]
        0x00013028:    f0100f08    ....    TST      r0,#8
        0x0001302c:    d111        ..      BNE      0x13052 ; HAL_CLOCK_PeripheralClkSetConfig + 794
        0x0001302e:    2001        .       MOVS     r0,#1
        0x00013030:    f000fbfd    ....    BL       HAL_CLOCK_LOSCcmd ; 0x1382e
        0x00013034:    f8d401a4    ....    LDR      r0,[r4,#0x1a4]
        0x00013038:    f0100f08    ....    TST      r0,#8
        0x0001303c:    d0fa        ..      BEQ      0x13034 ; HAL_CLOCK_PeripheralClkSetConfig + 764
        0x0001303e:    e008        ..      B        0x13052 ; HAL_CLOCK_PeripheralClkSetConfig + 794
        0x00013040:    2001        .       MOVS     r0,#1
        0x00013042:    f000fc1f    ....    BL       HAL_CLOCK_HOSCcmd ; 0x13884
        0x00013046:    bf00        ..      NOP      
        0x00013048:    f8d401a4    ....    LDR      r0,[r4,#0x1a4]
        0x0001304c:    f0100f04    ....    TST      r0,#4
        0x00013050:    d0fa        ..      BEQ      0x13048 ; HAL_CLOCK_PeripheralClkSetConfig + 784
        0x00013052:    f8d40098    ....    LDR      r0,[r4,#0x98]
        0x00013056:    7969        iy      LDRB     r1,[r5,#5]
        0x00013058:    f0200003     ...    BIC      r0,r0,#3
        0x0001305c:    4308        .C      ORRS     r0,r0,r1
        0x0001305e:    f8c40098    ....    STR      r0,[r4,#0x98]
        0x00013062:    7968        hy      LDRB     r0,[r5,#5]
        0x00013064:    2802        .(      CMP      r0,#2
        0x00013066:    bf18        ..      IT       NE
        0x00013068:    bd70        p.      POPNE    {r4-r6,pc}
        0x0001306a:    f8d40098    ....    LDR      r0,[r4,#0x98]
        0x0001306e:    7929        )y      LDRB     r1,[r5,#4]
        0x00013070:    f02050f8     ..P    BIC      r0,r0,#0x1f000000
        0x00013074:    ea406001    @..`    ORR      r0,r0,r1,LSL #24
        0x00013078:    f8c40098    ....    STR      r0,[r4,#0x98]
        0x0001307c:    bd70        p.      POP      {r4-r6,pc}
        0x0001307e:    7928        (y      LDRB     r0,[r5,#4]
        0x00013080:    2801        .(      CMP      r0,#1
        0x00013082:    d039        9.      BEQ      0x130f8 ; HAL_CLOCK_PeripheralClkSetConfig + 960
        0x00013084:    2802        .(      CMP      r0,#2
        0x00013086:    bf04        ..      ITT      EQ
        0x00013088:    f8d401a4    ....    LDREQ    r0,[r4,#0x1a4]
        0x0001308c:    f0100f20    .. .    TSTEQ    r0,#0x20
        0x00013090:    d169        i.      BNE      0x13166 ; HAL_CLOCK_PeripheralClkSetConfig + 1070
        0x00013092:    f8d401a4    ....    LDR      r0,[r4,#0x1a4]
        0x00013096:    f0100ff0    ....    TST      r0,#0xf0
        0x0001309a:    d112        ..      BNE      0x130c2 ; HAL_CLOCK_PeripheralClkSetConfig + 906
        0x0001309c:    2000        .       MOVS     r0,#0
        0x0001309e:    f7fffcaa    ....    BL       HAL_CLOCK_PLLsReferenceClock ; 0x129f6
        0x000130a2:    f8d401a4    ....    LDR      r0,[r4,#0x1a4]
        0x000130a6:    f0100f01    ....    TST      r0,#1
        0x000130aa:    d10a        ..      BNE      0x130c2 ; HAL_CLOCK_PeripheralClkSetConfig + 906
        0x000130ac:    f8d40170    ..p.    LDR      r0,[r4,#0x170]
        0x000130b0:    f0400001    @...    ORR      r0,r0,#1
        0x000130b4:    f8c40170    ..p.    STR      r0,[r4,#0x170]
        0x000130b8:    f8d401a4    ....    LDR      r0,[r4,#0x1a4]
        0x000130bc:    f0100f01    ....    TST      r0,#1
        0x000130c0:    d0fa        ..      BEQ      0x130b8 ; HAL_CLOCK_PeripheralClkSetConfig + 896
        0x000130c2:    f8d40188    ....    LDR      r0,[r4,#0x188]
        0x000130c6:    f4207040     .@p    BIC      r0,r0,#0x300
        0x000130ca:    f4407080    @..p    ORR      r0,r0,#0x100
        0x000130ce:    f8c40188    ....    STR      r0,[r4,#0x188]
        0x000130d2:    f8d40188    ....    LDR      r0,[r4,#0x188]
        0x000130d6:    f0200030     .0.    BIC      r0,r0,#0x30
        0x000130da:    f8c40188    ....    STR      r0,[r4,#0x188]
        0x000130de:    f8d40188    ....    LDR      r0,[r4,#0x188]
        0x000130e2:    f0400001    @...    ORR      r0,r0,#1
        0x000130e6:    f8c40188    ....    STR      r0,[r4,#0x188]
        0x000130ea:    bf00        ..      NOP      
        0x000130ec:    f8d401a4    ....    LDR      r0,[r4,#0x1a4]
        0x000130f0:    f0100f20    .. .    TST      r0,#0x20
        0x000130f4:    d0fa        ..      BEQ      0x130ec ; HAL_CLOCK_PeripheralClkSetConfig + 948
        0x000130f6:    e036        6.      B        0x13166 ; HAL_CLOCK_PeripheralClkSetConfig + 1070
        0x000130f8:    f8d401a4    ....    LDR      r0,[r4,#0x1a4]
        0x000130fc:    f0100f10    ....    TST      r0,#0x10
        0x00013100:    d131        1.      BNE      0x13166 ; HAL_CLOCK_PeripheralClkSetConfig + 1070
        0x00013102:    f8d401a4    ....    LDR      r0,[r4,#0x1a4]
        0x00013106:    f0100ff0    ....    TST      r0,#0xf0
        0x0001310a:    d112        ..      BNE      0x13132 ; HAL_CLOCK_PeripheralClkSetConfig + 1018
        0x0001310c:    2000        .       MOVS     r0,#0
        0x0001310e:    f7fffc72    ..r.    BL       HAL_CLOCK_PLLsReferenceClock ; 0x129f6
        0x00013112:    f8d401a4    ....    LDR      r0,[r4,#0x1a4]
        0x00013116:    f0100f01    ....    TST      r0,#1
        0x0001311a:    d10a        ..      BNE      0x13132 ; HAL_CLOCK_PeripheralClkSetConfig + 1018
        0x0001311c:    f8d40170    ..p.    LDR      r0,[r4,#0x170]
        0x00013120:    f0400001    @...    ORR      r0,r0,#1
        0x00013124:    f8c40170    ..p.    STR      r0,[r4,#0x170]
        0x00013128:    f8d401a4    ....    LDR      r0,[r4,#0x1a4]
        0x0001312c:    f0100f01    ....    TST      r0,#1
        0x00013130:    d0fa        ..      BEQ      0x13128 ; HAL_CLOCK_PeripheralClkSetConfig + 1008
        0x00013132:    f8d40180    ....    LDR      r0,[r4,#0x180]
        0x00013136:    f4207040     .@p    BIC      r0,r0,#0x300
        0x0001313a:    f4407080    @..p    ORR      r0,r0,#0x100
        0x0001313e:    f8c40180    ....    STR      r0,[r4,#0x180]
        0x00013142:    f8d40180    ....    LDR      r0,[r4,#0x180]
        0x00013146:    f0200030     .0.    BIC      r0,r0,#0x30
        0x0001314a:    f8c40180    ....    STR      r0,[r4,#0x180]
        0x0001314e:    f8d40180    ....    LDR      r0,[r4,#0x180]
        0x00013152:    f0400001    @...    ORR      r0,r0,#1
        0x00013156:    f8c40180    ....    STR      r0,[r4,#0x180]
        0x0001315a:    bf00        ..      NOP      
        0x0001315c:    f8d401a4    ....    LDR      r0,[r4,#0x1a4]
        0x00013160:    f0100f10    ....    TST      r0,#0x10
        0x00013164:    d0fa        ..      BEQ      0x1315c ; HAL_CLOCK_PeripheralClkSetConfig + 1060
        0x00013166:    f8d4009c    ....    LDR      r0,[r4,#0x9c]
        0x0001316a:    7929        )y      LDRB     r1,[r5,#4]
        0x0001316c:    f4203080     ..0    BIC      r0,r0,#0x10000
        0x00013170:    ea404001    @..@    ORR      r0,r0,r1,LSL #16
        0x00013174:    e095        ..      B        0x132a2 ; HAL_CLOCK_PeripheralClkSetConfig + 1386
        0x00013176:    bf00        ..      NOP      
        0x00013178:    f8d401a4    ....    LDR      r0,[r4,#0x1a4]
        0x0001317c:    f0100f01    ....    TST      r0,#1
        0x00013180:    d177        w.      BNE      0x13272 ; HAL_CLOCK_PeripheralClkSetConfig + 1338
        0x00013182:    f8d40170    ..p.    LDR      r0,[r4,#0x170]
        0x00013186:    f0400001    @...    ORR      r0,r0,#1
        0x0001318a:    f8c40170    ..p.    STR      r0,[r4,#0x170]
        0x0001318e:    bf00        ..      NOP      
        0x00013190:    f8d401a4    ....    LDR      r0,[r4,#0x1a4]
        0x00013194:    f0100f01    ....    TST      r0,#1
        0x00013198:    d0fa        ..      BEQ      0x13190 ; HAL_CLOCK_PeripheralClkSetConfig + 1112
        0x0001319a:    e06a        j.      B        0x13272 ; HAL_CLOCK_PeripheralClkSetConfig + 1338
        0x0001319c:    f8d401a4    ....    LDR      r0,[r4,#0x1a4]
        0x000131a0:    f0100ff0    ....    TST      r0,#0xf0
        0x000131a4:    d113        ..      BNE      0x131ce ; HAL_CLOCK_PeripheralClkSetConfig + 1174
        0x000131a6:    2000        .       MOVS     r0,#0
        0x000131a8:    f7fffc25    ..%.    BL       HAL_CLOCK_PLLsReferenceClock ; 0x129f6
        0x000131ac:    f8d401a4    ....    LDR      r0,[r4,#0x1a4]
        0x000131b0:    f0100f01    ....    TST      r0,#1
        0x000131b4:    d10b        ..      BNE      0x131ce ; HAL_CLOCK_PeripheralClkSetConfig + 1174
        0x000131b6:    f8d40170    ..p.    LDR      r0,[r4,#0x170]
        0x000131ba:    f0400001    @...    ORR      r0,r0,#1
        0x000131be:    f8c40170    ..p.    STR      r0,[r4,#0x170]
        0x000131c2:    bf00        ..      NOP      
        0x000131c4:    f8d401a4    ....    LDR      r0,[r4,#0x1a4]
        0x000131c8:    f0100f01    ....    TST      r0,#1
        0x000131cc:    d0fa        ..      BEQ      0x131c4 ; HAL_CLOCK_PeripheralClkSetConfig + 1164
        0x000131ce:    f8d40180    ....    LDR      r0,[r4,#0x180]
        0x000131d2:    f4207040     .@p    BIC      r0,r0,#0x300
        0x000131d6:    f4407080    @..p    ORR      r0,r0,#0x100
        0x000131da:    f8c40180    ....    STR      r0,[r4,#0x180]
        0x000131de:    f8d40180    ....    LDR      r0,[r4,#0x180]
        0x000131e2:    f0200030     .0.    BIC      r0,r0,#0x30
        0x000131e6:    f8c40180    ....    STR      r0,[r4,#0x180]
        0x000131ea:    f8d40180    ....    LDR      r0,[r4,#0x180]
        0x000131ee:    f0400001    @...    ORR      r0,r0,#1
        0x000131f2:    f8c40180    ....    STR      r0,[r4,#0x180]
        0x000131f6:    bf00        ..      NOP      
        0x000131f8:    f8d401a4    ....    LDR      r0,[r4,#0x1a4]
        0x000131fc:    f0100f10    ....    TST      r0,#0x10
        0x00013200:    d0fa        ..      BEQ      0x131f8 ; HAL_CLOCK_PeripheralClkSetConfig + 1216
        0x00013202:    e036        6.      B        0x13272 ; HAL_CLOCK_PeripheralClkSetConfig + 1338
        0x00013204:    f8d401a4    ....    LDR      r0,[r4,#0x1a4]
        0x00013208:    f0100f40    ..@.    TST      r0,#0x40
        0x0001320c:    d131        1.      BNE      0x13272 ; HAL_CLOCK_PeripheralClkSetConfig + 1338
        0x0001320e:    f8d401a4    ....    LDR      r0,[r4,#0x1a4]
        0x00013212:    f0100ff0    ....    TST      r0,#0xf0
        0x00013216:    d112        ..      BNE      0x1323e ; HAL_CLOCK_PeripheralClkSetConfig + 1286
        0x00013218:    2000        .       MOVS     r0,#0
        0x0001321a:    f7fffbec    ....    BL       HAL_CLOCK_PLLsReferenceClock ; 0x129f6
        0x0001321e:    f8d401a4    ....    LDR      r0,[r4,#0x1a4]
        0x00013222:    f0100f01    ....    TST      r0,#1
        0x00013226:    d10a        ..      BNE      0x1323e ; HAL_CLOCK_PeripheralClkSetConfig + 1286
        0x00013228:    f8d40170    ..p.    LDR      r0,[r4,#0x170]
        0x0001322c:    f0400001    @...    ORR      r0,r0,#1
        0x00013230:    f8c40170    ..p.    STR      r0,[r4,#0x170]
        0x00013234:    f8d401a4    ....    LDR      r0,[r4,#0x1a4]
        0x00013238:    f0100f01    ....    TST      r0,#1
        0x0001323c:    d0fa        ..      BEQ      0x13234 ; HAL_CLOCK_PeripheralClkSetConfig + 1276
        0x0001323e:    f8d40190    ....    LDR      r0,[r4,#0x190]
        0x00013242:    f4207040     .@p    BIC      r0,r0,#0x300
        0x00013246:    f4407080    @..p    ORR      r0,r0,#0x100
        0x0001324a:    f8c40190    ....    STR      r0,[r4,#0x190]
        0x0001324e:    f8d40190    ....    LDR      r0,[r4,#0x190]
        0x00013252:    f0200030     .0.    BIC      r0,r0,#0x30
        0x00013256:    f8c40190    ....    STR      r0,[r4,#0x190]
        0x0001325a:    f8d40190    ....    LDR      r0,[r4,#0x190]
        0x0001325e:    f0400001    @...    ORR      r0,r0,#1
        0x00013262:    f8c40190    ....    STR      r0,[r4,#0x190]
        0x00013266:    bf00        ..      NOP      
        0x00013268:    f8d401a4    ....    LDR      r0,[r4,#0x1a4]
        0x0001326c:    f0100f40    ..@.    TST      r0,#0x40
        0x00013270:    d0fa        ..      BEQ      0x13268 ; HAL_CLOCK_PeripheralClkSetConfig + 1328
        0x00013272:    6828        (h      LDR      r0,[r5,#0]
        0x00013274:    2880        .(      CMP      r0,#0x80
        0x00013276:    d017        ..      BEQ      0x132a8 ; HAL_CLOCK_PeripheralClkSetConfig + 1392
        0x00013278:    f5b07f80    ....    CMP      r0,#0x100
        0x0001327c:    d022        ".      BEQ      0x132c4 ; HAL_CLOCK_PeripheralClkSetConfig + 1420
        0x0001327e:    f5b07f00    ....    CMP      r0,#0x200
        0x00013282:    bf18        ..      IT       NE
        0x00013284:    bd70        p.      POPNE    {r4-r6,pc}
        0x00013286:    f8d4009c    ....    LDR      r0,[r4,#0x9c]
        0x0001328a:    7969        iy      LDRB     r1,[r5,#5]
        0x0001328c:    f0200004     ...    BIC      r0,r0,#4
        0x00013290:    ea401001    @...    ORR      r0,r0,r1,LSL #4
        0x00013294:    f8c4009c    ....    STR      r0,[r4,#0x9c]
        0x00013298:    7929        )y      LDRB     r1,[r5,#4]
        0x0001329a:    f8d4009c    ....    LDR      r0,[r4,#0x9c]
        0x0001329e:    f361701f    a..p    BFI      r0,r1,#28,#4
        0x000132a2:    f8c4009c    ....    STR      r0,[r4,#0x9c]
        0x000132a6:    bd70        p.      POP      {r4-r6,pc}
        0x000132a8:    f8d4009c    ....    LDR      r0,[r4,#0x9c]
        0x000132ac:    7969        iy      LDRB     r1,[r5,#5]
        0x000132ae:    4308        .C      ORRS     r0,r0,r1
        0x000132b0:    f8c4009c    ....    STR      r0,[r4,#0x9c]
        0x000132b4:    f8d4009c    ....    LDR      r0,[r4,#0x9c]
        0x000132b8:    7929        )y      LDRB     r1,[r5,#4]
        0x000132ba:    f4206070     .p`    BIC      r0,r0,#0xf00
        0x000132be:    ea402001    @..     ORR      r0,r0,r1,LSL #8
        0x000132c2:    e7ee        ..      B        0x132a2 ; HAL_CLOCK_PeripheralClkSetConfig + 1386
        0x000132c4:    f8d4009c    ....    LDR      r0,[r4,#0x9c]
        0x000132c8:    7969        iy      LDRB     r1,[r5,#5]
        0x000132ca:    f0200002     ...    BIC      r0,r0,#2
        0x000132ce:    ea400081    @...    ORR      r0,r0,r1,LSL #2
        0x000132d2:    f8c4009c    ....    STR      r0,[r4,#0x9c]
        0x000132d6:    f8d4009c    ....    LDR      r0,[r4,#0x9c]
        0x000132da:    7929        )y      LDRB     r1,[r5,#4]
        0x000132dc:    f0206070     .p`    BIC      r0,r0,#0xf000000
        0x000132e0:    ea406001    @..`    ORR      r0,r0,r1,LSL #24
        0x000132e4:    e7dd        ..      B        0x132a2 ; HAL_CLOCK_PeripheralClkSetConfig + 1386
        0x000132e6:    7928        (y      LDRB     r0,[r5,#4]
        0x000132e8:    b138        8.      CBZ      r0,0x132fa ; HAL_CLOCK_PeripheralClkSetConfig + 1474
        0x000132ea:    2801        .(      CMP      r0,#1
        0x000132ec:    bf04        ..      ITT      EQ
        0x000132ee:    f8d401a4    ....    LDREQ    r0,[r4,#0x1a4]
        0x000132f2:    f0100f02    ....    TSTEQ    r0,#2
        0x000132f6:    d00f        ..      BEQ      0x13318 ; HAL_CLOCK_PeripheralClkSetConfig + 1504
        0x000132f8:    e019        ..      B        0x1332e ; HAL_CLOCK_PeripheralClkSetConfig + 1526
        0x000132fa:    f8d401a4    ....    LDR      r0,[r4,#0x1a4]
        0x000132fe:    f0100f08    ....    TST      r0,#8
        0x00013302:    d114        ..      BNE      0x1332e ; HAL_CLOCK_PeripheralClkSetConfig + 1526
        0x00013304:    2001        .       MOVS     r0,#1
        0x00013306:    f000fa92    ....    BL       HAL_CLOCK_LOSCcmd ; 0x1382e
        0x0001330a:    bf00        ..      NOP      
        0x0001330c:    f8d401a4    ....    LDR      r0,[r4,#0x1a4]
        0x00013310:    f0100f08    ....    TST      r0,#8
        0x00013314:    d0fa        ..      BEQ      0x1330c ; HAL_CLOCK_PeripheralClkSetConfig + 1492
        0x00013316:    e00a        ..      B        0x1332e ; HAL_CLOCK_PeripheralClkSetConfig + 1526
        0x00013318:    f8d40170    ..p.    LDR      r0,[r4,#0x170]
        0x0001331c:    f0400001    @...    ORR      r0,r0,#1
        0x00013320:    f8c40170    ..p.    STR      r0,[r4,#0x170]
        0x00013324:    f8d401a4    ....    LDR      r0,[r4,#0x1a4]
        0x00013328:    f0100f02    ....    TST      r0,#2
        0x0001332c:    d0fa        ..      BEQ      0x13324 ; HAL_CLOCK_PeripheralClkSetConfig + 1516
        0x0001332e:    f8d400a0    ....    LDR      r0,[r4,#0xa0]
        0x00013332:    7929        )y      LDRB     r1,[r5,#4]
        0x00013334:    f0207080     ..p    BIC      r0,r0,#0x1000000
        0x00013338:    ea406001    @..`    ORR      r0,r0,r1,LSL #24
        0x0001333c:    f8c400a0    ....    STR      r0,[r4,#0xa0]
        0x00013340:    bd70        p.      POP      {r4-r6,pc}
        0x00013342:    7928        (y      LDRB     r0,[r5,#4]
        0x00013344:    2801        .(      CMP      r0,#1
        0x00013346:    bf04        ..      ITT      EQ
        0x00013348:    f8d401a4    ....    LDREQ    r0,[r4,#0x1a4]
        0x0001334c:    f0100f40    ..@.    TSTEQ    r0,#0x40
        0x00013350:    d131        1.      BNE      0x133b6 ; HAL_CLOCK_PeripheralClkSetConfig + 1662
        0x00013352:    f8d401a4    ....    LDR      r0,[r4,#0x1a4]
        0x00013356:    f0100ff0    ....    TST      r0,#0xf0
        0x0001335a:    d112        ..      BNE      0x13382 ; HAL_CLOCK_PeripheralClkSetConfig + 1610
        0x0001335c:    2000        .       MOVS     r0,#0
        0x0001335e:    f7fffb4a    ..J.    BL       HAL_CLOCK_PLLsReferenceClock ; 0x129f6
        0x00013362:    f8d401a4    ....    LDR      r0,[r4,#0x1a4]
        0x00013366:    f0100f01    ....    TST      r0,#1
        0x0001336a:    d10a        ..      BNE      0x13382 ; HAL_CLOCK_PeripheralClkSetConfig + 1610
        0x0001336c:    f8d40170    ..p.    LDR      r0,[r4,#0x170]
        0x00013370:    f0400001    @...    ORR      r0,r0,#1
        0x00013374:    f8c40170    ..p.    STR      r0,[r4,#0x170]
        0x00013378:    f8d401a4    ....    LDR      r0,[r4,#0x1a4]
        0x0001337c:    f0100f01    ....    TST      r0,#1
        0x00013380:    d0fa        ..      BEQ      0x13378 ; HAL_CLOCK_PeripheralClkSetConfig + 1600
        0x00013382:    f8d40190    ....    LDR      r0,[r4,#0x190]
        0x00013386:    f4207040     .@p    BIC      r0,r0,#0x300
        0x0001338a:    f4407080    @..p    ORR      r0,r0,#0x100
        0x0001338e:    f8c40190    ....    STR      r0,[r4,#0x190]
        0x00013392:    f8d40190    ....    LDR      r0,[r4,#0x190]
        0x00013396:    f0200030     .0.    BIC      r0,r0,#0x30
        0x0001339a:    f8c40190    ....    STR      r0,[r4,#0x190]
        0x0001339e:    f8d40190    ....    LDR      r0,[r4,#0x190]
        0x000133a2:    f0400001    @...    ORR      r0,r0,#1
        0x000133a6:    f8c40190    ....    STR      r0,[r4,#0x190]
        0x000133aa:    bf00        ..      NOP      
        0x000133ac:    f8d401a4    ....    LDR      r0,[r4,#0x1a4]
        0x000133b0:    f0100f40    ..@.    TST      r0,#0x40
        0x000133b4:    d0fa        ..      BEQ      0x133ac ; HAL_CLOCK_PeripheralClkSetConfig + 1652
        0x000133b6:    f8d400a0    ....    LDR      r0,[r4,#0xa0]
        0x000133ba:    7929        )y      LDRB     r1,[r5,#4]
        0x000133bc:    f4203080     ..0    BIC      r0,r0,#0x10000
        0x000133c0:    ea404001    @..@    ORR      r0,r0,r1,LSL #16
        0x000133c4:    e03e        >.      B        0x13444 ; HAL_CLOCK_PeripheralClkSetConfig + 1804
        0x000133c6:    bf00        ..      NOP      
        0x000133c8:    f8d401a4    ....    LDR      r0,[r4,#0x1a4]
        0x000133cc:    f0100f80    ....    TST      r0,#0x80
        0x000133d0:    d131        1.      BNE      0x13436 ; HAL_CLOCK_PeripheralClkSetConfig + 1790
        0x000133d2:    f8d401a4    ....    LDR      r0,[r4,#0x1a4]
        0x000133d6:    f0100ff0    ....    TST      r0,#0xf0
        0x000133da:    d112        ..      BNE      0x13402 ; HAL_CLOCK_PeripheralClkSetConfig + 1738
        0x000133dc:    2000        .       MOVS     r0,#0
        0x000133de:    f7fffb0a    ....    BL       HAL_CLOCK_PLLsReferenceClock ; 0x129f6
        0x000133e2:    f8d401a4    ....    LDR      r0,[r4,#0x1a4]
        0x000133e6:    f0100f01    ....    TST      r0,#1
        0x000133ea:    d10a        ..      BNE      0x13402 ; HAL_CLOCK_PeripheralClkSetConfig + 1738
        0x000133ec:    f8d40170    ..p.    LDR      r0,[r4,#0x170]
        0x000133f0:    f0400001    @...    ORR      r0,r0,#1
        0x000133f4:    f8c40170    ..p.    STR      r0,[r4,#0x170]
        0x000133f8:    f8d401a4    ....    LDR      r0,[r4,#0x1a4]
        0x000133fc:    f0100f01    ....    TST      r0,#1
        0x00013400:    d0fa        ..      BEQ      0x133f8 ; HAL_CLOCK_PeripheralClkSetConfig + 1728
        0x00013402:    f8d40198    ....    LDR      r0,[r4,#0x198]
        0x00013406:    f4207040     .@p    BIC      r0,r0,#0x300
        0x0001340a:    f4407080    @..p    ORR      r0,r0,#0x100
        0x0001340e:    f8c40198    ....    STR      r0,[r4,#0x198]
        0x00013412:    f8d40198    ....    LDR      r0,[r4,#0x198]
        0x00013416:    f0200030     .0.    BIC      r0,r0,#0x30
        0x0001341a:    f8c40198    ....    STR      r0,[r4,#0x198]
        0x0001341e:    f8d40198    ....    LDR      r0,[r4,#0x198]
        0x00013422:    f0400001    @...    ORR      r0,r0,#1
        0x00013426:    f8c40198    ....    STR      r0,[r4,#0x198]
        0x0001342a:    bf00        ..      NOP      
        0x0001342c:    f8d401a4    ....    LDR      r0,[r4,#0x1a4]
        0x00013430:    f0100f80    ....    TST      r0,#0x80
        0x00013434:    d0fa        ..      BEQ      0x1342c ; HAL_CLOCK_PeripheralClkSetConfig + 1780
        0x00013436:    f8d400a0    ....    LDR      r0,[r4,#0xa0]
        0x0001343a:    7929        )y      LDRB     r1,[r5,#4]
        0x0001343c:    f42050f8     ..P    BIC      r0,r0,#0x1f00
        0x00013440:    ea402001    @..     ORR      r0,r0,r1,LSL #8
        0x00013444:    f8c400a0    ....    STR      r0,[r4,#0xa0]
        0x00013448:    bd70        p.      POP      {r4-r6,pc}
        0x0001344a:    bf00        ..      NOP      
        0x0001344c:    f8d400a4    ....    LDR      r0,[r4,#0xa4]
        0x00013450:    7929        )y      LDRB     r1,[r5,#4]
        0x00013452:    f420407f     ..@    BIC      r0,r0,#0xff00
        0x00013456:    ea402001    @..     ORR      r0,r0,r1,LSL #8
        0x0001345a:    e4df        ..      B        0x12e1c ; HAL_CLOCK_PeripheralClkSetConfig + 228
        0x0001345c:    f8d400a8    ....    LDR      r0,[r4,#0xa8]
        0x00013460:    7929        )y      LDRB     r1,[r5,#4]
        0x00013462:    f420407f     ..@    BIC      r0,r0,#0xff00
        0x00013466:    ea402001    @..     ORR      r0,r0,r1,LSL #8
        0x0001346a:    e006        ..      B        0x1347a ; HAL_CLOCK_PeripheralClkSetConfig + 1858
        0x0001346c:    f8d400a8    ....    LDR      r0,[r4,#0xa8]
        0x00013470:    88a9        ..      LDRH     r1,[r5,#4]
        0x00013472:    f36f501c    o..P    BFC      r0,#20,#9
        0x00013476:    ea405001    @..P    ORR      r0,r0,r1,LSL #20
        0x0001347a:    f8c400a8    ....    STR      r0,[r4,#0xa8]
        0x0001347e:    bd70        p.      POP      {r4-r6,pc}
        0x00013480:    f8d400ac    ....    LDR      r0,[r4,#0xac]
        0x00013484:    88a9        ..      LDRH     r1,[r5,#4]
        0x00013486:    f36f501c    o..P    BFC      r0,#20,#9
        0x0001348a:    ea405001    @..P    ORR      r0,r0,r1,LSL #20
        0x0001348e:    e082        ..      B        0x13596 ; HAL_CLOCK_PeripheralClkSetConfig + 2142
        0x00013490:    f8d401a4    ....    LDR      r0,[r4,#0x1a4]
        0x00013494:    f0100f80    ....    TST      r0,#0x80
        0x00013498:    d165        e.      BNE      0x13566 ; HAL_CLOCK_PeripheralClkSetConfig + 2094
        0x0001349a:    f8d401a4    ....    LDR      r0,[r4,#0x1a4]
        0x0001349e:    f0100ff0    ....    TST      r0,#0xf0
        0x000134a2:    d112        ..      BNE      0x134ca ; HAL_CLOCK_PeripheralClkSetConfig + 1938
        0x000134a4:    2000        .       MOVS     r0,#0
        0x000134a6:    f7fffaa6    ....    BL       HAL_CLOCK_PLLsReferenceClock ; 0x129f6
        0x000134aa:    f8d401a4    ....    LDR      r0,[r4,#0x1a4]
        0x000134ae:    f0100f01    ....    TST      r0,#1
        0x000134b2:    d10a        ..      BNE      0x134ca ; HAL_CLOCK_PeripheralClkSetConfig + 1938
        0x000134b4:    f8d40170    ..p.    LDR      r0,[r4,#0x170]
        0x000134b8:    f0400001    @...    ORR      r0,r0,#1
        0x000134bc:    f8c40170    ..p.    STR      r0,[r4,#0x170]
        0x000134c0:    f8d401a4    ....    LDR      r0,[r4,#0x1a4]
        0x000134c4:    f0100f01    ....    TST      r0,#1
        0x000134c8:    d0fa        ..      BEQ      0x134c0 ; HAL_CLOCK_PeripheralClkSetConfig + 1928
        0x000134ca:    f8d40198    ....    LDR      r0,[r4,#0x198]
        0x000134ce:    f4207040     .@p    BIC      r0,r0,#0x300
        0x000134d2:    f4407080    @..p    ORR      r0,r0,#0x100
        0x000134d6:    f8c40198    ....    STR      r0,[r4,#0x198]
        0x000134da:    f8d40198    ....    LDR      r0,[r4,#0x198]
        0x000134de:    f0200030     .0.    BIC      r0,r0,#0x30
        0x000134e2:    f8c40198    ....    STR      r0,[r4,#0x198]
        0x000134e6:    f8d40198    ....    LDR      r0,[r4,#0x198]
        0x000134ea:    f0400001    @...    ORR      r0,r0,#1
        0x000134ee:    f8c40198    ....    STR      r0,[r4,#0x198]
        0x000134f2:    bf00        ..      NOP      
        0x000134f4:    f8d401a4    ....    LDR      r0,[r4,#0x1a4]
        0x000134f8:    f0100f80    ....    TST      r0,#0x80
        0x000134fc:    d0fa        ..      BEQ      0x134f4 ; HAL_CLOCK_PeripheralClkSetConfig + 1980
        0x000134fe:    e032        2.      B        0x13566 ; HAL_CLOCK_PeripheralClkSetConfig + 2094
        0x00013500:    f8d401a4    ....    LDR      r0,[r4,#0x1a4]
        0x00013504:    f0100ff0    ....    TST      r0,#0xf0
        0x00013508:    d113        ..      BNE      0x13532 ; HAL_CLOCK_PeripheralClkSetConfig + 2042
        0x0001350a:    2000        .       MOVS     r0,#0
        0x0001350c:    f7fffa73    ..s.    BL       HAL_CLOCK_PLLsReferenceClock ; 0x129f6
        0x00013510:    f8d401a4    ....    LDR      r0,[r4,#0x1a4]
        0x00013514:    f0100f01    ....    TST      r0,#1
        0x00013518:    d10b        ..      BNE      0x13532 ; HAL_CLOCK_PeripheralClkSetConfig + 2042
        0x0001351a:    f8d40170    ..p.    LDR      r0,[r4,#0x170]
        0x0001351e:    f0400001    @...    ORR      r0,r0,#1
        0x00013522:    f8c40170    ..p.    STR      r0,[r4,#0x170]
        0x00013526:    bf00        ..      NOP      
        0x00013528:    f8d401a4    ....    LDR      r0,[r4,#0x1a4]
        0x0001352c:    f0100f01    ....    TST      r0,#1
        0x00013530:    d0fa        ..      BEQ      0x13528 ; HAL_CLOCK_PeripheralClkSetConfig + 2032
        0x00013532:    f8d40190    ....    LDR      r0,[r4,#0x190]
        0x00013536:    f4207040     .@p    BIC      r0,r0,#0x300
        0x0001353a:    f4407080    @..p    ORR      r0,r0,#0x100
        0x0001353e:    f8c40190    ....    STR      r0,[r4,#0x190]
        0x00013542:    f8d40190    ....    LDR      r0,[r4,#0x190]
        0x00013546:    f0200030     .0.    BIC      r0,r0,#0x30
        0x0001354a:    f8c40190    ....    STR      r0,[r4,#0x190]
        0x0001354e:    f8d40190    ....    LDR      r0,[r4,#0x190]
        0x00013552:    f0400001    @...    ORR      r0,r0,#1
        0x00013556:    f8c40190    ....    STR      r0,[r4,#0x190]
        0x0001355a:    bf00        ..      NOP      
        0x0001355c:    f8d401a4    ....    LDR      r0,[r4,#0x1a4]
        0x00013560:    f0100f40    ..@.    TST      r0,#0x40
        0x00013564:    d0fa        ..      BEQ      0x1355c ; HAL_CLOCK_PeripheralClkSetConfig + 2084
        0x00013566:    6828        (h      LDR      r0,[r5,#0]
        0x00013568:    f5b02f80    .../    CMP      r0,#0x40000
        0x0001356c:    d00d        ..      BEQ      0x1358a ; HAL_CLOCK_PeripheralClkSetConfig + 2130
        0x0001356e:    f5b02f00    .../    CMP      r0,#0x80000
        0x00013572:    bf18        ..      IT       NE
        0x00013574:    bd70        p.      POPNE    {r4-r6,pc}
        0x00013576:    f8d400ac    ....    LDR      r0,[r4,#0xac]
        0x0001357a:    7929        )y      LDRB     r1,[r5,#4]
        0x0001357c:    f4207040     .@p    BIC      r0,r0,#0x300
        0x00013580:    ea402001    @..     ORR      r0,r0,r1,LSL #8
        0x00013584:    f8c400ac    ....    STR      r0,[r4,#0xac]
        0x00013588:    bd70        p.      POP      {r4-r6,pc}
        0x0001358a:    f8d400ac    ....    LDR      r0,[r4,#0xac]
        0x0001358e:    7929        )y      LDRB     r1,[r5,#4]
        0x00013590:    f0200003     ...    BIC      r0,r0,#3
        0x00013594:    4308        .C      ORRS     r0,r0,r1
        0x00013596:    f8c400ac    ....    STR      r0,[r4,#0xac]
        0x0001359a:    bd70        p.      POP      {r4-r6,pc}
        0x0001359c:    7968        hy      LDRB     r0,[r5,#5]
        0x0001359e:    b138        8.      CBZ      r0,0x135b0 ; HAL_CLOCK_PeripheralClkSetConfig + 2168
        0x000135a0:    2801        .(      CMP      r0,#1
        0x000135a2:    bf04        ..      ITT      EQ
        0x000135a4:    f8d401a4    ....    LDREQ    r0,[r4,#0x1a4]
        0x000135a8:    f0100f40    ..@.    TSTEQ    r0,#0x40
        0x000135ac:    d012        ..      BEQ      0x135d4 ; HAL_CLOCK_PeripheralClkSetConfig + 2204
        0x000135ae:    e044        D.      B        0x1363a ; HAL_CLOCK_PeripheralClkSetConfig + 2306
        0x000135b0:    f8d401a4    ....    LDR      r0,[r4,#0x1a4]
        0x000135b4:    f0100f01    ....    TST      r0,#1
        0x000135b8:    d13f        ?.      BNE      0x1363a ; HAL_CLOCK_PeripheralClkSetConfig + 2306
        0x000135ba:    f8d40170    ..p.    LDR      r0,[r4,#0x170]
        0x000135be:    f0400001    @...    ORR      r0,r0,#1
        0x000135c2:    f8c40170    ..p.    STR      r0,[r4,#0x170]
        0x000135c6:    bf00        ..      NOP      
        0x000135c8:    f8d401a4    ....    LDR      r0,[r4,#0x1a4]
        0x000135cc:    f0100f01    ....    TST      r0,#1
        0x000135d0:    d0fa        ..      BEQ      0x135c8 ; HAL_CLOCK_PeripheralClkSetConfig + 2192
        0x000135d2:    e032        2.      B        0x1363a ; HAL_CLOCK_PeripheralClkSetConfig + 2306
        0x000135d4:    f8d401a4    ....    LDR      r0,[r4,#0x1a4]
        0x000135d8:    f0100ff0    ....    TST      r0,#0xf0
        0x000135dc:    d113        ..      BNE      0x13606 ; HAL_CLOCK_PeripheralClkSetConfig + 2254
        0x000135de:    2000        .       MOVS     r0,#0
        0x000135e0:    f7fffa09    ....    BL       HAL_CLOCK_PLLsReferenceClock ; 0x129f6
        0x000135e4:    f8d401a4    ....    LDR      r0,[r4,#0x1a4]
        0x000135e8:    f0100f01    ....    TST      r0,#1
        0x000135ec:    d10b        ..      BNE      0x13606 ; HAL_CLOCK_PeripheralClkSetConfig + 2254
        0x000135ee:    f8d40170    ..p.    LDR      r0,[r4,#0x170]
        0x000135f2:    f0400001    @...    ORR      r0,r0,#1
        0x000135f6:    f8c40170    ..p.    STR      r0,[r4,#0x170]
        0x000135fa:    bf00        ..      NOP      
        0x000135fc:    f8d401a4    ....    LDR      r0,[r4,#0x1a4]
        0x00013600:    f0100f01    ....    TST      r0,#1
        0x00013604:    d0fa        ..      BEQ      0x135fc ; HAL_CLOCK_PeripheralClkSetConfig + 2244
        0x00013606:    f8d40190    ....    LDR      r0,[r4,#0x190]
        0x0001360a:    f4207040     .@p    BIC      r0,r0,#0x300
        0x0001360e:    f4407080    @..p    ORR      r0,r0,#0x100
        0x00013612:    f8c40190    ....    STR      r0,[r4,#0x190]
        0x00013616:    f8d40190    ....    LDR      r0,[r4,#0x190]
        0x0001361a:    f0200030     .0.    BIC      r0,r0,#0x30
        0x0001361e:    f8c40190    ....    STR      r0,[r4,#0x190]
        0x00013622:    f8d40190    ....    LDR      r0,[r4,#0x190]
        0x00013626:    f0400001    @...    ORR      r0,r0,#1
        0x0001362a:    f8c40190    ....    STR      r0,[r4,#0x190]
        0x0001362e:    bf00        ..      NOP      
        0x00013630:    f8d401a4    ....    LDR      r0,[r4,#0x1a4]
        0x00013634:    f0100f40    ..@.    TST      r0,#0x40
        0x00013638:    d0fa        ..      BEQ      0x13630 ; HAL_CLOCK_PeripheralClkSetConfig + 2296
        0x0001363a:    4aac        .J      LDR      r2,[pc,#688] ; [0x138ec] = 0x10000010
        0x0001363c:    6828        (h      LDR      r0,[r5,#0]
        0x0001363e:    1a81        ..      SUBS     r1,r0,r2
        0x00013640:    4290        .B      CMP      r0,r2
        0x00013642:    d06a        j.      BEQ      0x1371a ; HAL_CLOCK_PeripheralClkSetConfig + 2530
        0x00013644:    dc1d        ..      BGT      0x13682 ; HAL_CLOCK_PeripheralClkSetConfig + 2378
        0x00013646:    f06f5180    o..Q    MVN      r1,#0x10000000
        0x0001364a:    1840        @.      ADDS     r0,r0,r1
        0x0001364c:    d033        3.      BEQ      0x136b6 ; HAL_CLOCK_PeripheralClkSetConfig + 2430
        0x0001364e:    2801        .(      CMP      r0,#1
        0x00013650:    d041        A.      BEQ      0x136d6 ; HAL_CLOCK_PeripheralClkSetConfig + 2462
        0x00013652:    2803        .(      CMP      r0,#3
        0x00013654:    d050        P.      BEQ      0x136f8 ; HAL_CLOCK_PeripheralClkSetConfig + 2496
        0x00013656:    2807        .(      CMP      r0,#7
        0x00013658:    bf18        ..      IT       NE
        0x0001365a:    bd70        p.      POPNE    {r4-r6,pc}
        0x0001365c:    f8d400b0    ....    LDR      r0,[r4,#0xb0]
        0x00013660:    7969        iy      LDRB     r1,[r5,#5]
        0x00013662:    f0207080     ..p    BIC      r0,r0,#0x1000000
        0x00013666:    ea406001    @..`    ORR      r0,r0,r1,LSL #24
        0x0001366a:    f8c400b0    ....    STR      r0,[r4,#0xb0]
        0x0001366e:    f8d400b0    ....    LDR      r0,[r4,#0xb0]
        0x00013672:    7929        )y      LDRB     r1,[r5,#4]
        0x00013674:    f02040f0     ..@    BIC      r0,r0,#0x78000000
        0x00013678:    ea4060c1    @..`    ORR      r0,r0,r1,LSL #27
        0x0001367c:    f8c400b0    ....    STR      r0,[r4,#0xb0]
        0x00013680:    bd70        p.      POP      {r4-r6,pc}
        0x00013682:    2910        .)      CMP      r1,#0x10
        0x00013684:    d059        Y.      BEQ      0x1373a ; HAL_CLOCK_PeripheralClkSetConfig + 2562
        0x00013686:    2930        0)      CMP      r1,#0x30
        0x00013688:    d068        h.      BEQ      0x1375c ; HAL_CLOCK_PeripheralClkSetConfig + 2596
        0x0001368a:    2970        p)      CMP      r1,#0x70
        0x0001368c:    bf18        ..      IT       NE
        0x0001368e:    bd70        p.      POPNE    {r4-r6,pc}
        0x00013690:    f8d400b4    ....    LDR      r0,[r4,#0xb4]
        0x00013694:    7969        iy      LDRB     r1,[r5,#5]
        0x00013696:    f0207080     ..p    BIC      r0,r0,#0x1000000
        0x0001369a:    ea406001    @..`    ORR      r0,r0,r1,LSL #24
        0x0001369e:    f8c400b4    ....    STR      r0,[r4,#0xb4]
        0x000136a2:    f8d400b4    ....    LDR      r0,[r4,#0xb4]
        0x000136a6:    7929        )y      LDRB     r1,[r5,#4]
        0x000136a8:    f02040f0     ..@    BIC      r0,r0,#0x78000000
        0x000136ac:    ea4060c1    @..`    ORR      r0,r0,r1,LSL #27
        0x000136b0:    f8c400b4    ....    STR      r0,[r4,#0xb4]
        0x000136b4:    bd70        p.      POP      {r4-r6,pc}
        0x000136b6:    f8d400b0    ....    LDR      r0,[r4,#0xb0]
        0x000136ba:    7969        iy      LDRB     r1,[r5,#5]
        0x000136bc:    f0200001     ...    BIC      r0,r0,#1
        0x000136c0:    4308        .C      ORRS     r0,r0,r1
        0x000136c2:    f8c400b0    ....    STR      r0,[r4,#0xb0]
        0x000136c6:    f8d400b0    ....    LDR      r0,[r4,#0xb0]
        0x000136ca:    7929        )y      LDRB     r1,[r5,#4]
        0x000136cc:    f02000f8     ...    BIC      r0,r0,#0xf8
        0x000136d0:    ea4000c1    @...    ORR      r0,r0,r1,LSL #3
        0x000136d4:    e7d2        ..      B        0x1367c ; HAL_CLOCK_PeripheralClkSetConfig + 2372
        0x000136d6:    f8d400b0    ....    LDR      r0,[r4,#0xb0]
        0x000136da:    7969        iy      LDRB     r1,[r5,#5]
        0x000136dc:    f4207080     ..p    BIC      r0,r0,#0x100
        0x000136e0:    ea402001    @..     ORR      r0,r0,r1,LSL #8
        0x000136e4:    f8c400b0    ....    STR      r0,[r4,#0xb0]
        0x000136e8:    f8d400b0    ....    LDR      r0,[r4,#0xb0]
        0x000136ec:    7929        )y      LDRB     r1,[r5,#4]
        0x000136ee:    f4204078     .x@    BIC      r0,r0,#0xf800
        0x000136f2:    ea4020c1    @..     ORR      r0,r0,r1,LSL #11
        0x000136f6:    e7c1        ..      B        0x1367c ; HAL_CLOCK_PeripheralClkSetConfig + 2372
        0x000136f8:    f8d400b0    ....    LDR      r0,[r4,#0xb0]
        0x000136fc:    7969        iy      LDRB     r1,[r5,#5]
        0x000136fe:    f4203080     ..0    BIC      r0,r0,#0x10000
        0x00013702:    ea404001    @..@    ORR      r0,r0,r1,LSL #16
        0x00013706:    f8c400b0    ....    STR      r0,[r4,#0xb0]
        0x0001370a:    f8d400b0    ....    LDR      r0,[r4,#0xb0]
        0x0001370e:    7929        )y      LDRB     r1,[r5,#4]
        0x00013710:    f4200078     .x.    BIC      r0,r0,#0xf80000
        0x00013714:    ea4040c1    @..@    ORR      r0,r0,r1,LSL #19
        0x00013718:    e7b0        ..      B        0x1367c ; HAL_CLOCK_PeripheralClkSetConfig + 2372
        0x0001371a:    f8d400b4    ....    LDR      r0,[r4,#0xb4]
        0x0001371e:    7969        iy      LDRB     r1,[r5,#5]
        0x00013720:    f0200001     ...    BIC      r0,r0,#1
        0x00013724:    4308        .C      ORRS     r0,r0,r1
        0x00013726:    f8c400b4    ....    STR      r0,[r4,#0xb4]
        0x0001372a:    f8d400b4    ....    LDR      r0,[r4,#0xb4]
        0x0001372e:    7929        )y      LDRB     r1,[r5,#4]
        0x00013730:    f02000f8     ...    BIC      r0,r0,#0xf8
        0x00013734:    ea4000c1    @...    ORR      r0,r0,r1,LSL #3
        0x00013738:    e7ba        ..      B        0x136b0 ; HAL_CLOCK_PeripheralClkSetConfig + 2424
        0x0001373a:    f8d400b4    ....    LDR      r0,[r4,#0xb4]
        0x0001373e:    7969        iy      LDRB     r1,[r5,#5]
        0x00013740:    f4207080     ..p    BIC      r0,r0,#0x100
        0x00013744:    ea402001    @..     ORR      r0,r0,r1,LSL #8
        0x00013748:    f8c400b4    ....    STR      r0,[r4,#0xb4]
        0x0001374c:    f8d400b4    ....    LDR      r0,[r4,#0xb4]
        0x00013750:    7929        )y      LDRB     r1,[r5,#4]
        0x00013752:    f4204078     .x@    BIC      r0,r0,#0xf800
        0x00013756:    ea4020c1    @..     ORR      r0,r0,r1,LSL #11
        0x0001375a:    e7a9        ..      B        0x136b0 ; HAL_CLOCK_PeripheralClkSetConfig + 2424
        0x0001375c:    f8d400b4    ....    LDR      r0,[r4,#0xb4]
        0x00013760:    7969        iy      LDRB     r1,[r5,#5]
        0x00013762:    f4203080     ..0    BIC      r0,r0,#0x10000
        0x00013766:    ea404001    @..@    ORR      r0,r0,r1,LSL #16
        0x0001376a:    f8c400b4    ....    STR      r0,[r4,#0xb4]
        0x0001376e:    f8d400b4    ....    LDR      r0,[r4,#0xb4]
        0x00013772:    7929        )y      LDRB     r1,[r5,#4]
        0x00013774:    f4200078     .x.    BIC      r0,r0,#0xf80000
        0x00013778:    ea4040c1    @..@    ORR      r0,r0,r1,LSL #19
        0x0001377c:    e798        ..      B        0x136b0 ; HAL_CLOCK_PeripheralClkSetConfig + 2424
        0x0001377e:    bf00        ..      NOP      
        0x00013780:    f8d400b8    ....    LDR      r0,[r4,#0xb8]
        0x00013784:    7929        )y      LDRB     r1,[r5,#4]
        0x00013786:    f0200003     ...    BIC      r0,r0,#3
        0x0001378a:    4308        .C      ORRS     r0,r0,r1
        0x0001378c:    f7ffbb96    ....    B        0x12ebc ; HAL_CLOCK_PeripheralClkSetConfig + 388
        0x00013790:    f8d400b8    ....    LDR      r0,[r4,#0xb8]
        0x00013794:    7929        )y      LDRB     r1,[r5,#4]
        0x00013796:    f0200030     .0.    BIC      r0,r0,#0x30
        0x0001379a:    ea401001    @...    ORR      r0,r0,r1,LSL #4
        0x0001379e:    f7ffbb8d    ....    B        0x12ebc ; HAL_CLOCK_PeripheralClkSetConfig + 388
        0x000137a2:    bf00        ..      NOP      
        0x000137a4:    f8d400b8    ....    LDR      r0,[r4,#0xb8]
        0x000137a8:    7929        )y      LDRB     r1,[r5,#4]
        0x000137aa:    f02000c0     ...    BIC      r0,r0,#0xc0
        0x000137ae:    ea401081    @...    ORR      r0,r0,r1,LSL #6
        0x000137b2:    f7ffbb83    ....    B        0x12ebc ; HAL_CLOCK_PeripheralClkSetConfig + 388
        0x000137b6:    bf00        ..      NOP      
        0x000137b8:    f8d400b8    ....    LDR      r0,[r4,#0xb8]
        0x000137bc:    7929        )y      LDRB     r1,[r5,#4]
        0x000137be:    f4207040     .@p    BIC      r0,r0,#0x300
        0x000137c2:    ea402001    @..     ORR      r0,r0,r1,LSL #8
        0x000137c6:    f7ffbb79    ..y.    B        0x12ebc ; HAL_CLOCK_PeripheralClkSetConfig + 388
        0x000137ca:    bf00        ..      NOP      
        0x000137cc:    f8d400b8    ....    LDR      r0,[r4,#0xb8]
        0x000137d0:    7929        )y      LDRB     r1,[r5,#4]
        0x000137d2:    f4206040     .@`    BIC      r0,r0,#0xc00
        0x000137d6:    ea402081    @..     ORR      r0,r0,r1,LSL #10
        0x000137da:    f7ffbb6f    ..o.    B        0x12ebc ; HAL_CLOCK_PeripheralClkSetConfig + 388
        0x000137de:    bf00        ..      NOP      
        0x000137e0:    f8d400b8    ....    LDR      r0,[r4,#0xb8]
        0x000137e4:    7929        )y      LDRB     r1,[r5,#4]
        0x000137e6:    f4204040     .@@    BIC      r0,r0,#0xc000
        0x000137ea:    ea403081    @..0    ORR      r0,r0,r1,LSL #14
        0x000137ee:    f7ffbb65    ..e.    B        0x12ebc ; HAL_CLOCK_PeripheralClkSetConfig + 388
        0x000137f2:    bf00        ..      NOP      
        0x000137f4:    f8d400b8    ....    LDR      r0,[r4,#0xb8]
        0x000137f8:    7929        )y      LDRB     r1,[r5,#4]
        0x000137fa:    f4203040     .@0    BIC      r0,r0,#0x30000
        0x000137fe:    ea404001    @..@    ORR      r0,r0,r1,LSL #16
        0x00013802:    f7ffbb5b    ..[.    B        0x12ebc ; HAL_CLOCK_PeripheralClkSetConfig + 388
        0x00013806:    bf00        ..      NOP      
        0x00013808:    f8d400b8    ....    LDR      r0,[r4,#0xb8]
        0x0001380c:    7929        )y      LDRB     r1,[r5,#4]
        0x0001380e:    f4202040     .@     BIC      r0,r0,#0xc0000
        0x00013812:    ea404081    @..@    ORR      r0,r0,r1,LSL #18
        0x00013816:    f7ffbb51    ..Q.    B        0x12ebc ; HAL_CLOCK_PeripheralClkSetConfig + 388
        0x0001381a:    bf00        ..      NOP      
        0x0001381c:    f8d400b8    ....    LDR      r0,[r4,#0xb8]
        0x00013820:    7929        )y      LDRB     r1,[r5,#4]
        0x00013822:    f4201040     .@.    BIC      r0,r0,#0x300000
        0x00013826:    ea405001    @..P    ORR      r0,r0,r1,LSL #20
        0x0001382a:    f7ffbb47    ..G.    B        0x12ebc ; HAL_CLOCK_PeripheralClkSetConfig + 388
    HAL_CLOCK_LOSCcmd
        0x0001382e:    f04f4180    O..A    MOV      r1,#0x40000000
        0x00013832:    2801        .(      CMP      r0,#1
        0x00013834:    f8d102c8    ....    LDR      r0,[r1,#0x2c8]
        0x00013838:    d011        ..      BEQ      0x1385e ; HAL_CLOCK_LOSCcmd + 48
        0x0001383a:    f0405000    @..P    ORR      r0,r0,#0x20000000
        0x0001383e:    f8c102c8    ....    STR      r0,[r1,#0x2c8]
        0x00013842:    f8d102c8    ....    LDR      r0,[r1,#0x2c8]
        0x00013846:    f0204000     ..@    BIC      r0,r0,#0x80000000
        0x0001384a:    f8c102c8    ....    STR      r0,[r1,#0x2c8]
        0x0001384e:    f8d1017c    ..|.    LDR      r0,[r1,#0x17c]
        0x00013852:    f0200001     ...    BIC      r0,r0,#1
        0x00013856:    bf00        ..      NOP      
        0x00013858:    f8c1017c    ..|.    STR      r0,[r1,#0x17c]
        0x0001385c:    4770        pG      BX       lr
        0x0001385e:    f0205040     .@P    BIC      r0,r0,#0x30000000
        0x00013862:    f0405000    @..P    ORR      r0,r0,#0x20000000
        0x00013866:    f8c102c8    ....    STR      r0,[r1,#0x2c8]
        0x0001386a:    f8d102c8    ....    LDR      r0,[r1,#0x2c8]
        0x0001386e:    f0204040     .@@    BIC      r0,r0,#0xc0000000
        0x00013872:    f0404000    @..@    ORR      r0,r0,#0x80000000
        0x00013876:    f8c102c8    ....    STR      r0,[r1,#0x2c8]
        0x0001387a:    f8d1017c    ..|.    LDR      r0,[r1,#0x17c]
        0x0001387e:    f0400001    @...    ORR      r0,r0,#1
        0x00013882:    e7e9        ..      B        0x13858 ; HAL_CLOCK_LOSCcmd + 42
    HAL_CLOCK_HOSCcmd
        0x00013884:    f04f4180    O..A    MOV      r1,#0x40000000
        0x00013888:    2801        .(      CMP      r0,#1
        0x0001388a:    f8d102cc    ....    LDR      r0,[r1,#0x2cc]
        0x0001388e:    f0200003     ...    BIC      r0,r0,#3
        0x00013892:    d00e        ..      BEQ      0x138b2 ; HAL_CLOCK_HOSCcmd + 46
        0x00013894:    f8c102cc    ....    STR      r0,[r1,#0x2cc]
        0x00013898:    f8d102cc    ....    LDR      r0,[r1,#0x2cc]
        0x0001389c:    f020000c     ...    BIC      r0,r0,#0xc
        0x000138a0:    f8c102cc    ....    STR      r0,[r1,#0x2cc]
        0x000138a4:    f8d10178    ..x.    LDR      r0,[r1,#0x178]
        0x000138a8:    f0200001     ...    BIC      r0,r0,#1
        0x000138ac:    f8c10178    ..x.    STR      r0,[r1,#0x178]
        0x000138b0:    4770        pG      BX       lr
        0x000138b2:    f0400002    @...    ORR      r0,r0,#2
        0x000138b6:    f8c102cc    ....    STR      r0,[r1,#0x2cc]
        0x000138ba:    f8d102cc    ....    LDR      r0,[r1,#0x2cc]
        0x000138be:    f020000c     ...    BIC      r0,r0,#0xc
        0x000138c2:    f0400008    @...    ORR      r0,r0,#8
        0x000138c6:    f8c102cc    ....    STR      r0,[r1,#0x2cc]
        0x000138ca:    f8d10178    ..x.    LDR      r0,[r1,#0x178]
        0x000138ce:    f4206070     .p`    BIC      r0,r0,#0xf00
        0x000138d2:    f8c10178    ..x.    STR      r0,[r1,#0x178]
        0x000138d6:    f8d10178    ..x.    LDR      r0,[r1,#0x178]
        0x000138da:    f0400030    @.0.    ORR      r0,r0,#0x30
        0x000138de:    f8c10178    ..x.    STR      r0,[r1,#0x178]
        0x000138e2:    f8d10178    ..x.    LDR      r0,[r1,#0x178]
        0x000138e6:    f0400001    @...    ORR      r0,r0,#1
        0x000138ea:    e7df        ..      B        0x138ac ; HAL_CLOCK_HOSCcmd + 40
    $d
        0x000138ec:    10000010    ....    DCD    268435472
    $t
    .text
    HAL_ICACHE_Enable
        0x000138f0:    b570        p.      PUSH     {r4-r6,lr}
        0x000138f2:    2400        .$      MOVS     r4,#0
        0x000138f4:    4d4b        KM      LDR      r5,[pc,#300] ; [0x13a24] = 0xf4240
        0x000138f6:    f7fcfd53    ..S.    BL       HAL_DisableIrq ; 0x103a0
        0x000138fa:    494b        KI      LDR      r1,[pc,#300] ; [0x13a28] = 0xe0042000
        0x000138fc:    6a48        Hj      LDR      r0,[r1,#0x24]
        0x000138fe:    f0400001    @...    ORR      r0,r0,#1
        0x00013902:    6248        Hb      STR      r0,[r1,#0x24]
        0x00013904:    f8d10100    ....    LDR      r0,[r1,#0x100]
        0x00013908:    f0200001     ...    BIC      r0,r0,#1
        0x0001390c:    f8c10100    ....    STR      r0,[r1,#0x100]
        0x00013910:    f8d10100    ....    LDR      r0,[r1,#0x100]
        0x00013914:    f0400001    @...    ORR      r0,r0,#1
        0x00013918:    f8c10100    ....    STR      r0,[r1,#0x100]
        0x0001391c:    f8d12104    ...!    LDR      r2,[r1,#0x104]
        0x00013920:    f0020003    ....    AND      r0,r2,#3
        0x00013924:    2802        .(      CMP      r0,#2
        0x00013926:    bf18        ..      IT       NE
        0x00013928:    f1b50501    ....    SUBSNE   r5,r5,#1
        0x0001392c:    d1f6        ..      BNE      0x1391c ; HAL_ICACHE_Enable + 44
        0x0001392e:    f7fcfd38    ..8.    BL       HAL_EnableIrq ; 0x103a2
        0x00013932:    2d00        .-      CMP      r5,#0
        0x00013934:    bfd8        ..      IT       LE
        0x00013936:    2403        .$      MOVLE    r4,#3
        0x00013938:    4620         F      MOV      r0,r4
        0x0001393a:    bd70        p.      POP      {r4-r6,pc}
    HAL_ICACHE_Disable
        0x0001393c:    b570        p.      PUSH     {r4-r6,lr}
        0x0001393e:    2500        .%      MOVS     r5,#0
        0x00013940:    4c38        8L      LDR      r4,[pc,#224] ; [0x13a24] = 0xf4240
        0x00013942:    f7fcfd2d    ..-.    BL       HAL_DisableIrq ; 0x103a0
        0x00013946:    4938        8I      LDR      r1,[pc,#224] ; [0x13a28] = 0xe0042000
        0x00013948:    f8d10100    ....    LDR      r0,[r1,#0x100]
        0x0001394c:    f0200001     ...    BIC      r0,r0,#1
        0x00013950:    f8c10100    ....    STR      r0,[r1,#0x100]
        0x00013954:    f8d12104    ...!    LDR      r2,[r1,#0x104]
        0x00013958:    f0120f03    ....    TST      r2,#3
        0x0001395c:    d002        ..      BEQ      0x13964 ; HAL_ICACHE_Disable + 40
        0x0001395e:    1e64        d.      SUBS     r4,r4,#1
        0x00013960:    d1f8        ..      BNE      0x13954 ; HAL_ICACHE_Disable + 24
        0x00013962:    e001        ..      B        0x13968 ; HAL_ICACHE_Disable + 44
        0x00013964:    2c00        .,      CMP      r4,#0
        0x00013966:    dc01        ..      BGT      0x1396c ; HAL_ICACHE_Disable + 48
        0x00013968:    2503        .%      MOVS     r5,#3
        0x0001396a:    e005        ..      B        0x13978 ; HAL_ICACHE_Disable + 60
        0x0001396c:    6a48        Hj      LDR      r0,[r1,#0x24]
        0x0001396e:    f0200001     ...    BIC      r0,r0,#1
        0x00013972:    6248        Hb      STR      r0,[r1,#0x24]
        0x00013974:    f7fcfd15    ....    BL       HAL_EnableIrq ; 0x103a2
        0x00013978:    4628        (F      MOV      r0,r5
        0x0001397a:    bd70        p.      POP      {r4-r6,pc}
    HAL_ICACHE_Invalid
        0x0001397c:    2000        .       MOVS     r0,#0
        0x0001397e:    4770        pG      BX       lr
    HAL_ICACHE_Flush
        0x00013980:    2000        .       MOVS     r0,#0
        0x00013982:    4770        pG      BX       lr
    HAL_DCACHE_Enable
        0x00013984:    b510        ..      PUSH     {r4,lr}
        0x00013986:    2400        .$      MOVS     r4,#0
        0x00013988:    f7fcfd0a    ....    BL       HAL_DisableIrq ; 0x103a0
        0x0001398c:    4926        &I      LDR      r1,[pc,#152] ; [0x13a28] = 0xe0042000
        0x0001398e:    2200        ."      MOVS     r2,#0
        0x00013990:    0113        ..      LSLS     r3,r2,#4
        0x00013992:    60cb        .`      STR      r3,[r1,#0xc]
        0x00013994:    f1030010    ....    ADD      r0,r3,#0x10
        0x00013998:    60c8        .`      STR      r0,[r1,#0xc]
        0x0001399a:    1c92        ..      ADDS     r2,r2,#2
        0x0001399c:    f5b27f00    ....    CMP      r2,#0x200
        0x000139a0:    d3f6        ..      BCC      0x13990 ; HAL_DCACHE_Enable + 12
        0x000139a2:    6a48        Hj      LDR      r0,[r1,#0x24]
        0x000139a4:    f0400002    @...    ORR      r0,r0,#2
        0x000139a8:    6248        Hb      STR      r0,[r1,#0x24]
        0x000139aa:    f7fcfcfa    ....    BL       HAL_EnableIrq ; 0x103a2
        0x000139ae:    4620         F      MOV      r0,r4
        0x000139b0:    bd10        ..      POP      {r4,pc}
    HAL_DCACHE_Disable
        0x000139b2:    b510        ..      PUSH     {r4,lr}
        0x000139b4:    2400        .$      MOVS     r4,#0
        0x000139b6:    f7fcfcf3    ....    BL       HAL_DisableIrq ; 0x103a0
        0x000139ba:    491b        .I      LDR      r1,[pc,#108] ; [0x13a28] = 0xe0042000
        0x000139bc:    2200        ."      MOVS     r2,#0
        0x000139be:    0113        ..      LSLS     r3,r2,#4
        0x000139c0:    60cb        .`      STR      r3,[r1,#0xc]
        0x000139c2:    f1030010    ....    ADD      r0,r3,#0x10
        0x000139c6:    60c8        .`      STR      r0,[r1,#0xc]
        0x000139c8:    1c92        ..      ADDS     r2,r2,#2
        0x000139ca:    f5b27f00    ....    CMP      r2,#0x200
        0x000139ce:    d3f6        ..      BCC      0x139be ; HAL_DCACHE_Disable + 12
        0x000139d0:    6a48        Hj      LDR      r0,[r1,#0x24]
        0x000139d2:    f0200002     ...    BIC      r0,r0,#2
        0x000139d6:    6248        Hb      STR      r0,[r1,#0x24]
        0x000139d8:    f7fcfce3    ....    BL       HAL_EnableIrq ; 0x103a2
        0x000139dc:    4620         F      MOV      r0,r4
        0x000139de:    bd10        ..      POP      {r4,pc}
    HAL_DCACHE_InvalidAll
        0x000139e0:    b510        ..      PUSH     {r4,lr}
        0x000139e2:    2400        .$      MOVS     r4,#0
        0x000139e4:    f7fcfcdc    ....    BL       HAL_DisableIrq ; 0x103a0
        0x000139e8:    4a0f        .J      LDR      r2,[pc,#60] ; [0x13a28] = 0xe0042000
        0x000139ea:    2100        .!      MOVS     r1,#0
        0x000139ec:    010b        ..      LSLS     r3,r1,#4
        0x000139ee:    60d3        .`      STR      r3,[r2,#0xc]
        0x000139f0:    f1030010    ....    ADD      r0,r3,#0x10
        0x000139f4:    60d0        .`      STR      r0,[r2,#0xc]
        0x000139f6:    1c89        ..      ADDS     r1,r1,#2
        0x000139f8:    f5b17f00    ....    CMP      r1,#0x200
        0x000139fc:    d3f6        ..      BCC      0x139ec ; HAL_DCACHE_InvalidAll + 12
        0x000139fe:    f7fcfcd0    ....    BL       HAL_EnableIrq ; 0x103a2
        0x00013a02:    4620         F      MOV      r0,r4
        0x00013a04:    bd10        ..      POP      {r4,pc}
    HAL_DCACHE_InvalidLine
        0x00013a06:    b570        p.      PUSH     {r4-r6,lr}
        0x00013a08:    2500        .%      MOVS     r5,#0
        0x00013a0a:    4604        .F      MOV      r4,r0
        0x00013a0c:    f7fcfcc8    ....    BL       HAL_DisableIrq ; 0x103a0
        0x00013a10:    4905        .I      LDR      r1,[pc,#20] ; [0x13a28] = 0xe0042000
        0x00013a12:    0120         .      LSLS     r0,r4,#4
        0x00013a14:    60c8        .`      STR      r0,[r1,#0xc]
        0x00013a16:    f7fcfcc4    ....    BL       HAL_EnableIrq ; 0x103a2
        0x00013a1a:    4628        (F      MOV      r0,r5
        0x00013a1c:    bd70        p.      POP      {r4-r6,pc}
    HAL_DCACHE_Flush
        0x00013a1e:    2000        .       MOVS     r0,#0
        0x00013a20:    4770        pG      BX       lr
    $d
        0x00013a22:    0000        ..      DCW    0
        0x00013a24:    000f4240    @B..    DCD    1000000
        0x00013a28:    e0042000    . ..    DCD    3758366720
    $t
    .text
    HAL_DMA_IRQHandler
        0x00013a2c:    e92d47f0    -..G    PUSH     {r4-r10,lr}
        0x00013a30:    48fe        .H      LDR      r0,[pc,#1016] ; [0x13e2c] = 0x40020000
        0x00013a32:    4dfd        .M      LDR      r5,[pc,#1012] ; [0x13e28] = 0xc001af88
        0x00013a34:    f8d06ff0    ...o    LDR      r6,[r0,#0xff0]
        0x00013a38:    2400        .$      MOVS     r4,#0
        0x00013a3a:    4ffd        .O      LDR      r7,[pc,#1012] ; [0x13e30] = 0xc0019dac
        0x00013a3c:    46a2        .F      MOV      r10,r4
        0x00013a3e:    f04f0801    O...    MOV      r8,#1
        0x00013a42:    f06f09ff    o...    MVN      r9,#0xff
        0x00013a46:    bf00        ..      NOP      
        0x00013a48:    fa08f004    ....    LSL      r0,r8,r4
        0x00013a4c:    4230        0B      TST      r0,r6
        0x00013a4e:    bf1c        ..      ITT      NE
        0x00013a50:    f8551024    U.$.    LDRNE    r1,[r5,r4,LSL #2]
        0x00013a54:    2900        .)      CMPNE    r1,#0
        0x00013a56:    d014        ..      BEQ      0x13a82 ; HAL_DMA_IRQHandler + 86
        0x00013a58:    6809        .h      LDR      r1,[r1,#0]
        0x00013a5a:    f8d12ff0    .../    LDR      r2,[r1,#0xff0]
        0x00013a5e:    ea220000    "...    BIC      r0,r2,r0
        0x00013a62:    f8c10ff0    ....    STR      r0,[r1,#0xff0]
        0x00013a66:    f8550024    U.$.    LDR      r0,[r5,r4,LSL #2]
        0x00013a6a:    f880a00a    ....    STRB     r10,[r0,#0xa]
        0x00013a6e:    f8550024    U.$.    LDR      r0,[r5,r4,LSL #2]
        0x00013a72:    7a41        Az      LDRB     r1,[r0,#9]
        0x00013a74:    2902        .)      CMP      r1,#2
        0x00013a76:    d009        ..      BEQ      0x13a8c ; HAL_DMA_IRQHandler + 96
        0x00013a78:    6903        .i      LDR      r3,[r0,#0x10]
        0x00013a7a:    b113        ..      CBZ      r3,0x13a82 ; HAL_DMA_IRQHandler + 86
        0x00013a7c:    2200        ."      MOVS     r2,#0
        0x00013a7e:    4611        .F      MOV      r1,r2
        0x00013a80:    4798        .G      BLX      r3
        0x00013a82:    1c64        d.      ADDS     r4,r4,#1
        0x00013a84:    2c10        .,      CMP      r4,#0x10
        0x00013a86:    d3df        ..      BCC      0x13a48 ; HAL_DMA_IRQHandler + 28
        0x00013a88:    e8bd87f0    ....    POP      {r4-r10,pc}
        0x00013a8c:    7901        .y      LDRB     r1,[r0,#4]
        0x00013a8e:    687a        zh      LDR      r2,[r7,#4]
        0x00013a90:    eb021101    ....    ADD      r1,r2,r1,LSL #4
        0x00013a94:    6889        .h      LDR      r1,[r1,#8]
        0x00013a96:    0a09        ..      LSRS     r1,r1,#8
        0x00013a98:    d12a        *.      BNE      0x13af0 ; HAL_DMA_IRQHandler + 196
        0x00013a9a:    6903        .i      LDR      r3,[r0,#0x10]
        0x00013a9c:    b113        ..      CBZ      r3,0x13aa4 ; HAL_DMA_IRQHandler + 120
        0x00013a9e:    2200        ."      MOVS     r2,#0
        0x00013aa0:    2102        .!      MOVS     r1,#2
        0x00013aa2:    4798        .G      BLX      r3
        0x00013aa4:    f8550024    U.$.    LDR      r0,[r5,r4,LSL #2]
        0x00013aa8:    7901        .y      LDRB     r1,[r0,#4]
        0x00013aaa:    6878        xh      LDR      r0,[r7,#4]
        0x00013aac:    eb001101    ....    ADD      r1,r0,r1,LSL #4
        0x00013ab0:    688a        .h      LDR      r2,[r1,#8]
        0x00013ab2:    b2d2        ..      UXTB     r2,r2
        0x00013ab4:    608a        .`      STR      r2,[r1,#8]
        0x00013ab6:    f8551024    U.$.    LDR      r1,[r5,r4,LSL #2]
        0x00013aba:    790a        .y      LDRB     r2,[r1,#4]
        0x00013abc:    eb001202    ....    ADD      r2,r0,r2,LSL #4
        0x00013ac0:    6893        .h      LDR      r3,[r2,#8]
        0x00013ac2:    6949        Ii      LDR      r1,[r1,#0x14]
        0x00013ac4:    eb092101    ...!    ADD      r1,r9,r1,LSL #8
        0x00013ac8:    4319        .C      ORRS     r1,r1,r3
        0x00013aca:    6091        .`      STR      r1,[r2,#8]
        0x00013acc:    f8551024    U.$.    LDR      r1,[r5,r4,LSL #2]
        0x00013ad0:    7909        .y      LDRB     r1,[r1,#4]
        0x00013ad2:    eb001101    ....    ADD      r1,r0,r1,LSL #4
        0x00013ad6:    688a        .h      LDR      r2,[r1,#8]
        0x00013ad8:    f0220207    "...    BIC      r2,r2,#7
        0x00013adc:    608a        .`      STR      r2,[r1,#8]
        0x00013ade:    f8551024    U.$.    LDR      r1,[r5,r4,LSL #2]
        0x00013ae2:    7909        .y      LDRB     r1,[r1,#4]
        0x00013ae4:    eb001001    ....    ADD      r0,r0,r1,LSL #4
        0x00013ae8:    6881        .h      LDR      r1,[r0,#8]
        0x00013aea:    f0410103    A...    ORR      r1,r1,#3
        0x00013aee:    6081        .`      STR      r1,[r0,#8]
        0x00013af0:    f8550024    U.$.    LDR      r0,[r5,r4,LSL #2]
        0x00013af4:    6879        yh      LDR      r1,[r7,#4]
        0x00013af6:    7902        .y      LDRB     r2,[r0,#4]
        0x00013af8:    eb011102    ....    ADD      r1,r1,r2,LSL #4
        0x00013afc:    f8d11108    ....    LDR      r1,[r1,#0x108]
        0x00013b00:    0a09        ..      LSRS     r1,r1,#8
        0x00013b02:    d1be        ..      BNE      0x13a82 ; HAL_DMA_IRQHandler + 86
        0x00013b04:    6903        .i      LDR      r3,[r0,#0x10]
        0x00013b06:    b113        ..      CBZ      r3,0x13b0e ; HAL_DMA_IRQHandler + 226
        0x00013b08:    2200        ."      MOVS     r2,#0
        0x00013b0a:    2103        .!      MOVS     r1,#3
        0x00013b0c:    4798        .G      BLX      r3
        0x00013b0e:    f8550024    U.$.    LDR      r0,[r5,r4,LSL #2]
        0x00013b12:    7901        .y      LDRB     r1,[r0,#4]
        0x00013b14:    6878        xh      LDR      r0,[r7,#4]
        0x00013b16:    eb001101    ....    ADD      r1,r0,r1,LSL #4
        0x00013b1a:    f8d12108    ...!    LDR      r2,[r1,#0x108]
        0x00013b1e:    b2d2        ..      UXTB     r2,r2
        0x00013b20:    f8c12108    ...!    STR      r2,[r1,#0x108]
        0x00013b24:    f8551024    U.$.    LDR      r1,[r5,r4,LSL #2]
        0x00013b28:    790a        .y      LDRB     r2,[r1,#4]
        0x00013b2a:    eb001202    ....    ADD      r2,r0,r2,LSL #4
        0x00013b2e:    f8d23108    ...1    LDR      r3,[r2,#0x108]
        0x00013b32:    6949        Ii      LDR      r1,[r1,#0x14]
        0x00013b34:    eb092101    ...!    ADD      r1,r9,r1,LSL #8
        0x00013b38:    4319        .C      ORRS     r1,r1,r3
        0x00013b3a:    f8c21108    ....    STR      r1,[r2,#0x108]
        0x00013b3e:    f8551024    U.$.    LDR      r1,[r5,r4,LSL #2]
        0x00013b42:    7909        .y      LDRB     r1,[r1,#4]
        0x00013b44:    eb001101    ....    ADD      r1,r0,r1,LSL #4
        0x00013b48:    f8d12108    ...!    LDR      r2,[r1,#0x108]
        0x00013b4c:    f0220207    "...    BIC      r2,r2,#7
        0x00013b50:    f8c12108    ...!    STR      r2,[r1,#0x108]
        0x00013b54:    f8551024    U.$.    LDR      r1,[r5,r4,LSL #2]
        0x00013b58:    7909        .y      LDRB     r1,[r1,#4]
        0x00013b5a:    eb001001    ....    ADD      r0,r0,r1,LSL #4
        0x00013b5e:    f8d01108    ....    LDR      r1,[r0,#0x108]
        0x00013b62:    f0410103    A...    ORR      r1,r1,#3
        0x00013b66:    f8c01108    ....    STR      r1,[r0,#0x108]
        0x00013b6a:    e78a        ..      B        0x13a82 ; HAL_DMA_IRQHandler + 86
    HAL_DMA_Request_Channel
        0x00013b6c:    b430        0.      PUSH     {r4,r5}
        0x00013b6e:    2300        .#      MOVS     r3,#0
        0x00013b70:    f1a04c80    ...L    SUB      r12,r0,#0x40000000
        0x00013b74:    f5bc3c00    ...<    SUBS     r12,r12,#0x20000
        0x00013b78:    bf1e        ..      ITTT     NE
        0x00013b7a:    2004        .       MOVNE    r0,#4
        0x00013b7c:    bc30        0.      POPNE    {r4,r5}
        0x00013b7e:    4770        pG      BXNE     lr
        0x00013b80:    f8dfc2a4    ....    LDR      r12,[pc,#676] ; [0x13e28] = 0xc001af88
        0x00013b84:    2900        .)      CMP      r1,#0
        0x00013b86:    f04f0000    O...    MOV      r0,#0
        0x00013b8a:    bf18        ..      IT       NE
        0x00013b8c:    4ba9        .K      LDRNE    r3,[pc,#676] ; [0x13e34] = 0xc0019db4
        0x00013b8e:    d00f        ..      BEQ      0x13bb0 ; HAL_DMA_Request_Channel + 68
        0x00013b90:    eb000440    ..@.    ADD      r4,r0,r0,LSL #1
        0x00013b94:    18e5        ..      ADDS     r5,r4,r3
        0x00013b96:    78ad        .x      LDRB     r5,[r5,#2]
        0x00013b98:    428d        .B      CMP      r5,r1
        0x00013b9a:    d103        ..      BNE      0x13ba4 ; HAL_DMA_Request_Channel + 56
        0x00013b9c:    5d1d        .]      LDRB     r5,[r3,r4]
        0x00013b9e:    f85c5025    \.%P    LDR      r5,[r12,r5,LSL #2]
        0x00013ba2:    b175        u.      CBZ      r5,0x13bc2 ; HAL_DMA_Request_Channel + 86
        0x00013ba4:    1c40        @.      ADDS     r0,r0,#1
        0x00013ba6:    288c        .(      CMP      r0,#0x8c
        0x00013ba8:    d3f2        ..      BCC      0x13b90 ; HAL_DMA_Request_Channel + 36
        0x00013baa:    bc30        0.      POP      {r4,r5}
        0x00013bac:    2002        .       MOVS     r0,#2
        0x00013bae:    4770        pG      BX       lr
        0x00013bb0:    f85c1020    \. .    LDR      r1,[r12,r0,LSL #2]
        0x00013bb4:    b119        ..      CBZ      r1,0x13bbe ; HAL_DMA_Request_Channel + 82
        0x00013bb6:    1c40        @.      ADDS     r0,r0,#1
        0x00013bb8:    2810        .(      CMP      r0,#0x10
        0x00013bba:    d3f9        ..      BCC      0x13bb0 ; HAL_DMA_Request_Channel + 68
        0x00013bbc:    e7f5        ..      B        0x13baa ; HAL_DMA_Request_Channel + 62
        0x00013bbe:    b2c0        ..      UXTB     r0,r0
        0x00013bc0:    e004        ..      B        0x13bcc ; HAL_DMA_Request_Channel + 96
        0x00013bc2:    eb000040    ..@.    ADD      r0,r0,r0,LSL #1
        0x00013bc6:    18e1        ..      ADDS     r1,r4,r3
        0x00013bc8:    5c18        .\      LDRB     r0,[r3,r0]
        0x00013bca:    784b        Kx      LDRB     r3,[r1,#1]
        0x00013bcc:    7010        .p      STRB     r0,[r2,#0]
        0x00013bce:    7053        Sp      STRB     r3,[r2,#1]
        0x00013bd0:    bc30        0.      POP      {r4,r5}
        0x00013bd2:    2000        .       MOVS     r0,#0
        0x00013bd4:    4770        pG      BX       lr
    HAL_DMA_Init
        0x00013bd6:    b570        p.      PUSH     {r4-r6,lr}
        0x00013bd8:    4606        .F      MOV      r6,r0
        0x00013bda:    4614        .F      MOV      r4,r2
        0x00013bdc:    460d        .F      MOV      r5,r1
        0x00013bde:    2004        .       MOVS     r0,#4
        0x00013be0:    f7fff87d    ..}.    BL       HAL_CLOCK_PeripheralClockEnable0 ; 0x12cde
        0x00013be4:    2002        .       MOVS     r0,#2
        0x00013be6:    f7fefbbd    ....    BL       HAL_Reset_Module ; 0x12364
        0x00013bea:    2800        .(      CMP      r0,#0
        0x00013bec:    bf18        ..      IT       NE
        0x00013bee:    bd70        p.      POPNE    {r4-r6,pc}
        0x00013bf0:    6830        0h      LDR      r0,[r6,#0]
        0x00013bf2:    6870        ph      LDR      r0,[r6,#4]
        0x00013bf4:    f0400001    @...    ORR      r0,r0,#1
        0x00013bf8:    6070        p`      STR      r0,[r6,#4]
        0x00013bfa:    4a8d        .J      LDR      r2,[pc,#564] ; [0x13e30] = 0xc0019dac
        0x00013bfc:    2101        .!      MOVS     r1,#1
        0x00013bfe:    7810        .x      LDRB     r0,[r2,#0]
        0x00013c00:    2800        .(      CMP      r0,#0
        0x00013c02:    bf08        ..      IT       EQ
        0x00013c04:    7011        .p      STRBEQ   r1,[r2,#0]
        0x00013c06:    f1a64080    ...@    SUB      r0,r6,#0x40000000
        0x00013c0a:    f5b03000    ...0    SUBS     r0,r0,#0x20000
        0x00013c0e:    bf1c        ..      ITT      NE
        0x00013c10:    2004        .       MOVNE    r0,#4
        0x00013c12:    bd70        p.      POPNE    {r4-r6,pc}
        0x00013c14:    7828        (x      LDRB     r0,[r5,#0]
        0x00013c16:    4b84        .K      LDR      r3,[pc,#528] ; [0x13e28] = 0xc001af88
        0x00013c18:    f853c020    S. .    LDR      r12,[r3,r0,LSL #2]
        0x00013c1c:    f1bc0f00    ....    CMP      r12,#0
        0x00013c20:    bf1c        ..      ITT      NE
        0x00013c22:    2002        .       MOVNE    r0,#2
        0x00013c24:    bd70        p.      POPNE    {r4-r6,pc}
        0x00013c26:    f8434020    C. @    STR      r4,[r3,r0,LSL #2]
        0x00013c2a:    6026        &`      STR      r6,[r4,#0]
        0x00013c2c:    782b        +x      LDRB     r3,[r5,#0]
        0x00013c2e:    7123        #q      STRB     r3,[r4,#4]
        0x00013c30:    786b        kx      LDRB     r3,[r5,#1]
        0x00013c32:    7163        cq      STRB     r3,[r4,#5]
        0x00013c34:    78ab        .x      LDRB     r3,[r5,#2]
        0x00013c36:    71a3        .q      STRB     r3,[r4,#6]
        0x00013c38:    78eb        .x      LDRB     r3,[r5,#3]
        0x00013c3a:    71e3        .q      STRB     r3,[r4,#7]
        0x00013c3c:    792b        +y      LDRB     r3,[r5,#4]
        0x00013c3e:    7223        #r      STRB     r3,[r4,#8]
        0x00013c40:    79eb        .y      LDRB     r3,[r5,#7]
        0x00013c42:    7263        cr      STRB     r3,[r4,#9]
        0x00013c44:    68ab        .h      LDR      r3,[r5,#8]
        0x00013c46:    6123        #a      STR      r3,[r4,#0x10]
        0x00013c48:    2300        .#      MOVS     r3,#0
        0x00013c4a:    72a3        .r      STRB     r3,[r4,#0xa]
        0x00013c4c:    7920         y      LDRB     r0,[r4,#4]
        0x00013c4e:    f8d4c000    ....    LDR      r12,[r4,#0]
        0x00013c52:    fa01f000    ....    LSL      r0,r1,r0
        0x00013c56:    f8cc002c    ..,.    STR      r0,[r12,#0x2c]
        0x00013c5a:    6820         h      LDR      r0,[r4,#0]
        0x00013c5c:    f8d0cfec    ....    LDR      r12,[r0,#0xfec]
        0x00013c60:    7926        &y      LDRB     r6,[r4,#4]
        0x00013c62:    fa01f606    ....    LSL      r6,r1,r6
        0x00013c66:    ea2c0c06    ,...    BIC      r12,r12,r6
        0x00013c6a:    f8c0cfec    ....    STR      r12,[r0,#0xfec]
        0x00013c6e:    6820         h      LDR      r0,[r4,#0]
        0x00013c70:    f8d0cff0    ....    LDR      r12,[r0,#0xff0]
        0x00013c74:    7926        &y      LDRB     r6,[r4,#4]
        0x00013c76:    fa01f606    ....    LSL      r6,r1,r6
        0x00013c7a:    ea2c0c06    ,...    BIC      r12,r12,r6
        0x00013c7e:    f8c0cff0    ....    STR      r12,[r0,#0xff0]
        0x00013c82:    6820         h      LDR      r0,[r4,#0]
        0x00013c84:    f8d0c04c    ..L.    LDR      r12,[r0,#0x4c]
        0x00013c88:    7926        &y      LDRB     r6,[r4,#4]
        0x00013c8a:    fa01f606    ....    LSL      r6,r1,r6
        0x00013c8e:    ea4c0c06    L...    ORR      r12,r12,r6
        0x00013c92:    f8c0c04c    ..L.    STR      r12,[r0,#0x4c]
        0x00013c96:    79e8        .y      LDRB     r0,[r5,#7]
        0x00013c98:    2801        .(      CMP      r0,#1
        0x00013c9a:    bf18        ..      IT       NE
        0x00013c9c:    2802        .(      CMPNE    r0,#2
        0x00013c9e:    d12a        *.      BNE      0x13cf6 ; HAL_DMA_Init + 288
        0x00013ca0:    f894c004    ....    LDRB     r12,[r4,#4]
        0x00013ca4:    6850        Ph      LDR      r0,[r2,#4]
        0x00013ca6:    eb001c0c    ....    ADD      r12,r0,r12,LSL #4
        0x00013caa:    f8cc3108    ...1    STR      r3,[r12,#0x108]
        0x00013cae:    f895c004    ....    LDRB     r12,[r5,#4]
        0x00013cb2:    796e        ny      LDRB     r6,[r5,#5]
        0x00013cb4:    ea4f1c8c    O...    LSL      r12,r12,#6
        0x00013cb8:    ea4c1c06    L...    ORR      r12,r12,r6,LSL #4
        0x00013cbc:    7926        &y      LDRB     r6,[r4,#4]
        0x00013cbe:    f04c0c08    L...    ORR      r12,r12,#8
        0x00013cc2:    eb001606    ....    ADD      r6,r0,r6,LSL #4
        0x00013cc6:    f8c6c108    ....    STR      r12,[r6,#0x108]
        0x00013cca:    f895c007    ....    LDRB     r12,[r5,#7]
        0x00013cce:    f1bc0f02    ....    CMP      r12,#2
        0x00013cd2:    d016        ..      BEQ      0x13d02 ; HAL_DMA_Init + 300
        0x00013cd4:    f895c002    ....    LDRB     r12,[r5,#2]
        0x00013cd8:    f1bc0f00    ....    CMP      r12,#0
        0x00013cdc:    f894c004    ....    LDRB     r12,[r4,#4]
        0x00013ce0:    eb00100c    ....    ADD      r0,r0,r12,LSL #4
        0x00013ce4:    f8d0c108    ....    LDR      r12,[r0,#0x108]
        0x00013ce8:    bf0c        ..      ITE      EQ
        0x00013cea:    f04c0c02    L...    ORREQ    r12,r12,#2
        0x00013cee:    f04c0c01    L...    ORRNE    r12,r12,#1
        0x00013cf2:    f8c0c108    ....    STR      r12,[r0,#0x108]
        0x00013cf6:    79e8        .y      LDRB     r0,[r5,#7]
        0x00013cf8:    2800        .(      CMP      r0,#0
        0x00013cfa:    bf18        ..      IT       NE
        0x00013cfc:    2802        .(      CMPNE    r0,#2
        0x00013cfe:    d00b        ..      BEQ      0x13d18 ; HAL_DMA_Init + 322
        0x00013d00:    e02e        ..      B        0x13d60 ; HAL_DMA_Init + 394
        0x00013d02:    f895c000    ....    LDRB     r12,[r5,#0]
        0x00013d06:    eb00100c    ....    ADD      r0,r0,r12,LSL #4
        0x00013d0a:    f8d0c108    ....    LDR      r12,[r0,#0x108]
        0x00013d0e:    f04c0c03    L...    ORR      r12,r12,#3
        0x00013d12:    f8c0c108    ....    STR      r12,[r0,#0x108]
        0x00013d16:    e7ee        ..      B        0x13cf6 ; HAL_DMA_Init + 288
        0x00013d18:    f894c004    ....    LDRB     r12,[r4,#4]
        0x00013d1c:    6850        Ph      LDR      r0,[r2,#4]
        0x00013d1e:    eb001c0c    ....    ADD      r12,r0,r12,LSL #4
        0x00013d22:    f8cc3008    ...0    STR      r3,[r12,#8]
        0x00013d26:    792b        +y      LDRB     r3,[r5,#4]
        0x00013d28:    f895c005    ....    LDRB     r12,[r5,#5]
        0x00013d2c:    019b        ..      LSLS     r3,r3,#6
        0x00013d2e:    ea43130c    C...    ORR      r3,r3,r12,LSL #4
        0x00013d32:    f894c004    ....    LDRB     r12,[r4,#4]
        0x00013d36:    f0430308    C...    ORR      r3,r3,#8
        0x00013d3a:    eb001c0c    ....    ADD      r12,r0,r12,LSL #4
        0x00013d3e:    f8cc3008    ...0    STR      r3,[r12,#8]
        0x00013d42:    79eb        .y      LDRB     r3,[r5,#7]
        0x00013d44:    2b02        .+      CMP      r3,#2
        0x00013d46:    d04c        L.      BEQ      0x13de2 ; HAL_DMA_Init + 524
        0x00013d48:    78ab        .x      LDRB     r3,[r5,#2]
        0x00013d4a:    2b00        .+      CMP      r3,#0
        0x00013d4c:    7923        #y      LDRB     r3,[r4,#4]
        0x00013d4e:    eb001003    ....    ADD      r0,r0,r3,LSL #4
        0x00013d52:    6883        .h      LDR      r3,[r0,#8]
        0x00013d54:    bf0c        ..      ITE      EQ
        0x00013d56:    f0430302    C...    ORREQ    r3,r3,#2
        0x00013d5a:    f0430301    C...    ORRNE    r3,r3,#1
        0x00013d5e:    6083        .`      STR      r3,[r0,#8]
        0x00013d60:    6850        Ph      LDR      r0,[r2,#4]
        0x00013d62:    6822        "h      LDR      r2,[r4,#0]
        0x00013d64:    6090        .`      STR      r0,[r2,#8]
        0x00013d66:    6822        "h      LDR      r2,[r4,#0]
        0x00013d68:    f5007080    ...p    ADD      r0,r0,#0x100
        0x00013d6c:    60d0        .`      STR      r0,[r2,#0xc]
        0x00013d6e:    78a8        .x      LDRB     r0,[r5,#2]
        0x00013d70:    2800        .(      CMP      r0,#0
        0x00013d72:    7920         y      LDRB     r0,[r4,#4]
        0x00013d74:    bf08        ..      IT       EQ
        0x00013d76:    fa01f000    ....    LSLEQ    r0,r1,r0
        0x00013d7a:    6822        "h      LDR      r2,[r4,#0]
        0x00013d7c:    bf0c        ..      ITE      EQ
        0x00013d7e:    6210        .b      STREQ    r0,[r2,#0x20]
        0x00013d80:    6250        Pb      STRNE    r0,[r2,#0x24]
        0x00013d82:    79e8        .y      LDRB     r0,[r5,#7]
        0x00013d84:    6822        "h      LDR      r2,[r4,#0]
        0x00013d86:    2801        .(      CMP      r0,#1
        0x00013d88:    7920         y      LDRB     r0,[r4,#4]
        0x00013d8a:    fa01f000    ....    LSL      r0,r1,r0
        0x00013d8e:    bf0c        ..      ITE      EQ
        0x00013d90:    6310        .c      STREQ    r0,[r2,#0x30]
        0x00013d92:    6350        Pc      STRNE    r0,[r2,#0x34]
        0x00013d94:    79a8        .y      LDRB     r0,[r5,#6]
        0x00013d96:    6822        "h      LDR      r2,[r4,#0]
        0x00013d98:    2801        .(      CMP      r0,#1
        0x00013d9a:    7920         y      LDRB     r0,[r4,#4]
        0x00013d9c:    fa01f000    ....    LSL      r0,r1,r0
        0x00013da0:    bf0c        ..      ITE      EQ
        0x00013da2:    6390        .c      STREQ    r0,[r2,#0x38]
        0x00013da4:    63d0        .c      STRNE    r0,[r2,#0x3c]
        0x00013da6:    7920         y      LDRB     r0,[r4,#4]
        0x00013da8:    7963        cy      LDRB     r3,[r4,#5]
        0x00013daa:    220f        ."      MOVS     r2,#0xf
        0x00013dac:    f003030f    ....    AND      r3,r3,#0xf
        0x00013db0:    2808        .(      CMP      r0,#8
        0x00013db2:    7163        cq      STRB     r3,[r4,#5]
        0x00013db4:    d21d        ..      BCS      0x13df2 ; HAL_DMA_Init + 540
        0x00013db6:    6823        #h      LDR      r3,[r4,#0]
        0x00013db8:    f8d3cff4    ....    LDR      r12,[r3,#0xff4]
        0x00013dbc:    0080        ..      LSLS     r0,r0,#2
        0x00013dbe:    fa02f000    ....    LSL      r0,r2,r0
        0x00013dc2:    ea2c0000    ,...    BIC      r0,r12,r0
        0x00013dc6:    f8c30ff4    ....    STR      r0,[r3,#0xff4]
        0x00013dca:    7922        "y      LDRB     r2,[r4,#4]
        0x00013dcc:    7960        `y      LDRB     r0,[r4,#5]
        0x00013dce:    0092        ..      LSLS     r2,r2,#2
        0x00013dd0:    fa00f202    ....    LSL      r2,r0,r2
        0x00013dd4:    6820         h      LDR      r0,[r4,#0]
        0x00013dd6:    f8d03ff4    ...?    LDR      r3,[r0,#0xff4]
        0x00013dda:    431a        .C      ORRS     r2,r2,r3
        0x00013ddc:    f8c02ff4    .../    STR      r2,[r0,#0xff4]
        0x00013de0:    e01c        ..      B        0x13e1c ; HAL_DMA_Init + 582
        0x00013de2:    782b        +x      LDRB     r3,[r5,#0]
        0x00013de4:    eb001003    ....    ADD      r0,r0,r3,LSL #4
        0x00013de8:    6883        .h      LDR      r3,[r0,#8]
        0x00013dea:    f0430303    C...    ORR      r3,r3,#3
        0x00013dee:    6083        .`      STR      r3,[r0,#8]
        0x00013df0:    e7b6        ..      B        0x13d60 ; HAL_DMA_Init + 394
        0x00013df2:    0080        ..      LSLS     r0,r0,#2
        0x00013df4:    3820         8      SUBS     r0,r0,#0x20
        0x00013df6:    4082        .@      LSLS     r2,r2,r0
        0x00013df8:    6820         h      LDR      r0,[r4,#0]
        0x00013dfa:    f8d03ff8    ...?    LDR      r3,[r0,#0xff8]
        0x00013dfe:    ea230202    #...    BIC      r2,r3,r2
        0x00013e02:    f8c02ff8    .../    STR      r2,[r0,#0xff8]
        0x00013e06:    7920         y      LDRB     r0,[r4,#4]
        0x00013e08:    7962        by      LDRB     r2,[r4,#5]
        0x00013e0a:    0080        ..      LSLS     r0,r0,#2
        0x00013e0c:    3820         8      SUBS     r0,r0,#0x20
        0x00013e0e:    4082        .@      LSLS     r2,r2,r0
        0x00013e10:    6820         h      LDR      r0,[r4,#0]
        0x00013e12:    f8d03ff8    ...?    LDR      r3,[r0,#0xff8]
        0x00013e16:    431a        .C      ORRS     r2,r2,r3
        0x00013e18:    f8c02ff8    .../    STR      r2,[r0,#0xff8]
        0x00013e1c:    6820         h      LDR      r0,[r4,#0]
        0x00013e1e:    f8d02fe8    .../    LDR      r2,[r0,#0xfe8]
        0x00013e22:    7923        #y      LDRB     r3,[r4,#4]
        0x00013e24:    005b        [.      LSLS     r3,r3,#1
        0x00013e26:    e007        ..      B        0x13e38 ; HAL_DMA_Init + 610
    $d
        0x00013e28:    c001af88    ....    DCD    3221335944
        0x00013e2c:    40020000    ...@    DCD    1073872896
        0x00013e30:    c0019dac    ....    DCD    3221331372
        0x00013e34:    c0019db4    ....    DCD    3221331380
    $t
        0x00013e38:    f04f0c03    O...    MOV      r12,#3
        0x00013e3c:    fa0cf303    ....    LSL      r3,r12,r3
        0x00013e40:    439a        .C      BICS     r2,r2,r3
        0x00013e42:    f8c02fe8    .../    STR      r2,[r0,#0xfe8]
        0x00013e46:    7922        "y      LDRB     r2,[r4,#4]
        0x00013e48:    78e8        .x      LDRB     r0,[r5,#3]
        0x00013e4a:    0052        R.      LSLS     r2,r2,#1
        0x00013e4c:    fa00f202    ....    LSL      r2,r0,r2
        0x00013e50:    6820         h      LDR      r0,[r4,#0]
        0x00013e52:    f8d03fe8    ...?    LDR      r3,[r0,#0xfe8]
        0x00013e56:    431a        .C      ORRS     r2,r2,r3
        0x00013e58:    f8c02fe8    .../    STR      r2,[r0,#0xfe8]
        0x00013e5c:    72a1        .r      STRB     r1,[r4,#0xa]
        0x00013e5e:    2000        .       MOVS     r0,#0
        0x00013e60:    bd70        p.      POP      {r4-r6,pc}
    HAL_DMA_Abort
        0x00013e62:    7a82        .z      LDRB     r2,[r0,#0xa]
        0x00013e64:    7901        .y      LDRB     r1,[r0,#4]
        0x00013e66:    2a02        .*      CMP      r2,#2
        0x00013e68:    bf04        ..      ITT      EQ
        0x00013e6a:    2001        .       MOVEQ    r0,#1
        0x00013e6c:    4770        pG      BXEQ     lr
        0x00013e6e:    2201        ."      MOVS     r2,#1
        0x00013e70:    6803        .h      LDR      r3,[r0,#0]
        0x00013e72:    408a        .@      LSLS     r2,r2,r1
        0x00013e74:    62da        .b      STR      r2,[r3,#0x2c]
        0x00013e76:    6803        .h      LDR      r3,[r0,#0]
        0x00013e78:    f8d3cfec    ....    LDR      r12,[r3,#0xfec]
        0x00013e7c:    ea2c0c02    ,...    BIC      r12,r12,r2
        0x00013e80:    f8c3cfec    ....    STR      r12,[r3,#0xfec]
        0x00013e84:    6803        .h      LDR      r3,[r0,#0]
        0x00013e86:    f8d3cff0    ....    LDR      r12,[r3,#0xff0]
        0x00013e8a:    ea2c0c02    ,...    BIC      r12,r12,r2
        0x00013e8e:    f8c3cff0    ....    STR      r12,[r3,#0xff0]
        0x00013e92:    6803        .h      LDR      r3,[r0,#0]
        0x00013e94:    f8d3c04c    ..L.    LDR      r12,[r3,#0x4c]
        0x00013e98:    ea4c0202    L...    ORR      r2,r12,r2
        0x00013e9c:    64da        .d      STR      r2,[r3,#0x4c]
        0x00013e9e:    4bde        .K      LDR      r3,[pc,#888] ; [0x14218] = 0xc001af88
        0x00013ea0:    2200        ."      MOVS     r2,#0
        0x00013ea2:    f853c021    S.!.    LDR      r12,[r3,r1,LSL #2]
        0x00013ea6:    f8cc2000    ...     STR      r2,[r12,#0]
        0x00013eaa:    f8cc2004    ...     STR      r2,[r12,#4]
        0x00013eae:    f8cc2008    ...     STR      r2,[r12,#8]
        0x00013eb2:    f8cc200c    ...     STR      r2,[r12,#0xc]
        0x00013eb6:    f8cc2010    ...     STR      r2,[r12,#0x10]
        0x00013eba:    f8cc2014    ...     STR      r2,[r12,#0x14]
        0x00013ebe:    f8432021    C.!     STR      r2,[r3,r1,LSL #2]
        0x00013ec2:    7282        .r      STRB     r2,[r0,#0xa]
        0x00013ec4:    4610        .F      MOV      r0,r2
        0x00013ec6:    4770        pG      BX       lr
    HAL_DMA_Start
        0x00013ec8:    b410        ..      PUSH     {r4}
        0x00013eca:    b082        ..      SUB      sp,sp,#8
        0x00013ecc:    f1b37f80    ....    CMP      r3,#0x1000000
        0x00013ed0:    bf81        ..      ITTTT    HI
        0x00013ed2:    2004        .       MOVHI    r0,#4
        0x00013ed4:    b002        ..      ADDHI    sp,sp,#8
        0x00013ed6:    bc10        ..      POPHI    {r4}
        0x00013ed8:    4770        pG      BXHI     lr
        0x00013eda:    f0114f70    ..pO    TST      r1,#0xf0000000
        0x00013ede:    bf08        ..      IT       EQ
        0x00013ee0:    f0414140    A.@A    ORREQ    r1,r1,#0xc0000000
        0x00013ee4:    f0124f70    ..pO    TST      r2,#0xf0000000
        0x00013ee8:    bf08        ..      IT       EQ
        0x00013eea:    f0424240    B.@B    ORREQ    r2,r2,#0xc0000000
        0x00013eee:    f04f0c02    O...    MOV      r12,#2
        0x00013ef2:    f880c00a    ....    STRB     r12,[r0,#0xa]
        0x00013ef6:    f890c008    ....    LDRB     r12,[r0,#8]
        0x00013efa:    f1bc0f01    ....    CMP      r12,#1
        0x00013efe:    bf08        ..      IT       EQ
        0x00013f00:    ea4f0c43    O.C.    LSLEQ    r12,r3,#1
        0x00013f04:    d005        ..      BEQ      0x13f12 ; HAL_DMA_Start + 74
        0x00013f06:    f1bc0f02    ....    CMP      r12,#2
        0x00013f0a:    bf0c        ..      ITE      EQ
        0x00013f0c:    ea4f0c83    O...    LSLEQ    r12,r3,#2
        0x00013f10:    469c        .F      MOVNE    r12,r3
        0x00013f12:    79c4        .y      LDRB     r4,[r0,#7]
        0x00013f14:    2c00        .,      CMP      r4,#0
        0x00013f16:    bf06        ..      ITTE     EQ
        0x00013f18:    4461        aD      ADDEQ    r1,r1,r12
        0x00013f1a:    1e49        I.      SUBEQ    r1,r1,#1
        0x00013f1c:    2c01        .,      CMPNE    r4,#1
        0x00013f1e:    d002        ..      BEQ      0x13f26 ; HAL_DMA_Start + 94
        0x00013f20:    2c02        .,      CMP      r4,#2
        0x00013f22:    d006        ..      BEQ      0x13f32 ; HAL_DMA_Start + 106
        0x00013f24:    e009        ..      B        0x13f3a ; HAL_DMA_Start + 114
        0x00013f26:    9100        ..      STR      r1,[sp,#0]
        0x00013f28:    eb02010c    ....    ADD      r1,r2,r12
        0x00013f2c:    1e49        I.      SUBS     r1,r1,#1
        0x00013f2e:    9101        ..      STR      r1,[sp,#4]
        0x00013f30:    e003        ..      B        0x13f3a ; HAL_DMA_Start + 114
        0x00013f32:    4461        aD      ADD      r1,r1,r12
        0x00013f34:    1e49        I.      SUBS     r1,r1,#1
        0x00013f36:    e9cd1200    ....    STRD     r1,r2,[sp,#0]
        0x00013f3a:    f06f01ff    o...    MVN      r1,#0xff
        0x00013f3e:    eb012203    ..."    ADD      r2,r1,r3,LSL #8
        0x00013f42:    49b6        .I      LDR      r1,[pc,#728] ; [0x1421c] = 0xc0019dac
        0x00013f44:    f890c009    ....    LDRB     r12,[r0,#9]
        0x00013f48:    6849        Ih      LDR      r1,[r1,#4]
        0x00013f4a:    f1bc0f01    ....    CMP      r12,#1
        0x00013f4e:    d027        '.      BEQ      0x13fa0 ; HAL_DMA_Start + 216
        0x00013f50:    7a43        Cz      LDRB     r3,[r0,#9]
        0x00013f52:    2b00        .+      CMP      r3,#0
        0x00013f54:    d05c        \.      BEQ      0x14010 ; HAL_DMA_Start + 328
        0x00013f56:    6802        .h      LDR      r2,[r0,#0]
        0x00013f58:    f8d23fec    ...?    LDR      r3,[r2,#0xfec]
        0x00013f5c:    f890c004    ....    LDRB     r12,[r0,#4]
        0x00013f60:    2101        .!      MOVS     r1,#1
        0x00013f62:    fa01fc0c    ....    LSL      r12,r1,r12
        0x00013f66:    ea43030c    C...    ORR      r3,r3,r12
        0x00013f6a:    f8c23fec    ...?    STR      r3,[r2,#0xfec]
        0x00013f6e:    6802        .h      LDR      r2,[r0,#0]
        0x00013f70:    6a93        .j      LDR      r3,[r2,#0x28]
        0x00013f72:    f890c004    ....    LDRB     r12,[r0,#4]
        0x00013f76:    fa01fc0c    ....    LSL      r12,r1,r12
        0x00013f7a:    ea43030c    C...    ORR      r3,r3,r12
        0x00013f7e:    6293        .b      STR      r3,[r2,#0x28]
        0x00013f80:    7982        .y      LDRB     r2,[r0,#6]
        0x00013f82:    2a00        .*      CMP      r2,#0
        0x00013f84:    6802        .h      LDR      r2,[r0,#0]
        0x00013f86:    6953        Si      LDR      r3,[r2,#0x14]
        0x00013f88:    7900        .y      LDRB     r0,[r0,#4]
        0x00013f8a:    fa01f000    ....    LSL      r0,r1,r0
        0x00013f8e:    bf0c        ..      ITE      EQ
        0x00013f90:    4318        .C      ORREQ    r0,r0,r3
        0x00013f92:    ea230000    #...    BICNE    r0,r3,r0
        0x00013f96:    6150        Pa      STR      r0,[r2,#0x14]
        0x00013f98:    b002        ..      ADD      sp,sp,#8
        0x00013f9a:    2000        .       MOVS     r0,#0
        0x00013f9c:    bc10        ..      POP      {r4}
        0x00013f9e:    4770        pG      BX       lr
        0x00013fa0:    f890c004    ....    LDRB     r12,[r0,#4]
        0x00013fa4:    9b00        ..      LDR      r3,[sp,#0]
        0x00013fa6:    eb011c0c    ....    ADD      r12,r1,r12,LSL #4
        0x00013faa:    f8cc3100    ...1    STR      r3,[r12,#0x100]
        0x00013fae:    f890c004    ....    LDRB     r12,[r0,#4]
        0x00013fb2:    9b01        ..      LDR      r3,[sp,#4]
        0x00013fb4:    eb011c0c    ....    ADD      r12,r1,r12,LSL #4
        0x00013fb8:    f8cc3104    ...1    STR      r3,[r12,#0x104]
        0x00013fbc:    7903        .y      LDRB     r3,[r0,#4]
        0x00013fbe:    eb011303    ....    ADD      r3,r1,r3,LSL #4
        0x00013fc2:    f8d3c108    ....    LDR      r12,[r3,#0x108]
        0x00013fc6:    f00c0cff    ....    AND      r12,r12,#0xff
        0x00013fca:    f8c3c108    ....    STR      r12,[r3,#0x108]
        0x00013fce:    7903        .y      LDRB     r3,[r0,#4]
        0x00013fd0:    eb011303    ....    ADD      r3,r1,r3,LSL #4
        0x00013fd4:    f8d3c108    ....    LDR      r12,[r3,#0x108]
        0x00013fd8:    ea4c0c02    L...    ORR      r12,r12,r2
        0x00013fdc:    f8c3c108    ....    STR      r12,[r3,#0x108]
        0x00013fe0:    7903        .y      LDRB     r3,[r0,#4]
        0x00013fe2:    eb011303    ....    ADD      r3,r1,r3,LSL #4
        0x00013fe6:    f8d3c108    ....    LDR      r12,[r3,#0x108]
        0x00013fea:    f02c0c07    ,...    BIC      r12,r12,#7
        0x00013fee:    f8c3c108    ....    STR      r12,[r3,#0x108]
        0x00013ff2:    7983        .y      LDRB     r3,[r0,#6]
        0x00013ff4:    2b00        .+      CMP      r3,#0
        0x00013ff6:    7903        .y      LDRB     r3,[r0,#4]
        0x00013ff8:    eb011303    ....    ADD      r3,r1,r3,LSL #4
        0x00013ffc:    f8d3c108    ....    LDR      r12,[r3,#0x108]
        0x00014000:    bf14        ..      ITE      NE
        0x00014002:    f04c0c01    L...    ORRNE    r12,r12,#1
        0x00014006:    f04c0c02    L...    ORREQ    r12,r12,#2
        0x0001400a:    f8c3c108    ....    STR      r12,[r3,#0x108]
        0x0001400e:    e79f        ..      B        0x13f50 ; HAL_DMA_Start + 136
        0x00014010:    f890c004    ....    LDRB     r12,[r0,#4]
        0x00014014:    9b00        ..      LDR      r3,[sp,#0]
        0x00014016:    eb011c0c    ....    ADD      r12,r1,r12,LSL #4
        0x0001401a:    f8cc3000    ...0    STR      r3,[r12,#0]
        0x0001401e:    f890c004    ....    LDRB     r12,[r0,#4]
        0x00014022:    9b01        ..      LDR      r3,[sp,#4]
        0x00014024:    eb011c0c    ....    ADD      r12,r1,r12,LSL #4
        0x00014028:    f8cc3004    ...0    STR      r3,[r12,#4]
        0x0001402c:    7903        .y      LDRB     r3,[r0,#4]
        0x0001402e:    eb011303    ....    ADD      r3,r1,r3,LSL #4
        0x00014032:    f8d3c008    ....    LDR      r12,[r3,#8]
        0x00014036:    f00c0cff    ....    AND      r12,r12,#0xff
        0x0001403a:    f8c3c008    ....    STR      r12,[r3,#8]
        0x0001403e:    7903        .y      LDRB     r3,[r0,#4]
        0x00014040:    eb011303    ....    ADD      r3,r1,r3,LSL #4
        0x00014044:    f8d3c008    ....    LDR      r12,[r3,#8]
        0x00014048:    ea4c0202    L...    ORR      r2,r12,r2
        0x0001404c:    609a        .`      STR      r2,[r3,#8]
        0x0001404e:    7902        .y      LDRB     r2,[r0,#4]
        0x00014050:    eb011202    ....    ADD      r2,r1,r2,LSL #4
        0x00014054:    6893        .h      LDR      r3,[r2,#8]
        0x00014056:    f0230307    #...    BIC      r3,r3,#7
        0x0001405a:    6093        .`      STR      r3,[r2,#8]
        0x0001405c:    7982        .y      LDRB     r2,[r0,#6]
        0x0001405e:    2a00        .*      CMP      r2,#0
        0x00014060:    7902        .y      LDRB     r2,[r0,#4]
        0x00014062:    eb011102    ....    ADD      r1,r1,r2,LSL #4
        0x00014066:    688a        .h      LDR      r2,[r1,#8]
        0x00014068:    bf14        ..      ITE      NE
        0x0001406a:    f0420201    B...    ORRNE    r2,r2,#1
        0x0001406e:    f0420202    B...    ORREQ    r2,r2,#2
        0x00014072:    608a        .`      STR      r2,[r1,#8]
        0x00014074:    e76f        o.      B        0x13f56 ; HAL_DMA_Start + 142
    HAL_DMA_MultiBuffer_Start
        0x00014076:    b430        0.      PUSH     {r4,r5}
        0x00014078:    b083        ..      SUB      sp,sp,#0xc
        0x0001407a:    f8ddc014    ....    LDR      r12,[sp,#0x14]
        0x0001407e:    f1bc7f80    ....    CMP      r12,#0x1000000
        0x00014082:    d81f        ..      BHI      0x140c4 ; HAL_DMA_MultiBuffer_Start + 78
        0x00014084:    f0114f70    ..pO    TST      r1,#0xf0000000
        0x00014088:    bf08        ..      IT       EQ
        0x0001408a:    f0414140    A.@A    ORREQ    r1,r1,#0xc0000000
        0x0001408e:    f0124f70    ..pO    TST      r2,#0xf0000000
        0x00014092:    bf08        ..      IT       EQ
        0x00014094:    f0424240    B.@B    ORREQ    r2,r2,#0xc0000000
        0x00014098:    2402        .$      MOVS     r4,#2
        0x0001409a:    7284        .r      STRB     r4,[r0,#0xa]
        0x0001409c:    f8c0c014    ....    STR      r12,[r0,#0x14]
        0x000140a0:    7a04        .z      LDRB     r4,[r0,#8]
        0x000140a2:    2c01        .,      CMP      r4,#1
        0x000140a4:    bf08        ..      IT       EQ
        0x000140a6:    ea4f044c    O.L.    LSLEQ    r4,r12,#1
        0x000140aa:    d004        ..      BEQ      0x140b6 ; HAL_DMA_MultiBuffer_Start + 64
        0x000140ac:    2c02        .,      CMP      r4,#2
        0x000140ae:    bf0c        ..      ITE      EQ
        0x000140b0:    ea4f048c    O...    LSLEQ    r4,r12,#2
        0x000140b4:    4664        dF      MOVNE    r4,r12
        0x000140b6:    79c5        .y      LDRB     r5,[r0,#7]
        0x000140b8:    b125        %.      CBZ      r5,0x140c4 ; HAL_DMA_MultiBuffer_Start + 78
        0x000140ba:    2d01        .-      CMP      r5,#1
        0x000140bc:    d006        ..      BEQ      0x140cc ; HAL_DMA_MultiBuffer_Start + 86
        0x000140be:    2d02        .-      CMP      r5,#2
        0x000140c0:    d009        ..      BEQ      0x140d6 ; HAL_DMA_MultiBuffer_Start + 96
        0x000140c2:    e00c        ..      B        0x140de ; HAL_DMA_MultiBuffer_Start + 104
        0x000140c4:    b003        ..      ADD      sp,sp,#0xc
        0x000140c6:    2004        .       MOVS     r0,#4
        0x000140c8:    bc30        0.      POP      {r4,r5}
        0x000140ca:    4770        pG      BX       lr
        0x000140cc:    9100        ..      STR      r1,[sp,#0]
        0x000140ce:    1911        ..      ADDS     r1,r2,r4
        0x000140d0:    1e49        I.      SUBS     r1,r1,#1
        0x000140d2:    9101        ..      STR      r1,[sp,#4]
        0x000140d4:    e003        ..      B        0x140de ; HAL_DMA_MultiBuffer_Start + 104
        0x000140d6:    4421        !D      ADD      r1,r1,r4
        0x000140d8:    1e49        I.      SUBS     r1,r1,#1
        0x000140da:    e9cd1200    ....    STRD     r1,r2,[sp,#0]
        0x000140de:    1919        ..      ADDS     r1,r3,r4
        0x000140e0:    1e49        I.      SUBS     r1,r1,#1
        0x000140e2:    9102        ..      STR      r1,[sp,#8]
        0x000140e4:    494d        MI      LDR      r1,[pc,#308] ; [0x1421c] = 0xc0019dac
        0x000140e6:    7903        .y      LDRB     r3,[r0,#4]
        0x000140e8:    9a00        ..      LDR      r2,[sp,#0]
        0x000140ea:    6849        Ih      LDR      r1,[r1,#4]
        0x000140ec:    eb011303    ....    ADD      r3,r1,r3,LSL #4
        0x000140f0:    601a        .`      STR      r2,[r3,#0]
        0x000140f2:    7903        .y      LDRB     r3,[r0,#4]
        0x000140f4:    9a01        ..      LDR      r2,[sp,#4]
        0x000140f6:    eb011303    ....    ADD      r3,r1,r3,LSL #4
        0x000140fa:    605a        Z`      STR      r2,[r3,#4]
        0x000140fc:    7902        .y      LDRB     r2,[r0,#4]
        0x000140fe:    eb011202    ....    ADD      r2,r1,r2,LSL #4
        0x00014102:    6893        .h      LDR      r3,[r2,#8]
        0x00014104:    b2db        ..      UXTB     r3,r3
        0x00014106:    6093        .`      STR      r3,[r2,#8]
        0x00014108:    7902        .y      LDRB     r2,[r0,#4]
        0x0001410a:    eb011302    ....    ADD      r3,r1,r2,LSL #4
        0x0001410e:    689c        .h      LDR      r4,[r3,#8]
        0x00014110:    f06f02ff    o...    MVN      r2,#0xff
        0x00014114:    eb02220c    ..."    ADD      r2,r2,r12,LSL #8
        0x00014118:    ea440c02    D...    ORR      r12,r4,r2
        0x0001411c:    f8c3c008    ....    STR      r12,[r3,#8]
        0x00014120:    7903        .y      LDRB     r3,[r0,#4]
        0x00014122:    eb011303    ....    ADD      r3,r1,r3,LSL #4
        0x00014126:    f8d3c008    ....    LDR      r12,[r3,#8]
        0x0001412a:    f02c0c07    ,...    BIC      r12,r12,#7
        0x0001412e:    f8c3c008    ....    STR      r12,[r3,#8]
        0x00014132:    7903        .y      LDRB     r3,[r0,#4]
        0x00014134:    eb011303    ....    ADD      r3,r1,r3,LSL #4
        0x00014138:    f8d3c008    ....    LDR      r12,[r3,#8]
        0x0001413c:    f04c0c03    L...    ORR      r12,r12,#3
        0x00014140:    f8c3c008    ....    STR      r12,[r3,#8]
        0x00014144:    79c3        .y      LDRB     r3,[r0,#7]
        0x00014146:    2b02        .+      CMP      r3,#2
        0x00014148:    d056        V.      BEQ      0x141f8 ; HAL_DMA_MultiBuffer_Start + 386
        0x0001414a:    f890c004    ....    LDRB     r12,[r0,#4]
        0x0001414e:    9b00        ..      LDR      r3,[sp,#0]
        0x00014150:    eb011c0c    ....    ADD      r12,r1,r12,LSL #4
        0x00014154:    f8cc3100    ...1    STR      r3,[r12,#0x100]
        0x00014158:    f890c004    ....    LDRB     r12,[r0,#4]
        0x0001415c:    9b02        ..      LDR      r3,[sp,#8]
        0x0001415e:    eb011c0c    ....    ADD      r12,r1,r12,LSL #4
        0x00014162:    f8cc3104    ...1    STR      r3,[r12,#0x104]
        0x00014166:    7903        .y      LDRB     r3,[r0,#4]
        0x00014168:    eb011303    ....    ADD      r3,r1,r3,LSL #4
        0x0001416c:    f8d3c108    ....    LDR      r12,[r3,#0x108]
        0x00014170:    f00c0cff    ....    AND      r12,r12,#0xff
        0x00014174:    f8c3c108    ....    STR      r12,[r3,#0x108]
        0x00014178:    7903        .y      LDRB     r3,[r0,#4]
        0x0001417a:    eb011303    ....    ADD      r3,r1,r3,LSL #4
        0x0001417e:    f8d3c108    ....    LDR      r12,[r3,#0x108]
        0x00014182:    ea4c0202    L...    ORR      r2,r12,r2
        0x00014186:    f8c32108    ...!    STR      r2,[r3,#0x108]
        0x0001418a:    7902        .y      LDRB     r2,[r0,#4]
        0x0001418c:    eb011202    ....    ADD      r2,r1,r2,LSL #4
        0x00014190:    f8d23108    ...1    LDR      r3,[r2,#0x108]
        0x00014194:    f0230307    #...    BIC      r3,r3,#7
        0x00014198:    f8c23108    ...1    STR      r3,[r2,#0x108]
        0x0001419c:    7902        .y      LDRB     r2,[r0,#4]
        0x0001419e:    eb011102    ....    ADD      r1,r1,r2,LSL #4
        0x000141a2:    f8d12108    ...!    LDR      r2,[r1,#0x108]
        0x000141a6:    f0420203    B...    ORR      r2,r2,#3
        0x000141aa:    f8c12108    ...!    STR      r2,[r1,#0x108]
        0x000141ae:    6802        .h      LDR      r2,[r0,#0]
        0x000141b0:    f8d23fec    ...?    LDR      r3,[r2,#0xfec]
        0x000141b4:    f890c004    ....    LDRB     r12,[r0,#4]
        0x000141b8:    2101        .!      MOVS     r1,#1
        0x000141ba:    fa01fc0c    ....    LSL      r12,r1,r12
        0x000141be:    ea43030c    C...    ORR      r3,r3,r12
        0x000141c2:    f8c23fec    ...?    STR      r3,[r2,#0xfec]
        0x000141c6:    6802        .h      LDR      r2,[r0,#0]
        0x000141c8:    6a93        .j      LDR      r3,[r2,#0x28]
        0x000141ca:    f890c004    ....    LDRB     r12,[r0,#4]
        0x000141ce:    fa01fc0c    ....    LSL      r12,r1,r12
        0x000141d2:    ea43030c    C...    ORR      r3,r3,r12
        0x000141d6:    6293        .b      STR      r3,[r2,#0x28]
        0x000141d8:    7982        .y      LDRB     r2,[r0,#6]
        0x000141da:    2a00        .*      CMP      r2,#0
        0x000141dc:    6802        .h      LDR      r2,[r0,#0]
        0x000141de:    6953        Si      LDR      r3,[r2,#0x14]
        0x000141e0:    7900        .y      LDRB     r0,[r0,#4]
        0x000141e2:    fa01f000    ....    LSL      r0,r1,r0
        0x000141e6:    bf0c        ..      ITE      EQ
        0x000141e8:    4318        .C      ORREQ    r0,r0,r3
        0x000141ea:    ea230000    #...    BICNE    r0,r3,r0
        0x000141ee:    6150        Pa      STR      r0,[r2,#0x14]
        0x000141f0:    b003        ..      ADD      sp,sp,#0xc
        0x000141f2:    2000        .       MOVS     r0,#0
        0x000141f4:    bc30        0.      POP      {r4,r5}
        0x000141f6:    4770        pG      BX       lr
        0x000141f8:    f890c004    ....    LDRB     r12,[r0,#4]
        0x000141fc:    9b02        ..      LDR      r3,[sp,#8]
        0x000141fe:    eb011c0c    ....    ADD      r12,r1,r12,LSL #4
        0x00014202:    f8cc3100    ...1    STR      r3,[r12,#0x100]
        0x00014206:    f890c004    ....    LDRB     r12,[r0,#4]
        0x0001420a:    9b01        ..      LDR      r3,[sp,#4]
        0x0001420c:    eb011c0c    ....    ADD      r12,r1,r12,LSL #4
        0x00014210:    f8cc3104    ...1    STR      r3,[r12,#0x104]
        0x00014214:    e7a7        ..      B        0x14166 ; HAL_DMA_MultiBuffer_Start + 240
    $d
        0x00014216:    0000        ..      DCW    0
        0x00014218:    c001af88    ....    DCD    3221335944
        0x0001421c:    c0019dac    ....    DCD    3221331372
    $t
    .text
    HAL_IWDG_BKD_SW_Reset
        0x00014220:    2008        .       MOVS     r0,#8
        0x00014222:    f7feb89f    ....    B        HAL_Reset_Module ; 0x12364
    HAL_IWDG_Init
        0x00014226:    6801        .h      LDR      r1,[r0,#0]
        0x00014228:    2900        .)      CMP      r1,#0
        0x0001422a:    bf04        ..      ITT      EQ
        0x0001422c:    2001        .       MOVEQ    r0,#1
        0x0001422e:    4770        pG      BXEQ     lr
        0x00014230:    f04f4380    O..C    MOV      r3,#0x40000000
        0x00014234:    699a        .i      LDR      r2,[r3,#0x18]
        0x00014236:    f4425280    B..R    ORR      r2,r2,#0x1000
        0x0001423a:    619a        .a      STR      r2,[r3,#0x18]
        0x0001423c:    f2455255    E.UR    MOV      r2,#0x5555
        0x00014240:    600a        .`      STR      r2,[r1,#0]
        0x00014242:    68ca        .h      LDR      r2,[r1,#0xc]
        0x00014244:    f0120f02    ....    TST      r2,#2
        0x00014248:    d1fb        ..      BNE      0x14242 ; HAL_IWDG_Init + 28
        0x0001424a:    699a        .i      LDR      r2,[r3,#0x18]
        0x0001424c:    f4225280    "..R    BIC      r2,r2,#0x1000
        0x00014250:    619a        .a      STR      r2,[r3,#0x18]
        0x00014252:    7902        .y      LDRB     r2,[r0,#4]
        0x00014254:    f8d3c018    ....    LDR      r12,[r3,#0x18]
        0x00014258:    f44c5c80    L..\    ORR      r12,r12,#0x1000
        0x0001425c:    f8c3c018    ....    STR      r12,[r3,#0x18]
        0x00014260:    f0020207    ....    AND      r2,r2,#7
        0x00014264:    604a        J`      STR      r2,[r1,#4]
        0x00014266:    68ca        .h      LDR      r2,[r1,#0xc]
        0x00014268:    f0120f01    ....    TST      r2,#1
        0x0001426c:    d1fb        ..      BNE      0x14266 ; HAL_IWDG_Init + 64
        0x0001426e:    699a        .i      LDR      r2,[r3,#0x18]
        0x00014270:    f4225280    "..R    BIC      r2,r2,#0x1000
        0x00014274:    619a        .a      STR      r2,[r3,#0x18]
        0x00014276:    8900        ..      LDRH     r0,[r0,#8]
        0x00014278:    699a        .i      LDR      r2,[r3,#0x18]
        0x0001427a:    f4425280    B..R    ORR      r2,r2,#0x1000
        0x0001427e:    619a        .a      STR      r2,[r3,#0x18]
        0x00014280:    f3c0000b    ....    UBFX     r0,r0,#0,#12
        0x00014284:    6088        .`      STR      r0,[r1,#8]
        0x00014286:    68c8        .h      LDR      r0,[r1,#0xc]
        0x00014288:    f0100f02    ....    TST      r0,#2
        0x0001428c:    d1fb        ..      BNE      0x14286 ; HAL_IWDG_Init + 96
        0x0001428e:    6998        .i      LDR      r0,[r3,#0x18]
        0x00014290:    f4205080     ..P    BIC      r0,r0,#0x1000
        0x00014294:    6198        .a      STR      r0,[r3,#0x18]
        0x00014296:    6998        .i      LDR      r0,[r3,#0x18]
        0x00014298:    f4405080    @..P    ORR      r0,r0,#0x1000
        0x0001429c:    6198        .a      STR      r0,[r3,#0x18]
        0x0001429e:    2000        .       MOVS     r0,#0
        0x000142a0:    6008        .`      STR      r0,[r1,#0]
        0x000142a2:    68c8        .h      LDR      r0,[r1,#0xc]
        0x000142a4:    f0100f02    ....    TST      r0,#2
        0x000142a8:    d1fb        ..      BNE      0x142a2 ; HAL_IWDG_Init + 124
        0x000142aa:    6998        .i      LDR      r0,[r3,#0x18]
        0x000142ac:    f4205080     ..P    BIC      r0,r0,#0x1000
        0x000142b0:    6198        .a      STR      r0,[r3,#0x18]
        0x000142b2:    2000        .       MOVS     r0,#0
        0x000142b4:    4770        pG      BX       lr
    HAL_IWDG_START
        0x000142b6:    6800        .h      LDR      r0,[r0,#0]
        0x000142b8:    2800        .(      CMP      r0,#0
        0x000142ba:    bf04        ..      ITT      EQ
        0x000142bc:    2001        .       MOVEQ    r0,#1
        0x000142be:    4770        pG      BXEQ     lr
        0x000142c0:    f04f4280    O..B    MOV      r2,#0x40000000
        0x000142c4:    6991        .i      LDR      r1,[r2,#0x18]
        0x000142c6:    f4415180    A..Q    ORR      r1,r1,#0x1000
        0x000142ca:    6191        .a      STR      r1,[r2,#0x18]
        0x000142cc:    4b2c        ,K      LDR      r3,[pc,#176] ; [0x14380] = 0x40008000
        0x000142ce:    f64c41cc    L..A    MOV      r1,#0xcccc
        0x000142d2:    6019        .`      STR      r1,[r3,#0]
        0x000142d4:    68c1        .h      LDR      r1,[r0,#0xc]
        0x000142d6:    f0110f02    ....    TST      r1,#2
        0x000142da:    d1fb        ..      BNE      0x142d4 ; HAL_IWDG_START + 30
        0x000142dc:    6990        .i      LDR      r0,[r2,#0x18]
        0x000142de:    f4205080     ..P    BIC      r0,r0,#0x1000
        0x000142e2:    6190        .a      STR      r0,[r2,#0x18]
        0x000142e4:    2000        .       MOVS     r0,#0
        0x000142e6:    4770        pG      BX       lr
    HAL_IWDG_RELOAD_COUNTER
        0x000142e8:    6800        .h      LDR      r0,[r0,#0]
        0x000142ea:    2800        .(      CMP      r0,#0
        0x000142ec:    bf04        ..      ITT      EQ
        0x000142ee:    2001        .       MOVEQ    r0,#1
        0x000142f0:    4770        pG      BXEQ     lr
        0x000142f2:    f04f4280    O..B    MOV      r2,#0x40000000
        0x000142f6:    6991        .i      LDR      r1,[r2,#0x18]
        0x000142f8:    f4415180    A..Q    ORR      r1,r1,#0x1000
        0x000142fc:    6191        .a      STR      r1,[r2,#0x18]
        0x000142fe:    4b20         K      LDR      r3,[pc,#128] ; [0x14380] = 0x40008000
        0x00014300:    f64a21aa    J..!    MOV      r1,#0xaaaa
        0x00014304:    6019        .`      STR      r1,[r3,#0]
        0x00014306:    68c1        .h      LDR      r1,[r0,#0xc]
        0x00014308:    f0110f02    ....    TST      r1,#2
        0x0001430c:    d1fb        ..      BNE      0x14306 ; HAL_IWDG_RELOAD_COUNTER + 30
        0x0001430e:    6990        .i      LDR      r0,[r2,#0x18]
        0x00014310:    f4205080     ..P    BIC      r0,r0,#0x1000
        0x00014314:    6190        .a      STR      r0,[r2,#0x18]
        0x00014316:    2000        .       MOVS     r0,#0
        0x00014318:    4770        pG      BX       lr
    HAL_IWDG_Refresh
        0x0001431a:    6800        .h      LDR      r0,[r0,#0]
        0x0001431c:    b188        ..      CBZ      r0,0x14342 ; HAL_IWDG_Refresh + 40
        0x0001431e:    f04f4280    O..B    MOV      r2,#0x40000000
        0x00014322:    6991        .i      LDR      r1,[r2,#0x18]
        0x00014324:    f4415180    A..Q    ORR      r1,r1,#0x1000
        0x00014328:    6191        .a      STR      r1,[r2,#0x18]
        0x0001432a:    4b15        .K      LDR      r3,[pc,#84] ; [0x14380] = 0x40008000
        0x0001432c:    f64a21aa    J..!    MOV      r1,#0xaaaa
        0x00014330:    6019        .`      STR      r1,[r3,#0]
        0x00014332:    68c1        .h      LDR      r1,[r0,#0xc]
        0x00014334:    f0110f02    ....    TST      r1,#2
        0x00014338:    d1fb        ..      BNE      0x14332 ; HAL_IWDG_Refresh + 24
        0x0001433a:    6990        .i      LDR      r0,[r2,#0x18]
        0x0001433c:    f4205080     ..P    BIC      r0,r0,#0x1000
        0x00014340:    6190        .a      STR      r0,[r2,#0x18]
        0x00014342:    2000        .       MOVS     r0,#0
        0x00014344:    4770        pG      BX       lr
    HAL_IWDG_GetPrescaler
        0x00014346:    6800        .h      LDR      r0,[r0,#0]
        0x00014348:    6840        @h      LDR      r0,[r0,#4]
        0x0001434a:    4770        pG      BX       lr
    HAL_IWDG_GetReloadCounter
        0x0001434c:    6800        .h      LDR      r0,[r0,#0]
        0x0001434e:    6880        .h      LDR      r0,[r0,#8]
        0x00014350:    4770        pG      BX       lr
    HAL_IWDG_Get_Div_Value
        0x00014352:    2808        .(      CMP      r0,#8
        0x00014354:    d212        ..      BCS      0x1437c ; HAL_IWDG_Get_Div_Value + 42
        0x00014356:    e8dff000    ....    TBB      [pc,r0]
    $d
        0x0001435a:    0604        ..      DCW    1540
        0x0001435c:    110c0a08    ....    DCD    286001672
        0x00014360:    0e0e        ..      DCW    3598
    $t
        0x00014362:    2004        .       MOVS     r0,#4
        0x00014364:    4770        pG      BX       lr
        0x00014366:    2008        .       MOVS     r0,#8
        0x00014368:    4770        pG      BX       lr
        0x0001436a:    2010        .       MOVS     r0,#0x10
        0x0001436c:    4770        pG      BX       lr
        0x0001436e:    2020                MOVS     r0,#0x20
        0x00014370:    4770        pG      BX       lr
        0x00014372:    2040        @       MOVS     r0,#0x40
        0x00014374:    4770        pG      BX       lr
        0x00014376:    f44f7080    O..p    MOV      r0,#0x100
        0x0001437a:    4770        pG      BX       lr
        0x0001437c:    2080        .       MOVS     r0,#0x80
        0x0001437e:    4770        pG      BX       lr
    $d
        0x00014380:    40008000    ...@    DCD    1073774592
    $t
    .text
    init_mbox_module
        0x00014384:    b570        p.      PUSH     {r4-r6,lr}
        0x00014386:    4efa        .N      LDR      r6,[pc,#1000] ; [0x14770] = 0xc001d79c
        0x00014388:    2500        .%      MOVS     r5,#0
        0x0001438a:    bf00        ..      NOP      
        0x0001438c:    eb050045    ..E.    ADD      r0,r5,r5,LSL #1
        0x00014390:    eb0000c5    ....    ADD      r0,r0,r5,LSL #3
        0x00014394:    eb0604c0    ....    ADD      r4,r6,r0,LSL #3
        0x00014398:    2300        .#      MOVS     r3,#0
        0x0001439a:    2201        ."      MOVS     r2,#1
        0x0001439c:    4619        .F      MOV      r1,r3
        0x0001439e:    4620         F      MOV      r0,r4
        0x000143a0:    f003f941    ..A.    BL       _init_thread_base ; 0x17626
        0x000143a4:    4621        !F      MOV      r1,r4
        0x000143a6:    48f3        .H      LDR      r0,[pc,#972] ; [0x14774] = 0xc001a770
        0x000143a8:    f002fa48    ..H.    BL       _impl_k_stack_push ; 0x1683c
        0x000143ac:    1c6d        m.      ADDS     r5,r5,#1
        0x000143ae:    2d0a        .-      CMP      r5,#0xa
        0x000143b0:    dbec        ..      BLT      0x1438c ; init_mbox_module + 8
        0x000143b2:    2000        .       MOVS     r0,#0
        0x000143b4:    bd70        p.      POP      {r4-r6,pc}
    k_mbox_init
        0x000143b6:    6000        .`      STR      r0,[r0,#0]
        0x000143b8:    6040        @`      STR      r0,[r0,#4]
        0x000143ba:    3008        .0      ADDS     r0,r0,#8
        0x000143bc:    6000        .`      STR      r0,[r0,#0]
        0x000143be:    6040        @`      STR      r0,[r0,#4]
        0x000143c0:    4770        pG      BX       lr
    mbox_message_dispose
        0x000143c2:    b570        p.      PUSH     {r4-r6,lr}
        0x000143c4:    4604        .F      MOV      r4,r0
        0x000143c6:    6a40        @j      LDR      r0,[r0,#0x24]
        0x000143c8:    2800        .(      CMP      r0,#0
        0x000143ca:    bf08        ..      IT       EQ
        0x000143cc:    bd70        p.      POPEQ    {r4-r6,pc}
        0x000143ce:    2500        .%      MOVS     r5,#0
        0x000143d0:    6960        `i      LDR      r0,[r4,#0x14]
        0x000143d2:    b120         .      CBZ      r0,0x143de ; mbox_message_dispose + 28
        0x000143d4:    f1040014    ....    ADD      r0,r4,#0x14
        0x000143d8:    f000fb1e    ....    BL       k_mem_pool_free ; 0x14a18
        0x000143dc:    6165        ea      STR      r5,[r4,#0x14]
        0x000143de:    6a61        aj      LDR      r1,[r4,#0x24]
        0x000143e0:    6265        eb      STR      r5,[r4,#0x24]
        0x000143e2:    6862        bh      LDR      r2,[r4,#4]
        0x000143e4:    6908        .i      LDR      r0,[r1,#0x10]
        0x000143e6:    6042        B`      STR      r2,[r0,#4]
        0x000143e8:    7a4a        Jz      LDRB     r2,[r1,#9]
        0x000143ea:    f0120f01    ....    TST      r2,#1
        0x000143ee:    d00b        ..      BEQ      0x14408 ; mbox_message_dispose + 70
        0x000143f0:    6a84        .j      LDR      r4,[r0,#0x28]
        0x000143f2:    48e0        .H      LDR      r0,[pc,#896] ; [0x14774] = 0xc001a770
        0x000143f4:    f002fa22    ..".    BL       _impl_k_stack_push ; 0x1683c
        0x000143f8:    2c00        .,      CMP      r4,#0
        0x000143fa:    bf08        ..      IT       EQ
        0x000143fc:    bd70        p.      POPEQ    {r4-r6,pc}
        0x000143fe:    4620         F      MOV      r0,r4
        0x00014400:    e8bd4070    ..p@    POP      {r4-r6,lr}
        0x00014404:    f002b99e    ....    B.W      _impl_k_sem_give ; 0x16744
        0x00014408:    2020                MOVS     r0,#0x20
        0x0001440a:    f3ef8411    ....    MRS      r4,BASEPRI
        0x0001440e:    f3808811    ....    MSR      BASEPRI,r0
        0x00014412:    f3bf8f4f    ..O.    DSB      
        0x00014416:    f3bf8f6f    ..o.    ISB      
        0x0001441a:    2000        .       MOVS     r0,#0
        0x0001441c:    f0220202    "...    BIC      r2,r2,#2
        0x00014420:    6648        Hf      STR      r0,[r1,#0x64]
        0x00014422:    724a        Jr      STRB     r2,[r1,#9]
        0x00014424:    4608        .F      MOV      r0,r1
        0x00014426:    f0120f1f    ....    TST      r2,#0x1f
        0x0001442a:    bf02        ..      ITTT     EQ
        0x0001442c:    6a41        Aj      LDREQ    r1,[r0,#0x24]
        0x0001442e:    f1b13fff    ...?    CMPEQ    r1,#0xffffffff
        0x00014432:    f001fab0    ....    BLEQ     _add_thread_to_ready_q ; 0x15996
        0x00014436:    4620         F      MOV      r0,r4
        0x00014438:    e8bd4070    ..p@    POP      {r4-r6,lr}
        0x0001443c:    f001bc7f    ....    B.W      _reschedule ; 0x15d3e
    k_mbox_put
        0x00014440:    4bcd        .K      LDR      r3,[pc,#820] ; [0x14778] = 0xc001d458
        0x00014442:    689b        .h      LDR      r3,[r3,#8]
        0x00014444:    624b        Kb      STR      r3,[r1,#0x24]
        0x00014446:    f000b904    ....    B.W      mbox_message_put ; 0x14652
    k_mbox_async_put
        0x0001444a:    e92d4ff8    -..O    PUSH     {r3-r11,lr}
        0x0001444e:    4615        .F      MOV      r5,r2
        0x00014450:    460c        .F      MOV      r4,r1
        0x00014452:    4606        .F      MOV      r6,r0
        0x00014454:    f04f32ff    O..2    MOV      r2,#0xffffffff
        0x00014458:    4669        iF      MOV      r1,sp
        0x0001445a:    48c6        .H      LDR      r0,[pc,#792] ; [0x14774] = 0xc001a770
        0x0001445c:    f002fa1e    ....    BL       _impl_k_stack_pop ; 0x1689c
        0x00014460:    48c5        .H      LDR      r0,[pc,#788] ; [0x14778] = 0xc001d458
        0x00014462:    9b00        ..      LDR      r3,[sp,#0]
        0x00014464:    6880        .h      LDR      r0,[r0,#8]
        0x00014466:    f1030b2c    ..,.    ADD      r11,r3,#0x2c
        0x0001446a:    7a80        .z      LDRB     r0,[r0,#0xa]
        0x0001446c:    7298        .r      STRB     r0,[r3,#0xa]
        0x0001446e:    e8941787    ....    LDM      r4,{r0-r2,r7-r10,r12}
        0x00014472:    e88b1787    ....    STM      r11,{r0-r2,r7-r10,r12}
        0x00014476:    6a20         j      LDR      r0,[r4,#0x20]
        0x00014478:    655d        ]e      STR      r5,[r3,#0x54]
        0x0001447a:    e9c30313    ....    STRD     r0,r3,[r3,#0x4c]
        0x0001447e:    f04f32ff    O..2    MOV      r2,#0xffffffff
        0x00014482:    4659        YF      MOV      r1,r11
        0x00014484:    4630        0F      MOV      r0,r6
        0x00014486:    f000f8e4    ....    BL       mbox_message_put ; 0x14652
        0x0001448a:    e8bd8ff8    ....    POP      {r3-r11,pc}
    k_mbox_data_get
        0x0001448e:    b510        ..      PUSH     {r4,lr}
        0x00014490:    000b        ..      MOVS     r3,r1
        0x00014492:    4604        .F      MOV      r4,r0
        0x00014494:    d00b        ..      BEQ      0x144ae ; k_mbox_data_get + 32
        0x00014496:    68e1        .h      LDR      r1,[r4,#0xc]
        0x00014498:    2900        .)      CMP      r1,#0
        0x0001449a:    bf1f        ..      ITTTT    NE
        0x0001449c:    6862        bh      LDRNE    r2,[r4,#4]
        0x0001449e:    2a00        .*      CMPNE    r2,#0
        0x000144a0:    4618        .F      MOVNE    r0,r3
        0x000144a2:    f005f822    ..".    BLNE     __aeabi_memcpy ; 0x194ea
        0x000144a6:    4620         F      MOV      r0,r4
        0x000144a8:    e8bd4010    ...@    POP      {r4,lr}
        0x000144ac:    e789        ..      B        mbox_message_dispose ; 0x143c2
        0x000144ae:    2000        .       MOVS     r0,#0
        0x000144b0:    6060        ``      STR      r0,[r4,#4]
        0x000144b2:    4620         F      MOV      r0,r4
        0x000144b4:    e8bd4010    ...@    POP      {r4,lr}
        0x000144b8:    e783        ..      B        mbox_message_dispose ; 0x143c2
    k_mbox_data_block_get
        0x000144ba:    b570        p.      PUSH     {r4-r6,lr}
        0x000144bc:    4615        .F      MOV      r5,r2
        0x000144be:    ea5f0c01    _...    MOVS     r12,r1
        0x000144c2:    4604        .F      MOV      r4,r0
        0x000144c4:    f04f0600    O...    MOV      r6,#0
        0x000144c8:    d00a        ..      BEQ      0x144e0 ; k_mbox_data_block_get + 38
        0x000144ca:    6960        `i      LDR      r0,[r4,#0x14]
        0x000144cc:    b168        h.      CBZ      r0,0x144ea ; k_mbox_data_block_get + 48
        0x000144ce:    69a1        .i      LDR      r1,[r4,#0x18]
        0x000144d0:    6028        (`      STR      r0,[r5,#0]
        0x000144d2:    6051        Q`      STR      r1,[r2,#4]
        0x000144d4:    4620         F      MOV      r0,r4
        0x000144d6:    6166        fa      STR      r6,[r4,#0x14]
        0x000144d8:    f7ffff73    ..s.    BL       mbox_message_dispose ; 0x143c2
        0x000144dc:    2000        .       MOVS     r0,#0
        0x000144de:    bd70        p.      POP      {r4-r6,pc}
        0x000144e0:    6066        f`      STR      r6,[r4,#4]
        0x000144e2:    f7ffff6e    ..n.    BL       mbox_message_dispose ; 0x143c2
        0x000144e6:    2000        .       MOVS     r0,#0
        0x000144e8:    bd70        p.      POP      {r4-r6,pc}
        0x000144ea:    4629        )F      MOV      r1,r5
        0x000144ec:    4660        `F      MOV      r0,r12
        0x000144ee:    6862        bh      LDR      r2,[r4,#4]
        0x000144f0:    f000f9fe    ....    BL       k_mem_pool_alloc ; 0x148f0
        0x000144f4:    2800        .(      CMP      r0,#0
        0x000144f6:    bf18        ..      IT       NE
        0x000144f8:    bd70        p.      POPNE    {r4-r6,pc}
        0x000144fa:    6828        (h      LDR      r0,[r5,#0]
        0x000144fc:    b158        X.      CBZ      r0,0x14516 ; k_mbox_data_block_get + 92
        0x000144fe:    68e1        .h      LDR      r1,[r4,#0xc]
        0x00014500:    2900        .)      CMP      r1,#0
        0x00014502:    bf1e        ..      ITTT     NE
        0x00014504:    6862        bh      LDRNE    r2,[r4,#4]
        0x00014506:    2a00        .*      CMPNE    r2,#0
        0x00014508:    f004ffef    ....    BLNE     __aeabi_memcpy ; 0x194ea
        0x0001450c:    4620         F      MOV      r0,r4
        0x0001450e:    f7ffff58    ..X.    BL       mbox_message_dispose ; 0x143c2
        0x00014512:    2000        .       MOVS     r0,#0
        0x00014514:    bd70        p.      POP      {r4-r6,pc}
        0x00014516:    4620         F      MOV      r0,r4
        0x00014518:    6066        f`      STR      r6,[r4,#4]
        0x0001451a:    f7ffff52    ..R.    BL       mbox_message_dispose ; 0x143c2
        0x0001451e:    e7f8        ..      B        0x14512 ; k_mbox_data_block_get + 88
    k_mbox_get
        0x00014520:    e92d47f0    -..G    PUSH     {r4-r10,lr}
        0x00014524:    f8df9250    ..P.    LDR      r9,[pc,#592] ; [0x14778] = 0xc001d458
        0x00014528:    4680        .F      MOV      r8,r0
        0x0001452a:    4615        .F      MOV      r5,r2
        0x0001452c:    f8d9c008    ....    LDR      r12,[r9,#8]
        0x00014530:    460c        .F      MOV      r4,r1
        0x00014532:    2020                MOVS     r0,#0x20
        0x00014534:    f3ef8611    ....    MRS      r6,BASEPRI
        0x00014538:    f8c1c020    .. .    STR      r12,[r1,#0x20]
        0x0001453c:    f3808811    ....    MSR      BASEPRI,r0
        0x00014540:    f3bf8f4f    ..O.    DSB      
        0x00014544:    f3bf8f6f    ..o.    ISB      
        0x00014548:    f8d80000    ....    LDR      r0,[r8,#0]
        0x0001454c:    2700        .'      MOVS     r7,#0
        0x0001454e:    4540        @E      CMP      r0,r8
        0x00014550:    bf18        ..      IT       NE
        0x00014552:    2800        .(      CMPNE    r0,#0
        0x00014554:    d04c        L.      BEQ      0x145f0 ; k_mbox_get + 208
        0x00014556:    6901        .i      LDR      r1,[r0,#0x10]
        0x00014558:    6a0a        .j      LDR      r2,[r1,#0x20]
        0x0001455a:    2a00        .*      CMP      r2,#0
        0x0001455c:    bf18        ..      IT       NE
        0x0001455e:    4562        bE      CMPNE    r2,r12
        0x00014560:    d13e        >.      BNE      0x145e0 ; k_mbox_get + 192
        0x00014562:    69e2        .i      LDR      r2,[r4,#0x1c]
        0x00014564:    2a00        .*      CMP      r2,#0
        0x00014566:    bf1c        ..      ITT      NE
        0x00014568:    f8d1a01c    ....    LDRNE    r10,[r1,#0x1c]
        0x0001456c:    4552        RE      CMPNE    r2,r10
        0x0001456e:    d137        7.      BNE      0x145e0 ; k_mbox_get + 192
        0x00014570:    69cb        .i      LDR      r3,[r1,#0x1c]
        0x00014572:    61e3        .a      STR      r3,[r4,#0x1c]
        0x00014574:    6a22        "j      LDR      r2,[r4,#0x20]
        0x00014576:    620a        .b      STR      r2,[r1,#0x20]
        0x00014578:    68a2        .h      LDR      r2,[r4,#8]
        0x0001457a:    f8d1c008    ....    LDR      r12,[r1,#8]
        0x0001457e:    f8c4c008    ....    STR      r12,[r4,#8]
        0x00014582:    608a        .`      STR      r2,[r1,#8]
        0x00014584:    6863        ch      LDR      r3,[r4,#4]
        0x00014586:    684a        Jh      LDR      r2,[r1,#4]
        0x00014588:    4293        .B      CMP      r3,r2
        0x0001458a:    bf98        ..      IT       LS
        0x0001458c:    461a        .F      MOVLS    r2,r3
        0x0001458e:    6062        b`      STR      r2,[r4,#4]
        0x00014590:    68cb        .h      LDR      r3,[r1,#0xc]
        0x00014592:    60e3        .`      STR      r3,[r4,#0xc]
        0x00014594:    e9d13c05    ...<    LDRD     r3,r12,[r1,#0x14]
        0x00014598:    f8c4c018    ....    STR      r12,[r4,#0x18]
        0x0001459c:    6163        ca      STR      r3,[r4,#0x14]
        0x0001459e:    68e2        .h      LDR      r2,[r4,#0xc]
        0x000145a0:    2a00        .*      CMP      r2,#0
        0x000145a2:    bf18        ..      IT       NE
        0x000145a4:    6167        ga      STRNE    r7,[r4,#0x14]
        0x000145a6:    d103        ..      BNE      0x145b0 ; k_mbox_get + 144
        0x000145a8:    6962        bi      LDR      r2,[r4,#0x14]
        0x000145aa:    2a00        .*      CMP      r2,#0
        0x000145ac:    bf18        ..      IT       NE
        0x000145ae:    60e2        .`      STRNE    r2,[r4,#0xc]
        0x000145b0:    6a4a        Jj      LDR      r2,[r1,#0x24]
        0x000145b2:    6262        bb      STR      r2,[r4,#0x24]
        0x000145b4:    f001fb86    ....    BL       _unpend_thread ; 0x15cc4
        0x000145b8:    f3868811    ....    MSR      BASEPRI,r6
        0x000145bc:    f3bf8f4f    ..O.    DSB      
        0x000145c0:    f3bf8f6f    ..o.    ISB      
        0x000145c4:    4620         F      MOV      r0,r4
        0x000145c6:    b305        ..      CBZ      r5,0x1460a ; k_mbox_get + 234
        0x000145c8:    68e1        .h      LDR      r1,[r4,#0xc]
        0x000145ca:    2900        .)      CMP      r1,#0
        0x000145cc:    bf1f        ..      ITTTT    NE
        0x000145ce:    6862        bh      LDRNE    r2,[r4,#4]
        0x000145d0:    2a00        .*      CMPNE    r2,#0
        0x000145d2:    4628        (F      MOVNE    r0,r5
        0x000145d4:    f004ff89    ....    BLNE     __aeabi_memcpy ; 0x194ea
        0x000145d8:    4620         F      MOV      r0,r4
        0x000145da:    f7fffef2    ....    BL       mbox_message_dispose ; 0x143c2
        0x000145de:    e019        ..      B        0x14614 ; k_mbox_get + 244
        0x000145e0:    2800        .(      CMP      r0,#0
        0x000145e2:    bf1f        ..      ITTTT    NE
        0x000145e4:    f8d81004    ....    LDRNE    r1,[r8,#4]
        0x000145e8:    4281        .B      CMPNE    r1,r0
        0x000145ea:    6800        .h      LDRNE    r0,[r0,#0]
        0x000145ec:    2800        .(      CMPNE    r0,#0
        0x000145ee:    d1b2        ..      BNE      0x14556 ; k_mbox_get + 54
        0x000145f0:    b19b        ..      CBZ      r3,0x1461a ; k_mbox_get + 250
        0x000145f2:    f8d90008    ....    LDR      r0,[r9,#8]
        0x000145f6:    461a        .F      MOV      r2,r3
        0x000145f8:    f1080108    ....    ADD      r1,r8,#8
        0x000145fc:    6104        .a      STR      r4,[r0,#0x10]
        0x000145fe:    4630        0F      MOV      r0,r6
        0x00014600:    f001fb03    ....    BL       _pend_current_thread ; 0x15c0a
        0x00014604:    0006        ..      MOVS     r6,r0
        0x00014606:    d012        ..      BEQ      0x1462e ; k_mbox_get + 270
        0x00014608:    e020         .      B        0x1464c ; k_mbox_get + 300
        0x0001460a:    6841        Ah      LDR      r1,[r0,#4]
        0x0001460c:    2900        .)      CMP      r1,#0
        0x0001460e:    bf08        ..      IT       EQ
        0x00014610:    f7fffed7    ....    BLEQ     mbox_message_dispose ; 0x143c2
        0x00014614:    4638        8F      MOV      r0,r7
        0x00014616:    e8bd87f0    ....    POP      {r4-r10,pc}
        0x0001461a:    f3868811    ....    MSR      BASEPRI,r6
        0x0001461e:    f3bf8f4f    ..O.    DSB      
        0x00014622:    f3bf8f6f    ..o.    ISB      
        0x00014626:    f06f004f    o.O.    MVN      r0,#0x4f
        0x0001462a:    e8bd87f0    ....    POP      {r4-r10,pc}
        0x0001462e:    0028        (.      MOVS     r0,r5
        0x00014630:    d007        ..      BEQ      0x14642 ; k_mbox_get + 290
        0x00014632:    68e1        .h      LDR      r1,[r4,#0xc]
        0x00014634:    2900        .)      CMP      r1,#0
        0x00014636:    bf1e        ..      ITTT     NE
        0x00014638:    6862        bh      LDRNE    r2,[r4,#4]
        0x0001463a:    2a00        .*      CMPNE    r2,#0
        0x0001463c:    f004ff55    ..U.    BLNE     __aeabi_memcpy ; 0x194ea
        0x00014640:    e001        ..      B        0x14646 ; k_mbox_get + 294
        0x00014642:    6860        `h      LDR      r0,[r4,#4]
        0x00014644:    b910        ..      CBNZ     r0,0x1464c ; k_mbox_get + 300
        0x00014646:    4620         F      MOV      r0,r4
        0x00014648:    f7fffebb    ....    BL       mbox_message_dispose ; 0x143c2
        0x0001464c:    4630        0F      MOV      r0,r6
        0x0001464e:    e8bd87f0    ....    POP      {r4-r10,pc}
    mbox_message_put
        0x00014652:    e92d47f0    -..G    PUSH     {r4-r10,lr}
        0x00014656:    4684        .F      MOV      r12,r0
        0x00014658:    4847        GH      LDR      r0,[pc,#284] ; [0x14778] = 0xc001d458
        0x0001465a:    6880        .h      LDR      r0,[r0,#8]
        0x0001465c:    61c8        .a      STR      r0,[r1,#0x1c]
        0x0001465e:    6a4e        Nj      LDR      r6,[r1,#0x24]
        0x00014660:    2020                MOVS     r0,#0x20
        0x00014662:    f3ef8511    ....    MRS      r5,BASEPRI
        0x00014666:    6131        1a      STR      r1,[r6,#0x10]
        0x00014668:    f3808811    ....    MSR      BASEPRI,r0
        0x0001466c:    f3bf8f4f    ..O.    DSB      
        0x00014670:    f3bf8f6f    ..o.    ISB      
        0x00014674:    f8dc4008    ...@    LDR      r4,[r12,#8]
        0x00014678:    f10c0008    ....    ADD      r0,r12,#8
        0x0001467c:    4284        .B      CMP      r4,r0
        0x0001467e:    bf1e        ..      ITTT     NE
        0x00014680:    2c00        .,      CMPNE    r4,#0
        0x00014682:    2700        .'      MOVNE    r7,#0
        0x00014684:    6a0b        .j      LDRNE    r3,[r1,#0x20]
        0x00014686:    d04c        L.      BEQ      0x14722 ; mbox_message_put + 208
        0x00014688:    6920         i      LDR      r0,[r4,#0x10]
        0x0001468a:    2b00        .+      CMP      r3,#0
        0x0001468c:    bf1c        ..      ITT      NE
        0x0001468e:    f8d08020    .. .    LDRNE    r8,[r0,#0x20]
        0x00014692:    4543        CE      CMPNE    r3,r8
        0x00014694:    d13d        =.      BNE      0x14712 ; mbox_message_put + 192
        0x00014696:    f8d0801c    ....    LDR      r8,[r0,#0x1c]
        0x0001469a:    f1b80f00    ....    CMP      r8,#0
        0x0001469e:    bf1c        ..      ITT      NE
        0x000146a0:    f8d1901c    ....    LDRNE    r9,[r1,#0x1c]
        0x000146a4:    45c8        .E      CMPNE    r8,r9
        0x000146a6:    d134        4.      BNE      0x14712 ; mbox_message_put + 192
        0x000146a8:    69ca        .i      LDR      r2,[r1,#0x1c]
        0x000146aa:    61c2        .a      STR      r2,[r0,#0x1c]
        0x000146ac:    6a02        .j      LDR      r2,[r0,#0x20]
        0x000146ae:    620a        .b      STR      r2,[r1,#0x20]
        0x000146b0:    6882        .h      LDR      r2,[r0,#8]
        0x000146b2:    688b        .h      LDR      r3,[r1,#8]
        0x000146b4:    6083        .`      STR      r3,[r0,#8]
        0x000146b6:    608a        .`      STR      r2,[r1,#8]
        0x000146b8:    6843        Ch      LDR      r3,[r0,#4]
        0x000146ba:    684a        Jh      LDR      r2,[r1,#4]
        0x000146bc:    4293        .B      CMP      r3,r2
        0x000146be:    bf98        ..      IT       LS
        0x000146c0:    461a        .F      MOVLS    r2,r3
        0x000146c2:    6042        B`      STR      r2,[r0,#4]
        0x000146c4:    68ca        .h      LDR      r2,[r1,#0xc]
        0x000146c6:    60c2        .`      STR      r2,[r0,#0xc]
        0x000146c8:    e9d12305    ...#    LDRD     r2,r3,[r1,#0x14]
        0x000146cc:    e9c02305    ...#    STRD     r2,r3,[r0,#0x14]
        0x000146d0:    68c2        .h      LDR      r2,[r0,#0xc]
        0x000146d2:    2a00        .*      CMP      r2,#0
        0x000146d4:    bf18        ..      IT       NE
        0x000146d6:    6147        Ga      STRNE    r7,[r0,#0x14]
        0x000146d8:    d103        ..      BNE      0x146e2 ; mbox_message_put + 144
        0x000146da:    6942        Bi      LDR      r2,[r0,#0x14]
        0x000146dc:    2a00        .*      CMP      r2,#0
        0x000146de:    bf18        ..      IT       NE
        0x000146e0:    60c2        .`      STRNE    r2,[r0,#0xc]
        0x000146e2:    6a49        Ij      LDR      r1,[r1,#0x24]
        0x000146e4:    6241        Ab      STR      r1,[r0,#0x24]
        0x000146e6:    4620         F      MOV      r0,r4
        0x000146e8:    f001faec    ....    BL       _unpend_thread ; 0x15cc4
        0x000146ec:    6667        gf      STR      r7,[r4,#0x64]
        0x000146ee:    7a61        az      LDRB     r1,[r4,#9]
        0x000146f0:    4620         F      MOV      r0,r4
        0x000146f2:    f0110f1f    ....    TST      r1,#0x1f
        0x000146f6:    bf02        ..      ITTT     EQ
        0x000146f8:    6a41        Aj      LDREQ    r1,[r0,#0x24]
        0x000146fa:    f1b13fff    ...?    CMPEQ    r1,#0xffffffff
        0x000146fe:    f001f94a    ..J.    BLEQ     _add_thread_to_ready_q ; 0x15996
        0x00014702:    7a70        pz      LDRB     r0,[r6,#9]
        0x00014704:    f0100f01    ....    TST      r0,#1
        0x00014708:    d01f        ..      BEQ      0x1474a ; mbox_message_put + 248
        0x0001470a:    4628        (F      MOV      r0,r5
        0x0001470c:    f001fb17    ....    BL       _reschedule ; 0x15d3e
        0x00014710:    e018        ..      B        0x14744 ; mbox_message_put + 242
        0x00014712:    2c00        .,      CMP      r4,#0
        0x00014714:    bf1f        ..      ITTTT    NE
        0x00014716:    f8dc000c    ....    LDRNE    r0,[r12,#0xc]
        0x0001471a:    42a0        .B      CMPNE    r0,r4
        0x0001471c:    6824        $h      LDRNE    r4,[r4,#0]
        0x0001471e:    2c00        .,      CMPNE    r4,#0
        0x00014720:    d1b2        ..      BNE      0x14688 ; mbox_message_put + 54
        0x00014722:    b1d2        ..      CBZ      r2,0x1475a ; mbox_message_put + 264
        0x00014724:    7a70        pz      LDRB     r0,[r6,#9]
        0x00014726:    f0100f01    ....    TST      r0,#1
        0x0001472a:    d027        '.      BEQ      0x1477c ; mbox_message_put + 298
        0x0001472c:    f04f32ff    O..2    MOV      r2,#0xffffffff
        0x00014730:    4661        aF      MOV      r1,r12
        0x00014732:    4630        0F      MOV      r0,r6
        0x00014734:    f001fa67    ..g.    BL       _pend_thread ; 0x15c06
        0x00014738:    f3858811    ....    MSR      BASEPRI,r5
        0x0001473c:    f3bf8f4f    ..O.    DSB      
        0x00014740:    f3bf8f6f    ..o.    ISB      
        0x00014744:    2000        .       MOVS     r0,#0
        0x00014746:    e8bd87f0    ....    POP      {r4-r10,pc}
        0x0001474a:    4628        (F      MOV      r0,r5
        0x0001474c:    e8bd47f0    ...G    POP      {r4-r10,lr}
        0x00014750:    f04f32ff    O..2    MOV      r2,#0xffffffff
        0x00014754:    2100        .!      MOVS     r1,#0
        0x00014756:    f001ba58    ..X.    B.W      _pend_current_thread ; 0x15c0a
        0x0001475a:    f3858811    ....    MSR      BASEPRI,r5
        0x0001475e:    f3bf8f4f    ..O.    DSB      
        0x00014762:    f3bf8f6f    ..o.    ISB      
        0x00014766:    f06f004f    o.O.    MVN      r0,#0x4f
        0x0001476a:    e8bd87f0    ....    POP      {r4-r10,pc}
    $d
        0x0001476e:    0000        ..      DCW    0
        0x00014770:    c001d79c    ....    DCD    3221346204
        0x00014774:    c001a770    p...    DCD    3221333872
        0x00014778:    c001d458    X...    DCD    3221345368
    $t
        0x0001477c:    4628        (F      MOV      r0,r5
        0x0001477e:    e8bd47f0    ...G    POP      {r4-r10,lr}
        0x00014782:    4661        aF      MOV      r1,r12
        0x00014784:    f001ba41    ..A.    B.W      _pend_current_thread ; 0x15c0a
    .text
    init_mem_slab_module
        0x00014788:    484a        JH      LDR      r0,[pc,#296] ; [0x148b4] = 0xc001a754
        0x0001478a:    494c        LI      LDR      r1,[pc,#304] ; [0x148bc] = 0
        0x0001478c:    4b4a        JK      LDR      r3,[pc,#296] ; [0x148b8] = 0xc0019f58
        0x0001478e:    b410        ..      PUSH     {r4}
        0x00014790:    4401        .D      ADD      r1,r1,r0
        0x00014792:    e9c30100    ....    STRD     r0,r1,[r3,#0]
        0x00014796:    4288        .B      CMP      r0,r1
        0x00014798:    bf38        8.      IT       CC
        0x0001479a:    f04f0c00    O...    MOVCC    r12,#0
        0x0001479e:    d213        ..      BCS      0x147c8 ; init_mem_slab_module + 64
        0x000147a0:    f8c0c014    ....    STR      r12,[r0,#0x14]
        0x000147a4:    6884        .h      LDR      r4,[r0,#8]
        0x000147a6:    2200        ."      MOVS     r2,#0
        0x000147a8:    6901        .i      LDR      r1,[r0,#0x10]
        0x000147aa:    2c00        .,      CMP      r4,#0
        0x000147ac:    d908        ..      BLS      0x147c0 ; init_mem_slab_module + 56
        0x000147ae:    6944        Di      LDR      r4,[r0,#0x14]
        0x000147b0:    600c        .`      STR      r4,[r1,#0]
        0x000147b2:    6141        Aa      STR      r1,[r0,#0x14]
        0x000147b4:    68c4        .h      LDR      r4,[r0,#0xc]
        0x000147b6:    1c52        R.      ADDS     r2,r2,#1
        0x000147b8:    4421        !D      ADD      r1,r1,r4
        0x000147ba:    6884        .h      LDR      r4,[r0,#8]
        0x000147bc:    4294        .B      CMP      r4,r2
        0x000147be:    d8f6        ..      BHI      0x147ae ; init_mem_slab_module + 38
        0x000147c0:    6859        Yh      LDR      r1,[r3,#4]
        0x000147c2:    301c        .0      ADDS     r0,r0,#0x1c
        0x000147c4:    4288        .B      CMP      r0,r1
        0x000147c6:    d3eb        ..      BCC      0x147a0 ; init_mem_slab_module + 24
        0x000147c8:    bc10        ..      POP      {r4}
        0x000147ca:    2000        .       MOVS     r0,#0
        0x000147cc:    4770        pG      BX       lr
    k_mem_slab_init
        0x000147ce:    6083        .`      STR      r3,[r0,#8]
        0x000147d0:    e9c02103    ...!    STRD     r2,r1,[r0,#0xc]
        0x000147d4:    2200        ."      MOVS     r2,#0
        0x000147d6:    6182        .a      STR      r2,[r0,#0x18]
        0x000147d8:    6142        Ba      STR      r2,[r0,#0x14]
        0x000147da:    2b00        .+      CMP      r3,#0
        0x000147dc:    d908        ..      BLS      0x147f0 ; k_mem_slab_init + 34
        0x000147de:    6943        Ci      LDR      r3,[r0,#0x14]
        0x000147e0:    600b        .`      STR      r3,[r1,#0]
        0x000147e2:    6141        Aa      STR      r1,[r0,#0x14]
        0x000147e4:    68c3        .h      LDR      r3,[r0,#0xc]
        0x000147e6:    1c52        R.      ADDS     r2,r2,#1
        0x000147e8:    4419        .D      ADD      r1,r1,r3
        0x000147ea:    6883        .h      LDR      r3,[r0,#8]
        0x000147ec:    4293        .B      CMP      r3,r2
        0x000147ee:    d8f6        ..      BHI      0x147de ; k_mem_slab_init + 16
        0x000147f0:    6000        .`      STR      r0,[r0,#0]
        0x000147f2:    6040        @`      STR      r0,[r0,#4]
        0x000147f4:    4770        pG      BX       lr
    k_mem_slab_alloc
        0x000147f6:    b510        ..      PUSH     {r4,lr}
        0x000147f8:    460c        .F      MOV      r4,r1
        0x000147fa:    4601        .F      MOV      r1,r0
        0x000147fc:    2320         #      MOVS     r3,#0x20
        0x000147fe:    f3ef8011    ....    MRS      r0,BASEPRI
        0x00014802:    f3838811    ....    MSR      BASEPRI,r3
        0x00014806:    f3bf8f4f    ..O.    DSB      
        0x0001480a:    f3bf8f6f    ..o.    ISB      
        0x0001480e:    694b        Ki      LDR      r3,[r1,#0x14]
        0x00014810:    b143        C.      CBZ      r3,0x14824 ; k_mem_slab_alloc + 46
        0x00014812:    6023        #`      STR      r3,[r4,#0]
        0x00014814:    694a        Ji      LDR      r2,[r1,#0x14]
        0x00014816:    6812        .h      LDR      r2,[r2,#0]
        0x00014818:    614a        Ja      STR      r2,[r1,#0x14]
        0x0001481a:    698a        .i      LDR      r2,[r1,#0x18]
        0x0001481c:    1c52        R.      ADDS     r2,r2,#1
        0x0001481e:    618a        .a      STR      r2,[r1,#0x18]
        0x00014820:    2100        .!      MOVS     r1,#0
        0x00014822:    e00e        ..      B        0x14842 ; k_mem_slab_alloc + 76
        0x00014824:    b14a        J.      CBZ      r2,0x1483a ; k_mem_slab_alloc + 68
        0x00014826:    f001f9f0    ....    BL       _pend_current_thread ; 0x15c0a
        0x0001482a:    2800        .(      CMP      r0,#0
        0x0001482c:    bf18        ..      IT       NE
        0x0001482e:    bd10        ..      POPNE    {r4,pc}
        0x00014830:    4923        #I      LDR      r1,[pc,#140] ; [0x148c0] = 0xc001d458
        0x00014832:    6889        .h      LDR      r1,[r1,#8]
        0x00014834:    6909        .i      LDR      r1,[r1,#0x10]
        0x00014836:    6021        !`      STR      r1,[r4,#0]
        0x00014838:    bd10        ..      POP      {r4,pc}
        0x0001483a:    2100        .!      MOVS     r1,#0
        0x0001483c:    6021        !`      STR      r1,[r4,#0]
        0x0001483e:    f06f010b    o...    MVN      r1,#0xb
        0x00014842:    f3808811    ....    MSR      BASEPRI,r0
        0x00014846:    f3bf8f4f    ..O.    DSB      
        0x0001484a:    f3bf8f6f    ..o.    ISB      
        0x0001484e:    4608        .F      MOV      r0,r1
        0x00014850:    bd10        ..      POP      {r4,pc}
    k_mem_slab_free
        0x00014852:    b570        p.      PUSH     {r4-r6,lr}
        0x00014854:    4605        .F      MOV      r5,r0
        0x00014856:    460e        .F      MOV      r6,r1
        0x00014858:    2020                MOVS     r0,#0x20
        0x0001485a:    f3ef8411    ....    MRS      r4,BASEPRI
        0x0001485e:    f3808811    ....    MSR      BASEPRI,r0
        0x00014862:    f3bf8f4f    ..O.    DSB      
        0x00014866:    f3bf8f6f    ..o.    ISB      
        0x0001486a:    4628        (F      MOV      r0,r5
        0x0001486c:    f001f9db    ....    BL       _unpend_first_thread ; 0x15c26
        0x00014870:    b188        ..      CBZ      r0,0x14896 ; k_mem_slab_free + 68
        0x00014872:    6832        2h      LDR      r2,[r6,#0]
        0x00014874:    2100        .!      MOVS     r1,#0
        0x00014876:    6102        .a      STR      r2,[r0,#0x10]
        0x00014878:    6641        Af      STR      r1,[r0,#0x64]
        0x0001487a:    7a41        Az      LDRB     r1,[r0,#9]
        0x0001487c:    f0110f1f    ....    TST      r1,#0x1f
        0x00014880:    bf02        ..      ITTT     EQ
        0x00014882:    6a41        Aj      LDREQ    r1,[r0,#0x24]
        0x00014884:    f1b13fff    ...?    CMPEQ    r1,#0xffffffff
        0x00014888:    f001f885    ....    BLEQ     _add_thread_to_ready_q ; 0x15996
        0x0001488c:    4620         F      MOV      r0,r4
        0x0001488e:    e8bd4070    ..p@    POP      {r4-r6,lr}
        0x00014892:    f001ba54    ..T.    B.W      _reschedule ; 0x15d3e
        0x00014896:    6831        1h      LDR      r1,[r6,#0]
        0x00014898:    6968        hi      LDR      r0,[r5,#0x14]
        0x0001489a:    6008        .`      STR      r0,[r1,#0]
        0x0001489c:    6830        0h      LDR      r0,[r6,#0]
        0x0001489e:    6168        ha      STR      r0,[r5,#0x14]
        0x000148a0:    69a8        .i      LDR      r0,[r5,#0x18]
        0x000148a2:    1e40        @.      SUBS     r0,r0,#1
        0x000148a4:    61a8        .a      STR      r0,[r5,#0x18]
        0x000148a6:    f3848811    ....    MSR      BASEPRI,r4
        0x000148aa:    f3bf8f4f    ..O.    DSB      
        0x000148ae:    f3bf8f6f    ..o.    ISB      
        0x000148b2:    bd70        p.      POP      {r4-r6,pc}
    $d
        0x000148b4:    c001a754    T...    DCD    3221333844
        0x000148b8:    c0019f58    X...    DCD    3221331800
        0x000148bc:    00000000    ....    DCD    0
        0x000148c0:    c001d458    X...    DCD    3221345368
    $t
    .text
    init_static_pools
        0x000148c4:    b570        p.      PUSH     {r4-r6,lr}
        0x000148c6:    4cbb        .L      LDR      r4,[pc,#748] ; [0x14bb4] = 0xc001a754
        0x000148c8:    48bc        .H      LDR      r0,[pc,#752] ; [0x14bbc] = 0x1c
        0x000148ca:    4dbb        .M      LDR      r5,[pc,#748] ; [0x14bb8] = 0xc0019f60
        0x000148cc:    4420         D      ADD      r0,r0,r4
        0x000148ce:    4284        .B      CMP      r4,r0
        0x000148d0:    e9c54000    ...@    STRD     r4,r0,[r5,#0]
        0x000148d4:    d20a        ..      BCS      0x148ec ; init_static_pools + 40
        0x000148d6:    f1040114    ....    ADD      r1,r4,#0x14
        0x000148da:    6161        aa      STR      r1,[r4,#0x14]
        0x000148dc:    4620         F      MOV      r0,r4
        0x000148de:    61a1        .a      STR      r1,[r4,#0x18]
        0x000148e0:    f003faf2    ....    BL       _sys_mem_pool_base_init ; 0x17ec8
        0x000148e4:    6868        hh      LDR      r0,[r5,#4]
        0x000148e6:    341c        .4      ADDS     r4,r4,#0x1c
        0x000148e8:    4284        .B      CMP      r4,r0
        0x000148ea:    d3f4        ..      BCC      0x148d6 ; init_static_pools + 18
        0x000148ec:    2000        .       MOVS     r0,#0
        0x000148ee:    bd70        p.      POP      {r4-r6,pc}
    k_mem_pool_alloc
        0x000148f0:    e92d4fff    -..O    PUSH     {r0-r11,lr}
        0x000148f4:    b085        ..      SUB      sp,sp,#0x14
        0x000148f6:    1e1e        ..      SUBS     r6,r3,#0
        0x000148f8:    460c        .F      MOV      r4,r1
        0x000148fa:    4680        .F      MOV      r8,r0
        0x000148fc:    f04f0700    O...    MOV      r7,#0
        0x00014900:    dd05        ..      BLE      0x1490e ; k_mem_pool_alloc + 30
        0x00014902:    f002fb9f    ....    BL       _tick_get ; 0x17044
        0x00014906:    2101        .!      MOVS     r1,#1
        0x00014908:    fb96f1f1    ....    SDIV     r1,r6,r1
        0x0001490c:    1847        G.      ADDS     r7,r0,r1
        0x0001490e:    f8dfa2a8    ....    LDR      r10,[pc,#680] ; [0x14bb8] = 0xc0019f60
        0x00014912:    f8dfb2ac    ....    LDR      r11,[pc,#684] ; [0x14bc0] = 0x92492493
        0x00014916:    f04f0900    O...    MOV      r9,#0
        0x0001491a:    bf00        ..      NOP      
        0x0001491c:    f04f0500    O...    MOV      r5,#0
        0x00014920:    ab01        ..      ADD      r3,sp,#4
        0x00014922:    aa03        ..      ADD      r2,sp,#0xc
        0x00014924:    9400        ..      STR      r4,[sp,#0]
        0x00014926:    4640        @F      MOV      r0,r8
        0x00014928:    9907        ..      LDR      r1,[sp,#0x1c]
        0x0001492a:    f003fb6e    ..n.    BL       _sys_mem_pool_block_alloc ; 0x1800a
        0x0001492e:    f1100f0b    ....    CMN      r0,#0xb
        0x00014932:    d104        ..      BNE      0x1493e ; k_mem_pool_alloc + 78
        0x00014934:    1c6d        m.      ADDS     r5,r5,#1
        0x00014936:    2d02        .-      CMP      r5,#2
        0x00014938:    dbf2        ..      BLT      0x14920 ; k_mem_pool_alloc + 48
        0x0001493a:    f06f000b    o...    MVN      r0,#0xb
        0x0001493e:    f8da1000    ....    LDR      r1,[r10,#0]
        0x00014942:    464a        JF      MOV      r2,r9
        0x00014944:    eba80101    ....    SUB      r1,r8,r1
        0x00014948:    fbcb2101    ...!    SMLAL    r2,r1,r11,r1
        0x0001494c:    110a        ..      ASRS     r2,r1,#4
        0x0001494e:    eba271e1    ...q    SUB      r1,r2,r1,ASR #31
        0x00014952:    7121        !q      STRB     r1,[r4,#4]
        0x00014954:    9a03        ..      LDR      r2,[sp,#0xc]
        0x00014956:    6861        ah      LDR      r1,[r4,#4]
        0x00014958:    2800        .(      CMP      r0,#0
        0x0001495a:    f362210b    b..!    BFI      r1,r2,#8,#4
        0x0001495e:    9a01        ..      LDR      r2,[sp,#4]
        0x00014960:    f362311f    b..1    BFI      r1,r2,#12,#20
        0x00014964:    6061        a`      STR      r1,[r4,#4]
        0x00014966:    bf12        ..      ITEE     NE
        0x00014968:    2e00        ..      CMPNE    r6,#0
        0x0001496a:    b009        ..      ADDEQ    sp,sp,#0x24
        0x0001496c:    e8bd8ff0    ....    POPEQ    {r4-r11,pc}
        0x00014970:    f1100f0c    ....    CMN      r0,#0xc
        0x00014974:    bf1c        ..      ITT      NE
        0x00014976:    b009        ..      ADDNE    sp,sp,#0x24
        0x00014978:    e8bd8ff0    ....    POPNE    {r4-r11,pc}
        0x0001497c:    2120         !      MOVS     r1,#0x20
        0x0001497e:    f3ef8011    ....    MRS      r0,BASEPRI
        0x00014982:    f3818811    ....    MSR      BASEPRI,r1
        0x00014986:    f3bf8f4f    ..O.    DSB      
        0x0001498a:    f3bf8f6f    ..o.    ISB      
        0x0001498e:    4632        2F      MOV      r2,r6
        0x00014990:    f1080114    ....    ADD      r1,r8,#0x14
        0x00014994:    f001f939    ..9.    BL       _pend_current_thread ; 0x15c0a
        0x00014998:    f1b63fff    ...?    CMP      r6,#0xffffffff
        0x0001499c:    d0be        ..      BEQ      0x1491c ; k_mem_pool_alloc + 44
        0x0001499e:    f002fb51    ..Q.    BL       _tick_get ; 0x17044
        0x000149a2:    1a3e        >.      SUBS     r6,r7,r0
        0x000149a4:    d5ba        ..      BPL      0x1491c ; k_mem_pool_alloc + 44
        0x000149a6:    b009        ..      ADD      sp,sp,#0x24
        0x000149a8:    f06f000a    o...    MVN      r0,#0xa
        0x000149ac:    e8bd8ff0    ....    POP      {r4-r11,pc}
    k_mem_pool_free_id
        0x000149b0:    b570        p.      PUSH     {r4-r6,lr}
        0x000149b2:    4a81        .J      LDR      r2,[pc,#516] ; [0x14bb8] = 0xc0019f60
        0x000149b4:    6800        .h      LDR      r0,[r0,#0]
        0x000149b6:    b2c1        ..      UXTB     r1,r0
        0x000149b8:    6812        .h      LDR      r2,[r2,#0]
        0x000149ba:    ebc101c1    ....    RSB      r1,r1,r1,LSL #3
        0x000149be:    eb020581    ....    ADD      r5,r2,r1,LSL #2
        0x000149c2:    0b02        ..      LSRS     r2,r0,#12
        0x000149c4:    f3c02103    ...!    UBFX     r1,r0,#8,#4
        0x000149c8:    4628        (F      MOV      r0,r5
        0x000149ca:    f003fbcb    ....    BL       _sys_mem_pool_block_free ; 0x18164
        0x000149ce:    2020                MOVS     r0,#0x20
        0x000149d0:    f3ef8411    ....    MRS      r4,BASEPRI
        0x000149d4:    f3808811    ....    MSR      BASEPRI,r0
        0x000149d8:    f3bf8f4f    ..O.    DSB      
        0x000149dc:    f3bf8f6f    ..o.    ISB      
        0x000149e0:    f1050014    ....    ADD      r0,r5,#0x14
        0x000149e4:    f001fb2f    ../.    BL       _unpend_all ; 0x16046
        0x000149e8:    2800        .(      CMP      r0,#0
        0x000149ea:    d00e        ..      BEQ      0x14a0a ; k_mem_pool_free_id + 90
        0x000149ec:    f3ef8005    ....    MRS      r0,IPSR
        0x000149f0:    280d        .(      CMP      r0,#0xd
        0x000149f2:    d80a        ..      BHI      0x14a0a ; k_mem_pool_free_id + 90
        0x000149f4:    b120         .      CBZ      r0,0x14a00 ; k_mem_pool_free_id + 80
        0x000149f6:    4873        sH      LDR      r0,[pc,#460] ; [0x14bc4] = 0xe000ed04
        0x000149f8:    6800        .h      LDR      r0,[r0,#0]
        0x000149fa:    f4106f00    ...o    TST      r0,#0x800
        0x000149fe:    d004        ..      BEQ      0x14a0a ; k_mem_pool_free_id + 90
        0x00014a00:    4620         F      MOV      r0,r4
        0x00014a02:    e8bd4070    ..p@    POP      {r4-r6,lr}
        0x00014a06:    f001b99a    ....    B.W      _reschedule ; 0x15d3e
        0x00014a0a:    f3848811    ....    MSR      BASEPRI,r4
        0x00014a0e:    f3bf8f4f    ..O.    DSB      
        0x00014a12:    f3bf8f6f    ..o.    ISB      
        0x00014a16:    bd70        p.      POP      {r4-r6,pc}
    k_mem_pool_free
        0x00014a18:    b570        p.      PUSH     {r4-r6,lr}
        0x00014a1a:    4a67        gJ      LDR      r2,[pc,#412] ; [0x14bb8] = 0xc0019f60
        0x00014a1c:    6840        @h      LDR      r0,[r0,#4]
        0x00014a1e:    b2c1        ..      UXTB     r1,r0
        0x00014a20:    6812        .h      LDR      r2,[r2,#0]
        0x00014a22:    ebc101c1    ....    RSB      r1,r1,r1,LSL #3
        0x00014a26:    eb020581    ....    ADD      r5,r2,r1,LSL #2
        0x00014a2a:    0b02        ..      LSRS     r2,r0,#12
        0x00014a2c:    f3c02103    ...!    UBFX     r1,r0,#8,#4
        0x00014a30:    4628        (F      MOV      r0,r5
        0x00014a32:    f003fb97    ....    BL       _sys_mem_pool_block_free ; 0x18164
        0x00014a36:    2020                MOVS     r0,#0x20
        0x00014a38:    f3ef8411    ....    MRS      r4,BASEPRI
        0x00014a3c:    f3808811    ....    MSR      BASEPRI,r0
        0x00014a40:    f3bf8f4f    ..O.    DSB      
        0x00014a44:    f3bf8f6f    ..o.    ISB      
        0x00014a48:    f1050014    ....    ADD      r0,r5,#0x14
        0x00014a4c:    f001fafb    ....    BL       _unpend_all ; 0x16046
        0x00014a50:    2800        .(      CMP      r0,#0
        0x00014a52:    d00e        ..      BEQ      0x14a72 ; k_mem_pool_free + 90
        0x00014a54:    f3ef8005    ....    MRS      r0,IPSR
        0x00014a58:    280d        .(      CMP      r0,#0xd
        0x00014a5a:    d80a        ..      BHI      0x14a72 ; k_mem_pool_free + 90
        0x00014a5c:    b120         .      CBZ      r0,0x14a68 ; k_mem_pool_free + 80
        0x00014a5e:    4859        YH      LDR      r0,[pc,#356] ; [0x14bc4] = 0xe000ed04
        0x00014a60:    6800        .h      LDR      r0,[r0,#0]
        0x00014a62:    f4106f00    ...o    TST      r0,#0x800
        0x00014a66:    d004        ..      BEQ      0x14a72 ; k_mem_pool_free + 90
        0x00014a68:    4620         F      MOV      r0,r4
        0x00014a6a:    e8bd4070    ..p@    POP      {r4-r6,lr}
        0x00014a6e:    f001b966    ..f.    B.W      _reschedule ; 0x15d3e
        0x00014a72:    f3848811    ....    MSR      BASEPRI,r4
        0x00014a76:    f3bf8f4f    ..O.    DSB      
        0x00014a7a:    f3bf8f6f    ..o.    ISB      
        0x00014a7e:    bd70        p.      POP      {r4-r6,pc}
    k_mem_pool_malloc
        0x00014a80:    b500        ..      PUSH     {lr}
        0x00014a82:    b083        ..      SUB      sp,sp,#0xc
        0x00014a84:    1d0a        ..      ADDS     r2,r1,#4
        0x00014a86:    2300        .#      MOVS     r3,#0
        0x00014a88:    4669        iF      MOV      r1,sp
        0x00014a8a:    f7ffff31    ..1.    BL       k_mem_pool_alloc ; 0x148f0
        0x00014a8e:    2800        .(      CMP      r0,#0
        0x00014a90:    bf1e        ..      ITTT     NE
        0x00014a92:    2000        .       MOVNE    r0,#0
        0x00014a94:    b003        ..      ADDNE    sp,sp,#0xc
        0x00014a96:    bd00        ..      POPNE    {pc}
        0x00014a98:    e9dd0100    ....    LDRD     r0,r1,[sp,#0]
        0x00014a9c:    6001        .`      STR      r1,[r0,#0]
        0x00014a9e:    9800        ..      LDR      r0,[sp,#0]
        0x00014aa0:    b003        ..      ADD      sp,sp,#0xc
        0x00014aa2:    1d00        ..      ADDS     r0,r0,#4
        0x00014aa4:    bd00        ..      POP      {pc}
    k_free
        0x00014aa6:    2800        .(      CMP      r0,#0
        0x00014aa8:    bf08        ..      IT       EQ
        0x00014aaa:    4770        pG      BXEQ     lr
        0x00014aac:    b570        p.      PUSH     {r4-r6,lr}
        0x00014aae:    4a42        BJ      LDR      r2,[pc,#264] ; [0x14bb8] = 0xc0019f60
        0x00014ab0:    f8500c04    P...    LDR      r0,[r0,#-4]
        0x00014ab4:    b2c1        ..      UXTB     r1,r0
        0x00014ab6:    6812        .h      LDR      r2,[r2,#0]
        0x00014ab8:    ebc101c1    ....    RSB      r1,r1,r1,LSL #3
        0x00014abc:    eb020581    ....    ADD      r5,r2,r1,LSL #2
        0x00014ac0:    0b02        ..      LSRS     r2,r0,#12
        0x00014ac2:    f3c02103    ...!    UBFX     r1,r0,#8,#4
        0x00014ac6:    4628        (F      MOV      r0,r5
        0x00014ac8:    f003fb4c    ..L.    BL       _sys_mem_pool_block_free ; 0x18164
        0x00014acc:    2020                MOVS     r0,#0x20
        0x00014ace:    f3ef8411    ....    MRS      r4,BASEPRI
        0x00014ad2:    f3808811    ....    MSR      BASEPRI,r0
        0x00014ad6:    f3bf8f4f    ..O.    DSB      
        0x00014ada:    f3bf8f6f    ..o.    ISB      
        0x00014ade:    f1050014    ....    ADD      r0,r5,#0x14
        0x00014ae2:    f001fab0    ....    BL       _unpend_all ; 0x16046
        0x00014ae6:    2800        .(      CMP      r0,#0
        0x00014ae8:    d00e        ..      BEQ      0x14b08 ; k_free + 98
        0x00014aea:    f3ef8005    ....    MRS      r0,IPSR
        0x00014aee:    280d        .(      CMP      r0,#0xd
        0x00014af0:    d80a        ..      BHI      0x14b08 ; k_free + 98
        0x00014af2:    b120         .      CBZ      r0,0x14afe ; k_free + 88
        0x00014af4:    4833        3H      LDR      r0,[pc,#204] ; [0x14bc4] = 0xe000ed04
        0x00014af6:    6800        .h      LDR      r0,[r0,#0]
        0x00014af8:    f4106f00    ...o    TST      r0,#0x800
        0x00014afc:    d004        ..      BEQ      0x14b08 ; k_free + 98
        0x00014afe:    4620         F      MOV      r0,r4
        0x00014b00:    e8bd4070    ..p@    POP      {r4-r6,lr}
        0x00014b04:    f001b91b    ....    B.W      _reschedule ; 0x15d3e
        0x00014b08:    f3848811    ....    MSR      BASEPRI,r4
        0x00014b0c:    f3bf8f4f    ..O.    DSB      
        0x00014b10:    f3bf8f6f    ..o.    ISB      
        0x00014b14:    bd70        p.      POP      {r4-r6,pc}
    k_malloc
        0x00014b16:    b500        ..      PUSH     {lr}
        0x00014b18:    f8dfc0ac    ....    LDR      r12,[pc,#172] ; [0x14bc8] = 0xc001a754
        0x00014b1c:    b083        ..      SUB      sp,sp,#0xc
        0x00014b1e:    1d02        ..      ADDS     r2,r0,#4
        0x00014b20:    2300        .#      MOVS     r3,#0
        0x00014b22:    4669        iF      MOV      r1,sp
        0x00014b24:    4660        `F      MOV      r0,r12
        0x00014b26:    f7fffee3    ....    BL       k_mem_pool_alloc ; 0x148f0
        0x00014b2a:    2800        .(      CMP      r0,#0
        0x00014b2c:    bf1e        ..      ITTT     NE
        0x00014b2e:    2000        .       MOVNE    r0,#0
        0x00014b30:    b003        ..      ADDNE    sp,sp,#0xc
        0x00014b32:    bd00        ..      POPNE    {pc}
        0x00014b34:    e9dd0100    ....    LDRD     r0,r1,[sp,#0]
        0x00014b38:    6001        .`      STR      r1,[r0,#0]
        0x00014b3a:    9800        ..      LDR      r0,[sp,#0]
        0x00014b3c:    b003        ..      ADD      sp,sp,#0xc
        0x00014b3e:    1d00        ..      ADDS     r0,r0,#4
        0x00014b40:    bd00        ..      POP      {pc}
    k_calloc
        0x00014b42:    b530        0.      PUSH     {r4,r5,lr}
        0x00014b44:    fb00f401    ....    MUL      r4,r0,r1
        0x00014b48:    b083        ..      SUB      sp,sp,#0xc
        0x00014b4a:    481f        .H      LDR      r0,[pc,#124] ; [0x14bc8] = 0xc001a754
        0x00014b4c:    1d22        ".      ADDS     r2,r4,#4
        0x00014b4e:    2300        .#      MOVS     r3,#0
        0x00014b50:    4669        iF      MOV      r1,sp
        0x00014b52:    f7fffecd    ....    BL       k_mem_pool_alloc ; 0x148f0
        0x00014b56:    2800        .(      CMP      r0,#0
        0x00014b58:    bf18        ..      IT       NE
        0x00014b5a:    2500        .%      MOVNE    r5,#0
        0x00014b5c:    d109        ..      BNE      0x14b72 ; k_calloc + 48
        0x00014b5e:    e9dd0100    ....    LDRD     r0,r1,[sp,#0]
        0x00014b62:    6001        .`      STR      r1,[r0,#0]
        0x00014b64:    9800        ..      LDR      r0,[sp,#0]
        0x00014b66:    1d05        ..      ADDS     r5,r0,#4
        0x00014b68:    d003        ..      BEQ      0x14b72 ; k_calloc + 48
        0x00014b6a:    4621        !F      MOV      r1,r4
        0x00014b6c:    4628        (F      MOV      r0,r5
        0x00014b6e:    f004fcd5    ....    BL       __aeabi_memclr ; 0x1951c
        0x00014b72:    b003        ..      ADD      sp,sp,#0xc
        0x00014b74:    4628        (F      MOV      r0,r5
        0x00014b76:    bd30        0.      POP      {r4,r5,pc}
    k_thread_system_pool_assign
        0x00014b78:    4913        .I      LDR      r1,[pc,#76] ; [0x14bc8] = 0xc001a754
        0x00014b7a:    65c1        .e      STR      r1,[r0,#0x5c]
        0x00014b7c:    4770        pG      BX       lr
    z_thread_malloc
        0x00014b7e:    4913        .I      LDR      r1,[pc,#76] ; [0x14bcc] = 0xc001d458
        0x00014b80:    b500        ..      PUSH     {lr}
        0x00014b82:    6889        .h      LDR      r1,[r1,#8]
        0x00014b84:    b083        ..      SUB      sp,sp,#0xc
        0x00014b86:    f8d1c05c    ..\.    LDR      r12,[r1,#0x5c]
        0x00014b8a:    f1bc0f00    ....    CMP      r12,#0
        0x00014b8e:    d006        ..      BEQ      0x14b9e ; z_thread_malloc + 32
        0x00014b90:    1d02        ..      ADDS     r2,r0,#4
        0x00014b92:    2300        .#      MOVS     r3,#0
        0x00014b94:    4669        iF      MOV      r1,sp
        0x00014b96:    4660        `F      MOV      r0,r12
        0x00014b98:    f7fffeaa    ....    BL       k_mem_pool_alloc ; 0x148f0
        0x00014b9c:    b110        ..      CBZ      r0,0x14ba4 ; z_thread_malloc + 38
        0x00014b9e:    b003        ..      ADD      sp,sp,#0xc
        0x00014ba0:    2000        .       MOVS     r0,#0
        0x00014ba2:    bd00        ..      POP      {pc}
        0x00014ba4:    e9dd0100    ....    LDRD     r0,r1,[sp,#0]
        0x00014ba8:    6001        .`      STR      r1,[r0,#0]
        0x00014baa:    9800        ..      LDR      r0,[sp,#0]
        0x00014bac:    b003        ..      ADD      sp,sp,#0xc
        0x00014bae:    1d00        ..      ADDS     r0,r0,#4
        0x00014bb0:    bd00        ..      POP      {pc}
    $d
        0x00014bb2:    0000        ..      DCW    0
        0x00014bb4:    c001a754    T...    DCD    3221333844
        0x00014bb8:    c0019f60    `...    DCD    3221331808
        0x00014bbc:    0000001c    ....    DCD    28
        0x00014bc0:    92492493    .$I.    DCD    2454267027
        0x00014bc4:    e000ed04    ....    DCD    3758157060
        0x00014bc8:    c001a754    T...    DCD    3221333844
        0x00014bcc:    c001d458    X...    DCD    3221345368
    $t
    .text
    _impl_k_mutex_init
        0x00014bd0:    2100        .!      MOVS     r1,#0
        0x00014bd2:    6081        .`      STR      r1,[r0,#8]
        0x00014bd4:    60c1        .`      STR      r1,[r0,#0xc]
        0x00014bd6:    6000        .`      STR      r0,[r0,#0]
        0x00014bd8:    6040        @`      STR      r0,[r0,#4]
        0x00014bda:    4770        pG      BX       lr
    _impl_k_mutex_lock
        0x00014bdc:    b570        p.      PUSH     {r4-r6,lr}
        0x00014bde:    4604        .F      MOV      r4,r0
        0x00014be0:    485c        \H      LDR      r0,[pc,#368] ; [0x14d54] = 0xc001d458
        0x00014be2:    460e        .F      MOV      r6,r1
        0x00014be4:    6881        .h      LDR      r1,[r0,#8]
        0x00014be6:    7aca        .z      LDRB     r2,[r1,#0xb]
        0x00014be8:    1e52        R.      SUBS     r2,r2,#1
        0x00014bea:    72ca        .r      STRB     r2,[r1,#0xb]
        0x00014bec:    f3bf8f5f    .._.    DMB      
        0x00014bf0:    68e1        .h      LDR      r1,[r4,#0xc]
        0x00014bf2:    b121        !.      CBZ      r1,0x14bfe ; _impl_k_mutex_lock + 34
        0x00014bf4:    68a2        .h      LDR      r2,[r4,#8]
        0x00014bf6:    6883        .h      LDR      r3,[r0,#8]
        0x00014bf8:    429a        .B      CMP      r2,r3
        0x00014bfa:    d004        ..      BEQ      0x14c06 ; _impl_k_mutex_lock + 42
        0x00014bfc:    e00b        ..      B        0x14c16 ; _impl_k_mutex_lock + 58
        0x00014bfe:    6882        .h      LDR      r2,[r0,#8]
        0x00014c00:    f992200a    ...     LDRSB    r2,[r2,#0xa]
        0x00014c04:    6122        "a      STR      r2,[r4,#0x10]
        0x00014c06:    1c49        I.      ADDS     r1,r1,#1
        0x00014c08:    60e1        .`      STR      r1,[r4,#0xc]
        0x00014c0a:    6880        .h      LDR      r0,[r0,#8]
        0x00014c0c:    60a0        .`      STR      r0,[r4,#8]
        0x00014c0e:    f001f947    ..G.    BL       k_sched_unlock ; 0x15ea0
        0x00014c12:    2000        .       MOVS     r0,#0
        0x00014c14:    bd70        p.      POP      {r4-r6,pc}
        0x00014c16:    2e00        ..      CMP      r6,#0
        0x00014c18:    d048        H.      BEQ      0x14cac ; _impl_k_mutex_lock + 208
        0x00014c1a:    f993200a    ...     LDRSB    r2,[r3,#0xa]
        0x00014c1e:    68a3        .h      LDR      r3,[r4,#8]
        0x00014c20:    f993000a    ....    LDRSB    r0,[r3,#0xa]
        0x00014c24:    4601        .F      MOV      r1,r0
        0x00014c26:    428a        .B      CMP      r2,r1
        0x00014c28:    bfb8        ..      IT       LT
        0x00014c2a:    4611        .F      MOVLT    r1,r2
        0x00014c2c:    2900        .)      CMP      r1,#0
        0x00014c2e:    bfb8        ..      IT       LT
        0x00014c30:    2100        .!      MOVLT    r1,#0
        0x00014c32:    2220         "      MOVS     r2,#0x20
        0x00014c34:    f3ef8511    ....    MRS      r5,BASEPRI
        0x00014c38:    f3828811    ....    MSR      BASEPRI,r2
        0x00014c3c:    f3bf8f4f    ..O.    DSB      
        0x00014c40:    f3bf8f6f    ..o.    ISB      
        0x00014c44:    4288        .B      CMP      r0,r1
        0x00014c46:    bfc4        ..      ITT      GT
        0x00014c48:    4618        .F      MOVGT    r0,r3
        0x00014c4a:    f001f894    ....    BLGT     _thread_priority_set ; 0x15d76
        0x00014c4e:    4632        2F      MOV      r2,r6
        0x00014c50:    4621        !F      MOV      r1,r4
        0x00014c52:    4628        (F      MOV      r0,r5
        0x00014c54:    f000ffd9    ....    BL       _pend_current_thread ; 0x15c0a
        0x00014c58:    b368        h.      CBZ      r0,0x14cb6 ; _impl_k_mutex_lock + 218
        0x00014c5a:    6820         h      LDR      r0,[r4,#0]
        0x00014c5c:    6921        !i      LDR      r1,[r4,#0x10]
        0x00014c5e:    42a0        .B      CMP      r0,r4
        0x00014c60:    bf18        ..      IT       NE
        0x00014c62:    2800        .(      CMPNE    r0,#0
        0x00014c64:    d007        ..      BEQ      0x14c76 ; _impl_k_mutex_lock + 154
        0x00014c66:    f990000a    ....    LDRSB    r0,[r0,#0xa]
        0x00014c6a:    4288        .B      CMP      r0,r1
        0x00014c6c:    bfb8        ..      IT       LT
        0x00014c6e:    4601        .F      MOVLT    r1,r0
        0x00014c70:    2900        .)      CMP      r1,#0
        0x00014c72:    bfb8        ..      IT       LT
        0x00014c74:    2100        .!      MOVLT    r1,#0
        0x00014c76:    2020                MOVS     r0,#0x20
        0x00014c78:    f3ef8511    ....    MRS      r5,BASEPRI
        0x00014c7c:    f3808811    ....    MSR      BASEPRI,r0
        0x00014c80:    f3bf8f4f    ..O.    DSB      
        0x00014c84:    f3bf8f6f    ..o.    ISB      
        0x00014c88:    68a0        .h      LDR      r0,[r4,#8]
        0x00014c8a:    f990200a    ...     LDRSB    r2,[r0,#0xa]
        0x00014c8e:    428a        .B      CMP      r2,r1
        0x00014c90:    bf18        ..      IT       NE
        0x00014c92:    f001f870    ..p.    BLNE     _thread_priority_set ; 0x15d76
        0x00014c96:    f3858811    ....    MSR      BASEPRI,r5
        0x00014c9a:    f3bf8f4f    ..O.    DSB      
        0x00014c9e:    f3bf8f6f    ..o.    ISB      
        0x00014ca2:    f001f8fd    ....    BL       k_sched_unlock ; 0x15ea0
        0x00014ca6:    f06f000a    o...    MVN      r0,#0xa
        0x00014caa:    bd70        p.      POP      {r4-r6,pc}
        0x00014cac:    f001f8f8    ....    BL       k_sched_unlock ; 0x15ea0
        0x00014cb0:    f06f000f    o...    MVN      r0,#0xf
        0x00014cb4:    bd70        p.      POP      {r4-r6,pc}
        0x00014cb6:    f001f8f3    ....    BL       k_sched_unlock ; 0x15ea0
        0x00014cba:    2000        .       MOVS     r0,#0
        0x00014cbc:    bd70        p.      POP      {r4-r6,pc}
    _impl_k_mutex_unlock
        0x00014cbe:    b570        p.      PUSH     {r4-r6,lr}
        0x00014cc0:    4604        .F      MOV      r4,r0
        0x00014cc2:    4824        $H      LDR      r0,[pc,#144] ; [0x14d54] = 0xc001d458
        0x00014cc4:    6880        .h      LDR      r0,[r0,#8]
        0x00014cc6:    7ac1        .z      LDRB     r1,[r0,#0xb]
        0x00014cc8:    1e49        I.      SUBS     r1,r1,#1
        0x00014cca:    72c1        .r      STRB     r1,[r0,#0xb]
        0x00014ccc:    f3bf8f5f    .._.    DMB      
        0x00014cd0:    68e0        .h      LDR      r0,[r4,#0xc]
        0x00014cd2:    1e40        @.      SUBS     r0,r0,#1
        0x00014cd4:    60e0        .`      STR      r0,[r4,#0xc]
        0x00014cd6:    d003        ..      BEQ      0x14ce0 ; _impl_k_mutex_unlock + 34
        0x00014cd8:    e8bd4070    ..p@    POP      {r4-r6,lr}
        0x00014cdc:    f001b8e0    ....    B.W      k_sched_unlock ; 0x15ea0
        0x00014ce0:    2020                MOVS     r0,#0x20
        0x00014ce2:    f3ef8511    ....    MRS      r5,BASEPRI
        0x00014ce6:    f3808811    ....    MSR      BASEPRI,r0
        0x00014cea:    f3bf8f4f    ..O.    DSB      
        0x00014cee:    f3bf8f6f    ..o.    ISB      
        0x00014cf2:    68a0        .h      LDR      r0,[r4,#8]
        0x00014cf4:    6921        !i      LDR      r1,[r4,#0x10]
        0x00014cf6:    f990200a    ...     LDRSB    r2,[r0,#0xa]
        0x00014cfa:    428a        .B      CMP      r2,r1
        0x00014cfc:    bf18        ..      IT       NE
        0x00014cfe:    f001f83a    ..:.    BLNE     _thread_priority_set ; 0x15d76
        0x00014d02:    4620         F      MOV      r0,r4
        0x00014d04:    f000ff8f    ....    BL       _unpend_first_thread ; 0x15c26
        0x00014d08:    0006        ..      MOVS     r6,r0
        0x00014d0a:    60a6        .`      STR      r6,[r4,#8]
        0x00014d0c:    d017        ..      BEQ      0x14d3e ; _impl_k_mutex_unlock + 128
        0x00014d0e:    7a71        qz      LDRB     r1,[r6,#9]
        0x00014d10:    4630        0F      MOV      r0,r6
        0x00014d12:    f0110f1f    ....    TST      r1,#0x1f
        0x00014d16:    bf02        ..      ITTT     EQ
        0x00014d18:    6a41        Aj      LDREQ    r1,[r0,#0x24]
        0x00014d1a:    f1b13fff    ...?    CMPEQ    r1,#0xffffffff
        0x00014d1e:    f000fe3a    ..:.    BLEQ     _add_thread_to_ready_q ; 0x15996
        0x00014d22:    f3858811    ....    MSR      BASEPRI,r5
        0x00014d26:    f3bf8f4f    ..O.    DSB      
        0x00014d2a:    f3bf8f6f    ..o.    ISB      
        0x00014d2e:    2000        .       MOVS     r0,#0
        0x00014d30:    6670        pf      STR      r0,[r6,#0x64]
        0x00014d32:    68e0        .h      LDR      r0,[r4,#0xc]
        0x00014d34:    1c40        @.      ADDS     r0,r0,#1
        0x00014d36:    60e0        .`      STR      r0,[r4,#0xc]
        0x00014d38:    f996000a    ....    LDRSB    r0,[r6,#0xa]
        0x00014d3c:    6120         a      STR      r0,[r4,#0x10]
        0x00014d3e:    f3858811    ....    MSR      BASEPRI,r5
        0x00014d42:    f3bf8f4f    ..O.    DSB      
        0x00014d46:    f3bf8f6f    ..o.    ISB      
        0x00014d4a:    e8bd4070    ..p@    POP      {r4-r6,lr}
        0x00014d4e:    f001b8a7    ....    B.W      k_sched_unlock ; 0x15ea0
    $d
        0x00014d52:    0000        ..      DCW    0
        0x00014d54:    c001d458    X...    DCD    3221345368
    $t
    .text
    init_pipes_module
        0x00014d58:    b570        p.      PUSH     {r4-r6,lr}
        0x00014d5a:    2400        .$      MOVS     r4,#0
        0x00014d5c:    4dfe        .M      LDR      r5,[pc,#1016] ; [0x15158] = 0xc001db34
        0x00014d5e:    2601        .&      MOVS     r6,#1
        0x00014d60:    eb041004    ....    ADD      r0,r4,r4,LSL #4
        0x00014d64:    eb050180    ....    ADD      r1,r5,r0,LSL #2
        0x00014d68:    f101002c    ..,.    ADD      r0,r1,#0x2c
        0x00014d6c:    724e        Nr      STRB     r6,[r1,#9]
        0x00014d6e:    6108        .a      STR      r0,[r1,#0x10]
        0x00014d70:    48fa        .H      LDR      r0,[pc,#1000] ; [0x1515c] = 0xc001a788
        0x00014d72:    f001fd63    ..c.    BL       _impl_k_stack_push ; 0x1683c
        0x00014d76:    1c64        d.      ADDS     r4,r4,#1
        0x00014d78:    2c0a        .,      CMP      r4,#0xa
        0x00014d7a:    dbf1        ..      BLT      0x14d60 ; init_pipes_module + 8
        0x00014d7c:    2000        .       MOVS     r0,#0
        0x00014d7e:    bd70        p.      POP      {r4-r6,pc}
    k_pipe_init
        0x00014d80:    e9c01200    ....    STRD     r1,r2,[r0,#0]
        0x00014d84:    2100        .!      MOVS     r1,#0
        0x00014d86:    6081        .`      STR      r1,[r0,#8]
        0x00014d88:    60c1        .`      STR      r1,[r0,#0xc]
        0x00014d8a:    6101        .a      STR      r1,[r0,#0x10]
        0x00014d8c:    f8801024    ..$.    STRB     r1,[r0,#0x24]
        0x00014d90:    f100011c    ....    ADD      r1,r0,#0x1c
        0x00014d94:    61c1        .a      STR      r1,[r0,#0x1c]
        0x00014d96:    6201        .b      STR      r1,[r0,#0x20]
        0x00014d98:    3014        .0      ADDS     r0,r0,#0x14
        0x00014d9a:    6000        .`      STR      r0,[r0,#0]
        0x00014d9c:    6040        @`      STR      r0,[r0,#4]
        0x00014d9e:    4770        pG      BX       lr
    _impl_k_pipe_alloc_init
        0x00014da0:    b570        p.      PUSH     {r4-r6,lr}
        0x00014da2:    4604        .F      MOV      r4,r0
        0x00014da4:    000e        ..      MOVS     r6,r1
        0x00014da6:    f04f0500    O...    MOV      r5,#0
        0x00014daa:    d018        ..      BEQ      0x14dde ; _impl_k_pipe_alloc_init + 62
        0x00014dac:    4608        .F      MOV      r0,r1
        0x00014dae:    f7fffee6    ....    BL       z_thread_malloc ; 0x14b7e
        0x00014db2:    2800        .(      CMP      r0,#0
        0x00014db4:    bf04        ..      ITT      EQ
        0x00014db6:    f06f000b    o...    MVNEQ    r0,#0xb
        0x00014dba:    bd70        p.      POPEQ    {r4-r6,pc}
        0x00014dbc:    6020         `      STR      r0,[r4,#0]
        0x00014dbe:    e9c46501    ...e    STRD     r6,r5,[r4,#4]
        0x00014dc2:    60e5        .`      STR      r5,[r4,#0xc]
        0x00014dc4:    f104001c    ....    ADD      r0,r4,#0x1c
        0x00014dc8:    61e0        .a      STR      r0,[r4,#0x1c]
        0x00014dca:    6125        %a      STR      r5,[r4,#0x10]
        0x00014dcc:    6220         b      STR      r0,[r4,#0x20]
        0x00014dce:    3808        .8      SUBS     r0,r0,#8
        0x00014dd0:    6160        `a      STR      r0,[r4,#0x14]
        0x00014dd2:    61a0        .a      STR      r0,[r4,#0x18]
        0x00014dd4:    2001        .       MOVS     r0,#1
        0x00014dd6:    f8840024    ..$.    STRB     r0,[r4,#0x24]
        0x00014dda:    2000        .       MOVS     r0,#0
        0x00014ddc:    bd70        p.      POP      {r4-r6,pc}
        0x00014dde:    2100        .!      MOVS     r1,#0
        0x00014de0:    6021        !`      STR      r1,[r4,#0]
        0x00014de2:    e9c41501    ....    STRD     r1,r5,[r4,#4]
        0x00014de6:    60e5        .`      STR      r5,[r4,#0xc]
        0x00014de8:    6125        %a      STR      r5,[r4,#0x10]
        0x00014dea:    f8845024    ..$P    STRB     r5,[r4,#0x24]
        0x00014dee:    f104001c    ....    ADD      r0,r4,#0x1c
        0x00014df2:    61e0        .a      STR      r0,[r4,#0x1c]
        0x00014df4:    6220         b      STR      r0,[r4,#0x20]
        0x00014df6:    3414        .4      ADDS     r4,r4,#0x14
        0x00014df8:    6024        $`      STR      r4,[r4,#0]
        0x00014dfa:    6064        d`      STR      r4,[r4,#4]
        0x00014dfc:    e7ed        ..      B        0x14dda ; _impl_k_pipe_alloc_init + 58
    k_pipe_cleanup
        0x00014dfe:    b510        ..      PUSH     {r4,lr}
        0x00014e00:    4604        .F      MOV      r4,r0
        0x00014e02:    f8900024    ..$.    LDRB     r0,[r0,#0x24]
        0x00014e06:    f0100f01    ....    TST      r0,#1
        0x00014e0a:    bf08        ..      IT       EQ
        0x00014e0c:    bd10        ..      POPEQ    {r4,pc}
        0x00014e0e:    6820         h      LDR      r0,[r4,#0]
        0x00014e10:    f7fffe49    ..I.    BL       k_free ; 0x14aa6
        0x00014e14:    2000        .       MOVS     r0,#0
        0x00014e16:    6020         `      STR      r0,[r4,#0]
        0x00014e18:    f8940024    ..$.    LDRB     r0,[r4,#0x24]
        0x00014e1c:    f0200001     ...    BIC      r0,r0,#1
        0x00014e20:    f8840024    ..$.    STRB     r0,[r4,#0x24]
        0x00014e24:    bd10        ..      POP      {r4,pc}
    _k_pipe_put_internal
        0x00014e26:    e92d4fff    -..O    PUSH     {r0-r11,lr}
        0x00014e2a:    2500        .%      MOVS     r5,#0
        0x00014e2c:    b08b        ..      SUB      sp,sp,#0x2c
        0x00014e2e:    461c        .F      MOV      r4,r3
        0x00014e30:    4691        .F      MOV      r9,r2
        0x00014e32:    4680        .F      MOV      r8,r0
        0x00014e34:    2120         !      MOVS     r1,#0x20
        0x00014e36:    f3ef8011    ....    MRS      r0,BASEPRI
        0x00014e3a:    f3818811    ....    MSR      BASEPRI,r1
        0x00014e3e:    f3bf8f4f    ..O.    DSB      
        0x00014e42:    f3bf8f6f    ..o.    ISB      
        0x00014e46:    9002        ..      STR      r0,[sp,#8]
        0x00014e48:    e9d80101    ....    LDRD     r0,r1,[r8,#4]
        0x00014e4c:    1a43        C.      SUBS     r3,r0,r1
        0x00014e4e:    e9dd2019    ...     LDRD     r2,r0,[sp,#0x64]
        0x00014e52:    2100        .!      MOVS     r1,#0
        0x00014e54:    46eb        .F      MOV      r11,sp
        0x00014e56:    f1080714    ....    ADD      r7,r8,#0x14
        0x00014e5a:    468c        .F      MOV      r12,r1
        0x00014e5c:    bb10        ..      CBNZ     r0,0x14ea4 ; _k_pipe_put_internal + 126
        0x00014e5e:    6838        8h      LDR      r0,[r7,#0]
        0x00014e60:    42b8        .B      CMP      r0,r7
        0x00014e62:    bf18        ..      IT       NE
        0x00014e64:    2800        .(      CMPNE    r0,#0
        0x00014e66:    d00b        ..      BEQ      0x14e80 ; _k_pipe_put_internal + 90
        0x00014e68:    6906        .i      LDR      r6,[r0,#0x10]
        0x00014e6a:    6876        vh      LDR      r6,[r6,#4]
        0x00014e6c:    4431        1D      ADD      r1,r1,r6
        0x00014e6e:    42a1        .B      CMP      r1,r4
        0x00014e70:    d206        ..      BCS      0x14e80 ; _k_pipe_put_internal + 90
        0x00014e72:    2800        .(      CMP      r0,#0
        0x00014e74:    bf1f        ..      ITTTT    NE
        0x00014e76:    687e        ~h      LDRNE    r6,[r7,#4]
        0x00014e78:    4286        .B      CMPNE    r6,r0
        0x00014e7a:    6800        .h      LDRNE    r0,[r0,#0]
        0x00014e7c:    2800        .(      CMPNE    r0,#0
        0x00014e7e:    d1f3        ..      BNE      0x14e68 ; _k_pipe_put_internal + 66
        0x00014e80:    18c8        ..      ADDS     r0,r1,r3
        0x00014e82:    4290        .B      CMP      r0,r2
        0x00014e84:    d20e        ..      BCS      0x14ea4 ; _k_pipe_put_internal + 126
        0x00014e86:    9802        ..      LDR      r0,[sp,#8]
        0x00014e88:    f3808811    ....    MSR      BASEPRI,r0
        0x00014e8c:    f3bf8f4f    ..O.    DSB      
        0x00014e90:    f3bf8f6f    ..o.    ISB      
        0x00014e94:    9818        ..      LDR      r0,[sp,#0x60]
        0x00014e96:    f8c0c000    ....    STR      r12,[r0,#0]
        0x00014e9a:    b00f        ..      ADD      sp,sp,#0x3c
        0x00014e9c:    f06f0004    o...    MVN      r0,#4
        0x00014ea0:    e8bd8ff0    ....    POP      {r4-r11,pc}
        0x00014ea4:    f8cdb000    ....    STR      r11,[sp,#0]
        0x00014ea8:    f8cdb004    ....    STR      r11,[sp,#4]
        0x00014eac:    683e        >h      LDR      r6,[r7,#0]
        0x00014eae:    f04f0a00    O...    MOV      r10,#0
        0x00014eb2:    42be        .B      CMP      r6,r7
        0x00014eb4:    d012        ..      BEQ      0x14edc ; _k_pipe_put_internal + 182
        0x00014eb6:    b1be        ..      CBZ      r6,0x14ee8 ; _k_pipe_put_internal + 194
        0x00014eb8:    6930        0i      LDR      r0,[r6,#0x10]
        0x00014eba:    6840        @h      LDR      r0,[r0,#4]
        0x00014ebc:    4482        .D      ADD      r10,r10,r0
        0x00014ebe:    45a2        .E      CMP      r10,r4
        0x00014ec0:    d810        ..      BHI      0x14ee4 ; _k_pipe_put_internal + 190
        0x00014ec2:    4630        0F      MOV      r0,r6
        0x00014ec4:    f000fefe    ....    BL       _unpend_thread ; 0x15cc4
        0x00014ec8:    f8c6b000    ....    STR      r11,[r6,#0]
        0x00014ecc:    9801        ..      LDR      r0,[sp,#4]
        0x00014ece:    6070        p`      STR      r0,[r6,#4]
        0x00014ed0:    9801        ..      LDR      r0,[sp,#4]
        0x00014ed2:    6006        .`      STR      r6,[r0,#0]
        0x00014ed4:    9601        ..      STR      r6,[sp,#4]
        0x00014ed6:    683e        >h      LDR      r6,[r7,#0]
        0x00014ed8:    42be        .B      CMP      r6,r7
        0x00014eda:    d101        ..      BNE      0x14ee0 ; _k_pipe_put_internal + 186
        0x00014edc:    2600        .&      MOVS     r6,#0
        0x00014ede:    e001        ..      B        0x14ee4 ; _k_pipe_put_internal + 190
        0x00014ee0:    2e00        ..      CMP      r6,#0
        0x00014ee2:    d1e9        ..      BNE      0x14eb8 ; _k_pipe_put_internal + 146
        0x00014ee4:    45a2        .E      CMP      r10,r4
        0x00014ee6:    d800        ..      BHI      0x14eea ; _k_pipe_put_internal + 196
        0x00014ee8:    2600        .&      MOVS     r6,#0
        0x00014eea:    4f9d        .O      LDR      r7,[pc,#628] ; [0x15160] = 0xc001d458
        0x00014eec:    68b8        .h      LDR      r0,[r7,#8]
        0x00014eee:    7ac1        .z      LDRB     r1,[r0,#0xb]
        0x00014ef0:    1e49        I.      SUBS     r1,r1,#1
        0x00014ef2:    72c1        .r      STRB     r1,[r0,#0xb]
        0x00014ef4:    f3bf8f5f    .._.    DMB      
        0x00014ef8:    9802        ..      LDR      r0,[sp,#8]
        0x00014efa:    f3808811    ....    MSR      BASEPRI,r0
        0x00014efe:    f3bf8f4f    ..O.    DSB      
        0x00014f02:    f3bf8f6f    ..o.    ISB      
        0x00014f06:    9900        ..      LDR      r1,[sp,#0]
        0x00014f08:    4668        hF      MOV      r0,sp
        0x00014f0a:    4281        .B      CMP      r1,r0
        0x00014f0c:    d05c        \.      BEQ      0x14fc8 ; _k_pipe_put_internal + 418
        0x00014f0e:    ea5f0a01    _...    MOVS     r10,r1
        0x00014f12:    e9da0100    ....    LDRD     r0,r1,[r10,#0]
        0x00014f16:    6008        .`      STR      r0,[r1,#0]
        0x00014f18:    e9da0100    ....    LDRD     r0,r1,[r10,#0]
        0x00014f1c:    6041        A`      STR      r1,[r0,#4]
        0x00014f1e:    d053        S.      BEQ      0x14fc8 ; _k_pipe_put_internal + 418
        0x00014f20:    f8da1010    ....    LDR      r1,[r10,#0x10]
        0x00014f24:    eba40b05    ....    SUB      r11,r4,r5
        0x00014f28:    eb090005    ....    ADD      r0,r9,r5
        0x00014f2c:    e9d13200    ...2    LDRD     r3,r2,[r1,#0]
        0x00014f30:    455a        ZE      CMP      r2,r11
        0x00014f32:    bf38        8.      IT       CC
        0x00014f34:    4693        .F      MOVCC    r11,r2
        0x00014f36:    eb00020b    ....    ADD      r2,r0,r11
        0x00014f3a:    1a12        ..      SUBS     r2,r2,r0
        0x00014f3c:    2a00        .*      CMP      r2,#0
        0x00014f3e:    dd14        ..      BLE      0x14f6a ; _k_pipe_put_internal + 324
        0x00014f40:    1e40        @.      SUBS     r0,r0,#1
        0x00014f42:    f1a30c01    ....    SUB      r12,r3,#1
        0x00014f46:    f0120f01    ....    TST      r2,#1
        0x00014f4a:    d003        ..      BEQ      0x14f54 ; _k_pipe_put_internal + 302
        0x00014f4c:    f8103f01    ...?    LDRB     r3,[r0,#1]!
        0x00014f50:    f80c3f01    ...?    STRB     r3,[r12,#1]!
        0x00014f54:    1052        R.      ASRS     r2,r2,#1
        0x00014f56:    d008        ..      BEQ      0x14f6a ; _k_pipe_put_internal + 324
        0x00014f58:    7843        Cx      LDRB     r3,[r0,#1]
        0x00014f5a:    f88c3001    ...0    STRB     r3,[r12,#1]
        0x00014f5e:    f8103f02    ...?    LDRB     r3,[r0,#2]!
        0x00014f62:    f80c3f02    ...?    STRB     r3,[r12,#2]!
        0x00014f66:    1e52        R.      SUBS     r2,r2,#1
        0x00014f68:    d1f6        ..      BNE      0x14f58 ; _k_pipe_put_internal + 306
        0x00014f6a:    6808        .h      LDR      r0,[r1,#0]
        0x00014f6c:    445d        ]D      ADD      r5,r5,r11
        0x00014f6e:    4458        XD      ADD      r0,r0,r11
        0x00014f70:    6008        .`      STR      r0,[r1,#0]
        0x00014f72:    6848        Hh      LDR      r0,[r1,#4]
        0x00014f74:    eba0000b    ....    SUB      r0,r0,r11
        0x00014f78:    6048        H`      STR      r0,[r1,#4]
        0x00014f7a:    2020                MOVS     r0,#0x20
        0x00014f7c:    f3ef8b11    ....    MRS      r11,BASEPRI
        0x00014f80:    f3808811    ....    MSR      BASEPRI,r0
        0x00014f84:    f3bf8f4f    ..O.    DSB      
        0x00014f88:    f3bf8f6f    ..o.    ISB      
        0x00014f8c:    f89a1009    ....    LDRB     r1,[r10,#9]
        0x00014f90:    4650        PF      MOV      r0,r10
        0x00014f92:    f0110f1f    ....    TST      r1,#0x1f
        0x00014f96:    bf02        ..      ITTT     EQ
        0x00014f98:    6a41        Aj      LDREQ    r1,[r0,#0x24]
        0x00014f9a:    f1b13fff    ...?    CMPEQ    r1,#0xffffffff
        0x00014f9e:    f000fcfa    ....    BLEQ     _add_thread_to_ready_q ; 0x15996
        0x00014fa2:    f38b8811    ....    MSR      BASEPRI,r11
        0x00014fa6:    f3bf8f4f    ..O.    DSB      
        0x00014faa:    f3bf8f6f    ..o.    ISB      
        0x00014fae:    4668        hF      MOV      r0,sp
        0x00014fb0:    9900        ..      LDR      r1,[sp,#0]
        0x00014fb2:    4281        .B      CMP      r1,r0
        0x00014fb4:    d008        ..      BEQ      0x14fc8 ; _k_pipe_put_internal + 418
        0x00014fb6:    ea5f0a01    _...    MOVS     r10,r1
        0x00014fba:    e9da0100    ....    LDRD     r0,r1,[r10,#0]
        0x00014fbe:    6008        .`      STR      r0,[r1,#0]
        0x00014fc0:    e9da0100    ....    LDRD     r0,r1,[r10,#0]
        0x00014fc4:    6041        A`      STR      r1,[r0,#4]
        0x00014fc6:    d1ab        ..      BNE      0x14f20 ; _k_pipe_put_internal + 250
        0x00014fc8:    b176        v.      CBZ      r6,0x14fe8 ; _k_pipe_put_internal + 450
        0x00014fca:    6936        6i      LDR      r6,[r6,#0x10]
        0x00014fcc:    1b63        c.      SUBS     r3,r4,r5
        0x00014fce:    eb090205    ....    ADD      r2,r9,r5
        0x00014fd2:    e9d60100    ....    LDRD     r0,r1,[r6,#0]
        0x00014fd6:    f000fabb    ....    BL       pipe_xfer ; 0x15550
        0x00014fda:    6831        1h      LDR      r1,[r6,#0]
        0x00014fdc:    4405        .D      ADD      r5,r5,r0
        0x00014fde:    4401        .D      ADD      r1,r1,r0
        0x00014fe0:    6031        1`      STR      r1,[r6,#0]
        0x00014fe2:    6871        qh      LDR      r1,[r6,#4]
        0x00014fe4:    1a08        ..      SUBS     r0,r1,r0
        0x00014fe6:    6070        p`      STR      r0,[r6,#4]
        0x00014fe8:    1b62        b.      SUBS     r2,r4,r5
        0x00014fea:    eb090105    ....    ADD      r1,r9,r5
        0x00014fee:    4640        @F      MOV      r0,r8
        0x00014ff0:    f000fad9    ....    BL       pipe_buffer_put ; 0x155a6
        0x00014ff4:    4428        (D      ADD      r0,r0,r5
        0x00014ff6:    42a0        .B      CMP      r0,r4
        0x00014ff8:    d113        ..      BNE      0x15022 ; _k_pipe_put_internal + 508
        0x00014ffa:    9918        ..      LDR      r1,[sp,#0x60]
        0x00014ffc:    6008        .`      STR      r0,[r1,#0]
        0x00014ffe:    980c        ..      LDR      r0,[sp,#0x30]
        0x00015000:    b160        `.      CBZ      r0,0x1501c ; _k_pipe_put_internal + 502
        0x00015002:    4604        .F      MOV      r4,r0
        0x00015004:    6b40        @k      LDR      r0,[r0,#0x34]
        0x00015006:    f7fffd07    ....    BL       k_mem_pool_free ; 0x14a18
        0x0001500a:    6c20         l      LDR      r0,[r4,#0x40]
        0x0001500c:    2800        .(      CMP      r0,#0
        0x0001500e:    bf18        ..      IT       NE
        0x00015010:    f001fb98    ....    BLNE     _impl_k_sem_give ; 0x16744
        0x00015014:    4621        !F      MOV      r1,r4
        0x00015016:    4851        QH      LDR      r0,[pc,#324] ; [0x1515c] = 0xc001a788
        0x00015018:    f001fc10    ....    BL       _impl_k_stack_push ; 0x1683c
        0x0001501c:    f000ff40    ..@.    BL       k_sched_unlock ; 0x15ea0
        0x00015020:    e01a        ..      B        0x15058 ; _k_pipe_put_internal + 562
        0x00015022:    990c        ..      LDR      r1,[sp,#0x30]
        0x00015024:    b1e1        ..      CBZ      r1,0x15060 ; _k_pipe_put_internal + 570
        0x00015026:    2020                MOVS     r0,#0x20
        0x00015028:    f3ef8411    ....    MRS      r4,BASEPRI
        0x0001502c:    f3808811    ....    MSR      BASEPRI,r0
        0x00015030:    f3bf8f4f    ..O.    DSB      
        0x00015034:    f3bf8f6f    ..o.    ISB      
        0x00015038:    f3bf8f5f    .._.    DMB      
        0x0001503c:    68b8        .h      LDR      r0,[r7,#8]
        0x0001503e:    f04f32ff    O..2    MOV      r2,#0xffffffff
        0x00015042:    7ac1        .z      LDRB     r1,[r0,#0xb]
        0x00015044:    1c49        I.      ADDS     r1,r1,#1
        0x00015046:    72c1        .r      STRB     r1,[r0,#0xb]
        0x00015048:    f108011c    ....    ADD      r1,r8,#0x1c
        0x0001504c:    980c        ..      LDR      r0,[sp,#0x30]
        0x0001504e:    f000fdda    ....    BL       _pend_thread ; 0x15c06
        0x00015052:    4620         F      MOV      r0,r4
        0x00015054:    f000fe73    ..s.    BL       _reschedule ; 0x15d3e
        0x00015058:    b00f        ..      ADD      sp,sp,#0x3c
        0x0001505a:    2000        .       MOVS     r0,#0
        0x0001505c:    e8bd8ff0    ....    POP      {r4-r11,pc}
        0x00015060:    eb090100    ....    ADD      r1,r9,r0
        0x00015064:    1a20         .      SUBS     r0,r4,r0
        0x00015066:    e9cd1004    ....    STRD     r1,r0,[sp,#0x10]
        0x0001506a:    981a        ..      LDR      r0,[sp,#0x68]
        0x0001506c:    b1b8        ..      CBZ      r0,0x1509e ; _k_pipe_put_internal + 632
        0x0001506e:    68b9        .h      LDR      r1,[r7,#8]
        0x00015070:    a804        ..      ADD      r0,sp,#0x10
        0x00015072:    6108        .a      STR      r0,[r1,#0x10]
        0x00015074:    2120         !      MOVS     r1,#0x20
        0x00015076:    f3ef8011    ....    MRS      r0,BASEPRI
        0x0001507a:    f3818811    ....    MSR      BASEPRI,r1
        0x0001507e:    f3bf8f4f    ..O.    DSB      
        0x00015082:    f3bf8f6f    ..o.    ISB      
        0x00015086:    f3bf8f5f    .._.    DMB      
        0x0001508a:    68b9        .h      LDR      r1,[r7,#8]
        0x0001508c:    7aca        .z      LDRB     r2,[r1,#0xb]
        0x0001508e:    1c52        R.      ADDS     r2,r2,#1
        0x00015090:    72ca        .r      STRB     r2,[r1,#0xb]
        0x00015092:    f108011c    ....    ADD      r1,r8,#0x1c
        0x00015096:    9a1a        ..      LDR      r2,[sp,#0x68]
        0x00015098:    f000fdb7    ....    BL       _pend_current_thread ; 0x15c0a
        0x0001509c:    e001        ..      B        0x150a2 ; _k_pipe_put_internal + 636
        0x0001509e:    f000feff    ....    BL       k_sched_unlock ; 0x15ea0
        0x000150a2:    9805        ..      LDR      r0,[sp,#0x14]
        0x000150a4:    1a21        !.      SUBS     r1,r4,r0
        0x000150a6:    9818        ..      LDR      r0,[sp,#0x60]
        0x000150a8:    6001        .`      STR      r1,[r0,#0]
        0x000150aa:    9905        ..      LDR      r1,[sp,#0x14]
        0x000150ac:    9819        ..      LDR      r0,[sp,#0x64]
        0x000150ae:    1a61        a.      SUBS     r1,r4,r1
        0x000150b0:    4281        .B      CMP      r1,r0
        0x000150b2:    bf38        8.      IT       CC
        0x000150b4:    f06f000a    o...    MVNCC    r0,#0xa
        0x000150b8:    d2ce        ..      BCS      0x15058 ; _k_pipe_put_internal + 562
        0x000150ba:    b00f        ..      ADD      sp,sp,#0x3c
        0x000150bc:    e8bd8ff0    ....    POP      {r4-r11,pc}
    _impl_k_pipe_get
        0x000150c0:    e92d4fff    -..O    PUSH     {r0-r11,lr}
        0x000150c4:    4604        .F      MOV      r4,r0
        0x000150c6:    b08b        ..      SUB      sp,sp,#0x2c
        0x000150c8:    2020                MOVS     r0,#0x20
        0x000150ca:    f3ef8a11    ....    MRS      r10,BASEPRI
        0x000150ce:    f3808811    ....    MSR      BASEPRI,r0
        0x000150d2:    f3bf8f4f    ..O.    DSB      
        0x000150d6:    f3bf8f6f    ..o.    ISB      
        0x000150da:    e9dd3118    ...1    LDRD     r3,r1,[sp,#0x60]
        0x000150de:    f8d4c008    ....    LDR      r12,[r4,#8]
        0x000150e2:    2000        .       MOVS     r0,#0
        0x000150e4:    f8dd9034    ..4.    LDR      r9,[sp,#0x34]
        0x000150e8:    46e8        .F      MOV      r8,sp
        0x000150ea:    f104051c    ....    ADD      r5,r4,#0x1c
        0x000150ee:    4607        .F      MOV      r7,r0
        0x000150f0:    bb01        ..      CBNZ     r1,0x15134 ; _impl_k_pipe_get + 116
        0x000150f2:    682a        *h      LDR      r2,[r5,#0]
        0x000150f4:    42aa        .B      CMP      r2,r5
        0x000150f6:    bf18        ..      IT       NE
        0x000150f8:    2a00        .*      CMPNE    r2,#0
        0x000150fa:    d00b        ..      BEQ      0x15114 ; _impl_k_pipe_get + 84
        0x000150fc:    6911        .i      LDR      r1,[r2,#0x10]
        0x000150fe:    6849        Ih      LDR      r1,[r1,#4]
        0x00015100:    4408        .D      ADD      r0,r0,r1
        0x00015102:    4548        HE      CMP      r0,r9
        0x00015104:    d206        ..      BCS      0x15114 ; _impl_k_pipe_get + 84
        0x00015106:    2a00        .*      CMP      r2,#0
        0x00015108:    bf1f        ..      ITTTT    NE
        0x0001510a:    6869        ih      LDRNE    r1,[r5,#4]
        0x0001510c:    4291        .B      CMPNE    r1,r2
        0x0001510e:    6812        .h      LDRNE    r2,[r2,#0]
        0x00015110:    2a00        .*      CMPNE    r2,#0
        0x00015112:    d1f3        ..      BNE      0x150fc ; _impl_k_pipe_get + 60
        0x00015114:    4460        `D      ADD      r0,r0,r12
        0x00015116:    4298        .B      CMP      r0,r3
        0x00015118:    d20c        ..      BCS      0x15134 ; _impl_k_pipe_get + 116
        0x0001511a:    f38a8811    ....    MSR      BASEPRI,r10
        0x0001511e:    f3bf8f4f    ..O.    DSB      
        0x00015122:    f3bf8f6f    ..o.    ISB      
        0x00015126:    980e        ..      LDR      r0,[sp,#0x38]
        0x00015128:    6007        .`      STR      r7,[r0,#0]
        0x0001512a:    b00f        ..      ADD      sp,sp,#0x3c
        0x0001512c:    f06f0004    o...    MVN      r0,#4
        0x00015130:    e8bd8ff0    ....    POP      {r4-r11,pc}
        0x00015134:    f8cd8000    ....    STR      r8,[sp,#0]
        0x00015138:    f8cd8004    ....    STR      r8,[sp,#4]
        0x0001513c:    682e        .h      LDR      r6,[r5,#0]
        0x0001513e:    f04f0b00    O...    MOV      r11,#0
        0x00015142:    42ae        .B      CMP      r6,r5
        0x00015144:    d01a        ..      BEQ      0x1517c ; _impl_k_pipe_get + 188
        0x00015146:    b1fe        ..      CBZ      r6,0x15188 ; _impl_k_pipe_get + 200
        0x00015148:    6930        0i      LDR      r0,[r6,#0x10]
        0x0001514a:    6840        @h      LDR      r0,[r0,#4]
        0x0001514c:    4483        .D      ADD      r11,r11,r0
        0x0001514e:    45cb        .E      CMP      r11,r9
        0x00015150:    d818        ..      BHI      0x15184 ; _impl_k_pipe_get + 196
        0x00015152:    4630        0F      MOV      r0,r6
        0x00015154:    e006        ..      B        0x15164 ; _impl_k_pipe_get + 164
    $d
        0x00015156:    0000        ..      DCW    0
        0x00015158:    c001db34    4...    DCD    3221347124
        0x0001515c:    c001a788    ....    DCD    3221333896
        0x00015160:    c001d458    X...    DCD    3221345368
    $t
        0x00015164:    f000fdae    ....    BL       _unpend_thread ; 0x15cc4
        0x00015168:    f8c68000    ....    STR      r8,[r6,#0]
        0x0001516c:    9801        ..      LDR      r0,[sp,#4]
        0x0001516e:    6070        p`      STR      r0,[r6,#4]
        0x00015170:    9801        ..      LDR      r0,[sp,#4]
        0x00015172:    6006        .`      STR      r6,[r0,#0]
        0x00015174:    9601        ..      STR      r6,[sp,#4]
        0x00015176:    682e        .h      LDR      r6,[r5,#0]
        0x00015178:    42ae        .B      CMP      r6,r5
        0x0001517a:    d101        ..      BNE      0x15180 ; _impl_k_pipe_get + 192
        0x0001517c:    2600        .&      MOVS     r6,#0
        0x0001517e:    e001        ..      B        0x15184 ; _impl_k_pipe_get + 196
        0x00015180:    2e00        ..      CMP      r6,#0
        0x00015182:    d1e1        ..      BNE      0x15148 ; _impl_k_pipe_get + 136
        0x00015184:    45cb        .E      CMP      r11,r9
        0x00015186:    d800        ..      BHI      0x1518a ; _impl_k_pipe_get + 202
        0x00015188:    2600        .&      MOVS     r6,#0
        0x0001518a:    48fd        .H      LDR      r0,[pc,#1012] ; [0x15580] = 0xc001d458
        0x0001518c:    9602        ..      STR      r6,[sp,#8]
        0x0001518e:    6880        .h      LDR      r0,[r0,#8]
        0x00015190:    7ac1        .z      LDRB     r1,[r0,#0xb]
        0x00015192:    1e49        I.      SUBS     r1,r1,#1
        0x00015194:    72c1        .r      STRB     r1,[r0,#0xb]
        0x00015196:    f3bf8f5f    .._.    DMB      
        0x0001519a:    f38a8811    ....    MSR      BASEPRI,r10
        0x0001519e:    f3bf8f4f    ..O.    DSB      
        0x000151a2:    f3bf8f6f    ..o.    ISB      
        0x000151a6:    e9dd980c    ....    LDRD     r9,r8,[sp,#0x30]
        0x000151aa:    2600        .&      MOVS     r6,#0
        0x000151ac:    4635        5F      MOV      r5,r6
        0x000151ae:    68e2        .h      LDR      r2,[r4,#0xc]
        0x000151b0:    6860        `h      LDR      r0,[r4,#4]
        0x000151b2:    f8d4c008    ....    LDR      r12,[r4,#8]
        0x000151b6:    1a80        ..      SUBS     r0,r0,r2
        0x000151b8:    4560        `E      CMP      r0,r12
        0x000151ba:    bf98        ..      IT       LS
        0x000151bc:    4684        .F      MOVLS    r12,r0
        0x000151be:    eb090306    ....    ADD      r3,r9,r6
        0x000151c2:    6820         h      LDR      r0,[r4,#0]
        0x000151c4:    eba80106    ....    SUB      r1,r8,r6
        0x000151c8:    4410        .D      ADD      r0,r0,r2
        0x000151ca:    4561        aE      CMP      r1,r12
        0x000151cc:    bf38        8.      IT       CC
        0x000151ce:    468c        .F      MOVCC    r12,r1
        0x000151d0:    eb00010c    ....    ADD      r1,r0,r12
        0x000151d4:    1a0a        ..      SUBS     r2,r1,r0
        0x000151d6:    2a00        .*      CMP      r2,#0
        0x000151d8:    dd12        ..      BLE      0x15200 ; _impl_k_pipe_get + 320
        0x000151da:    1e41        A.      SUBS     r1,r0,#1
        0x000151dc:    1e58        X.      SUBS     r0,r3,#1
        0x000151de:    f0120f01    ....    TST      r2,#1
        0x000151e2:    d003        ..      BEQ      0x151ec ; _impl_k_pipe_get + 300
        0x000151e4:    f8113f01    ...?    LDRB     r3,[r1,#1]!
        0x000151e8:    f8003f01    ...?    STRB     r3,[r0,#1]!
        0x000151ec:    1052        R.      ASRS     r2,r2,#1
        0x000151ee:    d007        ..      BEQ      0x15200 ; _impl_k_pipe_get + 320
        0x000151f0:    784b        Kx      LDRB     r3,[r1,#1]
        0x000151f2:    7043        Cp      STRB     r3,[r0,#1]
        0x000151f4:    f8113f02    ...?    LDRB     r3,[r1,#2]!
        0x000151f8:    f8003f02    ...?    STRB     r3,[r0,#2]!
        0x000151fc:    1e52        R.      SUBS     r2,r2,#1
        0x000151fe:    d1f7        ..      BNE      0x151f0 ; _impl_k_pipe_get + 304
        0x00015200:    68a0        .h      LDR      r0,[r4,#8]
        0x00015202:    4466        fD      ADD      r6,r6,r12
        0x00015204:    eba0000c    ....    SUB      r0,r0,r12
        0x00015208:    60a0        .`      STR      r0,[r4,#8]
        0x0001520a:    68e0        .h      LDR      r0,[r4,#0xc]
        0x0001520c:    4460        `D      ADD      r0,r0,r12
        0x0001520e:    60e0        .`      STR      r0,[r4,#0xc]
        0x00015210:    6861        ah      LDR      r1,[r4,#4]
        0x00015212:    4288        .B      CMP      r0,r1
        0x00015214:    bf08        ..      IT       EQ
        0x00015216:    60e7        .`      STREQ    r7,[r4,#0xc]
        0x00015218:    1c6d        m.      ADDS     r5,r5,#1
        0x0001521a:    2d02        .-      CMP      r5,#2
        0x0001521c:    dbc7        ..      BLT      0x151ae ; _impl_k_pipe_get + 238
        0x0001521e:    9900        ..      LDR      r1,[sp,#0]
        0x00015220:    4668        hF      MOV      r0,sp
        0x00015222:    4281        .B      CMP      r1,r0
        0x00015224:    d051        Q.      BEQ      0x152ca ; _impl_k_pipe_get + 522
        0x00015226:    000d        ..      MOVS     r5,r1
        0x00015228:    e9d50100    ....    LDRD     r0,r1,[r5,#0]
        0x0001522c:    6008        .`      STR      r0,[r1,#0]
        0x0001522e:    e9d50100    ....    LDRD     r0,r1,[r5,#0]
        0x00015232:    6041        A`      STR      r1,[r0,#4]
        0x00015234:    bf1c        ..      ITT      NE
        0x00015236:    980d        ..      LDRNE    r0,[sp,#0x34]
        0x00015238:    42b0        .B      CMPNE    r0,r6
        0x0001523a:    d947        G.      BLS      0x152cc ; _impl_k_pipe_get + 524
        0x0001523c:    980c        ..      LDR      r0,[sp,#0x30]
        0x0001523e:    f8d58010    ....    LDR      r8,[r5,#0x10]
        0x00015242:    1983        ..      ADDS     r3,r0,r6
        0x00015244:    980d        ..      LDR      r0,[sp,#0x34]
        0x00015246:    1b81        ..      SUBS     r1,r0,r6
        0x00015248:    e9d80c00    ....    LDRD     r0,r12,[r8,#0]
        0x0001524c:    4561        aE      CMP      r1,r12
        0x0001524e:    bf38        8.      IT       CC
        0x00015250:    468c        .F      MOVCC    r12,r1
        0x00015252:    eb00010c    ....    ADD      r1,r0,r12
        0x00015256:    1a0a        ..      SUBS     r2,r1,r0
        0x00015258:    2a00        .*      CMP      r2,#0
        0x0001525a:    dd12        ..      BLE      0x15282 ; _impl_k_pipe_get + 450
        0x0001525c:    1e41        A.      SUBS     r1,r0,#1
        0x0001525e:    1e58        X.      SUBS     r0,r3,#1
        0x00015260:    f0120f01    ....    TST      r2,#1
        0x00015264:    d003        ..      BEQ      0x1526e ; _impl_k_pipe_get + 430
        0x00015266:    f8113f01    ...?    LDRB     r3,[r1,#1]!
        0x0001526a:    f8003f01    ...?    STRB     r3,[r0,#1]!
        0x0001526e:    1052        R.      ASRS     r2,r2,#1
        0x00015270:    d007        ..      BEQ      0x15282 ; _impl_k_pipe_get + 450
        0x00015272:    784b        Kx      LDRB     r3,[r1,#1]
        0x00015274:    7043        Cp      STRB     r3,[r0,#1]
        0x00015276:    f8113f02    ...?    LDRB     r3,[r1,#2]!
        0x0001527a:    f8003f02    ...?    STRB     r3,[r0,#2]!
        0x0001527e:    1e52        R.      SUBS     r2,r2,#1
        0x00015280:    d1f7        ..      BNE      0x15272 ; _impl_k_pipe_get + 434
        0x00015282:    f8d80000    ....    LDR      r0,[r8,#0]
        0x00015286:    4466        fD      ADD      r6,r6,r12
        0x00015288:    4460        `D      ADD      r0,r0,r12
        0x0001528a:    f8c80000    ....    STR      r0,[r8,#0]
        0x0001528e:    f8d80004    ....    LDR      r0,[r8,#4]
        0x00015292:    eba0000c    ....    SUB      r0,r0,r12
        0x00015296:    f8c80004    ....    STR      r0,[r8,#4]
        0x0001529a:    980d        ..      LDR      r0,[sp,#0x34]
        0x0001529c:    4286        .B      CMP      r6,r0
        0x0001529e:    d015        ..      BEQ      0x152cc ; _impl_k_pipe_get + 524
        0x000152a0:    7a69        iz      LDRB     r1,[r5,#9]
        0x000152a2:    4628        (F      MOV      r0,r5
        0x000152a4:    f0110f01    ....    TST      r1,#1
        0x000152a8:    d07d        }.      BEQ      0x153a6 ; _impl_k_pipe_get + 742
        0x000152aa:    6b68        hk      LDR      r0,[r5,#0x34]
        0x000152ac:    f7fffbb4    ....    BL       k_mem_pool_free ; 0x14a18
        0x000152b0:    6c28        (l      LDR      r0,[r5,#0x40]
        0x000152b2:    2800        .(      CMP      r0,#0
        0x000152b4:    bf18        ..      IT       NE
        0x000152b6:    f001fa45    ..E.    BLNE     _impl_k_sem_give ; 0x16744
        0x000152ba:    4629        )F      MOV      r1,r5
        0x000152bc:    48b1        .H      LDR      r0,[pc,#708] ; [0x15584] = 0xc001a788
        0x000152be:    f001fabd    ....    BL       _impl_k_stack_push ; 0x1683c
        0x000152c2:    9900        ..      LDR      r1,[sp,#0]
        0x000152c4:    4668        hF      MOV      r0,sp
        0x000152c6:    4281        .B      CMP      r1,r0
        0x000152c8:    d1ad        ..      BNE      0x15226 ; _impl_k_pipe_get + 358
        0x000152ca:    463d        =F      MOV      r5,r7
        0x000152cc:    9802        ..      LDR      r0,[sp,#8]
        0x000152ce:    2800        .(      CMP      r0,#0
        0x000152d0:    bf1c        ..      ITT      NE
        0x000152d2:    980d        ..      LDRNE    r0,[sp,#0x34]
        0x000152d4:    4286        .B      CMPNE    r6,r0
        0x000152d6:    d215        ..      BCS      0x15304 ; _impl_k_pipe_get + 580
        0x000152d8:    9802        ..      LDR      r0,[sp,#8]
        0x000152da:    f8d08010    ....    LDR      r8,[r0,#0x10]
        0x000152de:    e9d82300    ...#    LDRD     r2,r3,[r8,#0]
        0x000152e2:    980d        ..      LDR      r0,[sp,#0x34]
        0x000152e4:    1b81        ..      SUBS     r1,r0,r6
        0x000152e6:    980c        ..      LDR      r0,[sp,#0x30]
        0x000152e8:    4430        0D      ADD      r0,r0,r6
        0x000152ea:    f000f931    ..1.    BL       pipe_xfer ; 0x15550
        0x000152ee:    f8d81000    ....    LDR      r1,[r8,#0]
        0x000152f2:    4406        .D      ADD      r6,r6,r0
        0x000152f4:    4401        .D      ADD      r1,r1,r0
        0x000152f6:    f8c81000    ....    STR      r1,[r8,#0]
        0x000152fa:    f8d81004    ....    LDR      r1,[r8,#4]
        0x000152fe:    1a08        ..      SUBS     r0,r1,r0
        0x00015300:    f8c80004    ....    STR      r0,[r8,#4]
        0x00015304:    2d00        .-      CMP      r5,#0
        0x00015306:    d06a        j.      BEQ      0x153de ; _impl_k_pipe_get + 798
        0x00015308:    f8d58010    ....    LDR      r8,[r5,#0x10]
        0x0001530c:    2300        .#      MOVS     r3,#0
        0x0001530e:    4699        .F      MOV      r9,r3
        0x00015310:    e9d8ba00    ....    LDRD     r11,r10,[r8,#0]
        0x00015314:    469e        .F      MOV      lr,r3
        0x00015316:    bf00        ..      NOP      
        0x00015318:    e9d42001    ...     LDRD     r2,r0,[r4,#4]
        0x0001531c:    6921        !i      LDR      r1,[r4,#0x10]
        0x0001531e:    1a10        ..      SUBS     r0,r2,r0
        0x00015320:    1a57        W.      SUBS     r7,r2,r1
        0x00015322:    42b8        .B      CMP      r0,r7
        0x00015324:    bf38        8.      IT       CC
        0x00015326:    4607        .F      MOVCC    r7,r0
        0x00015328:    6820         h      LDR      r0,[r4,#0]
        0x0001532a:    ebaa0203    ....    SUB      r2,r10,r3
        0x0001532e:    4408        .D      ADD      r0,r0,r1
        0x00015330:    eb0b0103    ....    ADD      r1,r11,r3
        0x00015334:    4297        .B      CMP      r7,r2
        0x00015336:    bf28        (.      IT       CS
        0x00015338:    4617        .F      MOVCS    r7,r2
        0x0001533a:    19ca        ..      ADDS     r2,r1,r7
        0x0001533c:    1a52        R.      SUBS     r2,r2,r1
        0x0001533e:    2a00        .*      CMP      r2,#0
        0x00015340:    dd14        ..      BLE      0x1536c ; _impl_k_pipe_get + 684
        0x00015342:    1e40        @.      SUBS     r0,r0,#1
        0x00015344:    1e49        I.      SUBS     r1,r1,#1
        0x00015346:    f0120f01    ....    TST      r2,#1
        0x0001534a:    d003        ..      BEQ      0x15354 ; _impl_k_pipe_get + 660
        0x0001534c:    f811cf01    ....    LDRB     r12,[r1,#1]!
        0x00015350:    f800cf01    ....    STRB     r12,[r0,#1]!
        0x00015354:    1052        R.      ASRS     r2,r2,#1
        0x00015356:    d009        ..      BEQ      0x1536c ; _impl_k_pipe_get + 684
        0x00015358:    f891c001    ....    LDRB     r12,[r1,#1]
        0x0001535c:    f880c001    ....    STRB     r12,[r0,#1]
        0x00015360:    f811cf02    ....    LDRB     r12,[r1,#2]!
        0x00015364:    f800cf02    ....    STRB     r12,[r0,#2]!
        0x00015368:    1e52        R.      SUBS     r2,r2,#1
        0x0001536a:    d1f5        ..      BNE      0x15358 ; _impl_k_pipe_get + 664
        0x0001536c:    68a0        .h      LDR      r0,[r4,#8]
        0x0001536e:    443b        ;D      ADD      r3,r3,r7
        0x00015370:    4438        8D      ADD      r0,r0,r7
        0x00015372:    60a0        .`      STR      r0,[r4,#8]
        0x00015374:    6920         i      LDR      r0,[r4,#0x10]
        0x00015376:    4438        8D      ADD      r0,r0,r7
        0x00015378:    6120         a      STR      r0,[r4,#0x10]
        0x0001537a:    6861        ah      LDR      r1,[r4,#4]
        0x0001537c:    4288        .B      CMP      r0,r1
        0x0001537e:    bf08        ..      IT       EQ
        0x00015380:    f8c4e010    ....    STREQ    lr,[r4,#0x10]
        0x00015384:    f1090901    ....    ADD      r9,r9,#1
        0x00015388:    f1b90f02    ....    CMP      r9,#2
        0x0001538c:    dbc4        ..      BLT      0x15318 ; _impl_k_pipe_get + 600
        0x0001538e:    f8d80000    ....    LDR      r0,[r8,#0]
        0x00015392:    4418        .D      ADD      r0,r0,r3
        0x00015394:    f8c80000    ....    STR      r0,[r8,#0]
        0x00015398:    f8d80004    ....    LDR      r0,[r8,#4]
        0x0001539c:    1ac0        ..      SUBS     r0,r0,r3
        0x0001539e:    f8c80004    ....    STR      r0,[r8,#4]
        0x000153a2:    7a69        iz      LDRB     r1,[r5,#9]
        0x000153a4:    e000        ..      B        0x153a8 ; _impl_k_pipe_get + 744
        0x000153a6:    e033        3.      B        0x15410 ; _impl_k_pipe_get + 848
        0x000153a8:    f0110f01    ....    TST      r1,#1
        0x000153ac:    d048        H.      BEQ      0x15440 ; _impl_k_pipe_get + 896
        0x000153ae:    6b68        hk      LDR      r0,[r5,#0x34]
        0x000153b0:    f7fffb32    ..2.    BL       k_mem_pool_free ; 0x14a18
        0x000153b4:    6c28        (l      LDR      r0,[r5,#0x40]
        0x000153b6:    2800        .(      CMP      r0,#0
        0x000153b8:    bf18        ..      IT       NE
        0x000153ba:    f001f9c3    ....    BLNE     _impl_k_sem_give ; 0x16744
        0x000153be:    4629        )F      MOV      r1,r5
        0x000153c0:    4870        pH      LDR      r0,[pc,#448] ; [0x15584] = 0xc001a788
        0x000153c2:    f001fa3b    ..;.    BL       _impl_k_stack_push ; 0x1683c
        0x000153c6:    9900        ..      LDR      r1,[sp,#0]
        0x000153c8:    4668        hF      MOV      r0,sp
        0x000153ca:    4281        .B      CMP      r1,r0
        0x000153cc:    d007        ..      BEQ      0x153de ; _impl_k_pipe_get + 798
        0x000153ce:    000d        ..      MOVS     r5,r1
        0x000153d0:    e9d50100    ....    LDRD     r0,r1,[r5,#0]
        0x000153d4:    6008        .`      STR      r0,[r1,#0]
        0x000153d6:    e9d50100    ....    LDRD     r0,r1,[r5,#0]
        0x000153da:    6041        A`      STR      r1,[r0,#4]
        0x000153dc:    d194        ..      BNE      0x15308 ; _impl_k_pipe_get + 584
        0x000153de:    9802        ..      LDR      r0,[sp,#8]
        0x000153e0:    b158        X.      CBZ      r0,0x153fa ; _impl_k_pipe_get + 826
        0x000153e2:    6905        .i      LDR      r5,[r0,#0x10]
        0x000153e4:    4620         F      MOV      r0,r4
        0x000153e6:    e9d51200    ....    LDRD     r1,r2,[r5,#0]
        0x000153ea:    f000f8dc    ....    BL       pipe_buffer_put ; 0x155a6
        0x000153ee:    6829        )h      LDR      r1,[r5,#0]
        0x000153f0:    4401        .D      ADD      r1,r1,r0
        0x000153f2:    6029        )`      STR      r1,[r5,#0]
        0x000153f4:    6869        ih      LDR      r1,[r5,#4]
        0x000153f6:    1a08        ..      SUBS     r0,r1,r0
        0x000153f8:    6068        h`      STR      r0,[r5,#4]
        0x000153fa:    980d        ..      LDR      r0,[sp,#0x34]
        0x000153fc:    4286        .B      CMP      r6,r0
        0x000153fe:    d138        8.      BNE      0x15472 ; _impl_k_pipe_get + 946
        0x00015400:    f000fd4e    ..N.    BL       k_sched_unlock ; 0x15ea0
        0x00015404:    980e        ..      LDR      r0,[sp,#0x38]
        0x00015406:    6006        .`      STR      r6,[r0,#0]
        0x00015408:    b00f        ..      ADD      sp,sp,#0x3c
        0x0001540a:    2000        .       MOVS     r0,#0
        0x0001540c:    e8bd8ff0    ....    POP      {r4-r11,pc}
        0x00015410:    2220         "      MOVS     r2,#0x20
        0x00015412:    f3ef8511    ....    MRS      r5,BASEPRI
        0x00015416:    f3828811    ....    MSR      BASEPRI,r2
        0x0001541a:    f3bf8f4f    ..O.    DSB      
        0x0001541e:    f3bf8f6f    ..o.    ISB      
        0x00015422:    f0110f1f    ....    TST      r1,#0x1f
        0x00015426:    bf02        ..      ITTT     EQ
        0x00015428:    6a41        Aj      LDREQ    r1,[r0,#0x24]
        0x0001542a:    f1b13fff    ...?    CMPEQ    r1,#0xffffffff
        0x0001542e:    f000fab2    ....    BLEQ     _add_thread_to_ready_q ; 0x15996
        0x00015432:    f3858811    ....    MSR      BASEPRI,r5
        0x00015436:    f3bf8f4f    ..O.    DSB      
        0x0001543a:    f3bf8f6f    ..o.    ISB      
        0x0001543e:    e740        @.      B        0x152c2 ; _impl_k_pipe_get + 514
        0x00015440:    2020                MOVS     r0,#0x20
        0x00015442:    f3ef8711    ....    MRS      r7,BASEPRI
        0x00015446:    f3808811    ....    MSR      BASEPRI,r0
        0x0001544a:    f3bf8f4f    ..O.    DSB      
        0x0001544e:    f3bf8f6f    ..o.    ISB      
        0x00015452:    4628        (F      MOV      r0,r5
        0x00015454:    f0110f1f    ....    TST      r1,#0x1f
        0x00015458:    bf02        ..      ITTT     EQ
        0x0001545a:    6a41        Aj      LDREQ    r1,[r0,#0x24]
        0x0001545c:    f1b13fff    ...?    CMPEQ    r1,#0xffffffff
        0x00015460:    f000fa99    ....    BLEQ     _add_thread_to_ready_q ; 0x15996
        0x00015464:    f3878811    ....    MSR      BASEPRI,r7
        0x00015468:    f3bf8f4f    ..O.    DSB      
        0x0001546c:    f3bf8f6f    ..o.    ISB      
        0x00015470:    e7a9        ..      B        0x153c6 ; _impl_k_pipe_get + 774
        0x00015472:    980c        ..      LDR      r0,[sp,#0x30]
        0x00015474:    4430        0D      ADD      r0,r0,r6
        0x00015476:    9004        ..      STR      r0,[sp,#0x10]
        0x00015478:    980d        ..      LDR      r0,[sp,#0x34]
        0x0001547a:    1b80        ..      SUBS     r0,r0,r6
        0x0001547c:    9005        ..      STR      r0,[sp,#0x14]
        0x0001547e:    9819        ..      LDR      r0,[sp,#0x64]
        0x00015480:    b1c0        ..      CBZ      r0,0x154b4 ; _impl_k_pipe_get + 1012
        0x00015482:    493f        ?I      LDR      r1,[pc,#252] ; [0x15580] = 0xc001d458
        0x00015484:    a804        ..      ADD      r0,sp,#0x10
        0x00015486:    688a        .h      LDR      r2,[r1,#8]
        0x00015488:    6110        .a      STR      r0,[r2,#0x10]
        0x0001548a:    2220         "      MOVS     r2,#0x20
        0x0001548c:    f3ef8011    ....    MRS      r0,BASEPRI
        0x00015490:    f3828811    ....    MSR      BASEPRI,r2
        0x00015494:    f3bf8f4f    ..O.    DSB      
        0x00015498:    f3bf8f6f    ..o.    ISB      
        0x0001549c:    f3bf8f5f    .._.    DMB      
        0x000154a0:    6889        .h      LDR      r1,[r1,#8]
        0x000154a2:    7aca        .z      LDRB     r2,[r1,#0xb]
        0x000154a4:    1c52        R.      ADDS     r2,r2,#1
        0x000154a6:    72ca        .r      STRB     r2,[r1,#0xb]
        0x000154a8:    f1040114    ....    ADD      r1,r4,#0x14
        0x000154ac:    9a19        ..      LDR      r2,[sp,#0x64]
        0x000154ae:    f000fbac    ....    BL       _pend_current_thread ; 0x15c0a
        0x000154b2:    e001        ..      B        0x154b8 ; _impl_k_pipe_get + 1016
        0x000154b4:    f000fcf4    ....    BL       k_sched_unlock ; 0x15ea0
        0x000154b8:    9905        ..      LDR      r1,[sp,#0x14]
        0x000154ba:    980d        ..      LDR      r0,[sp,#0x34]
        0x000154bc:    1a41        A.      SUBS     r1,r0,r1
        0x000154be:    980e        ..      LDR      r0,[sp,#0x38]
        0x000154c0:    6001        .`      STR      r1,[r0,#0]
        0x000154c2:    9a05        ..      LDR      r2,[sp,#0x14]
        0x000154c4:    980d        ..      LDR      r0,[sp,#0x34]
        0x000154c6:    9918        ..      LDR      r1,[sp,#0x60]
        0x000154c8:    1a80        ..      SUBS     r0,r0,r2
        0x000154ca:    4288        .B      CMP      r0,r1
        0x000154cc:    bf2c        ,.      ITE      CS
        0x000154ce:    2000        .       MOVCS    r0,#0
        0x000154d0:    f06f000a    o...    MVNCC    r0,#0xa
        0x000154d4:    b00f        ..      ADD      sp,sp,#0x3c
        0x000154d6:    e8bd8ff0    ....    POP      {r4-r11,pc}
    _impl_k_pipe_put
        0x000154da:    b510        ..      PUSH     {r4,lr}
        0x000154dc:    b084        ..      SUB      sp,sp,#0x10
        0x000154de:    4614        .F      MOV      r4,r2
        0x000154e0:    e9dd2c06    ...,    LDRD     r2,r12,[sp,#0x18]
        0x000154e4:    e9cd3200    ...2    STRD     r3,r2,[sp,#0]
        0x000154e8:    460a        .F      MOV      r2,r1
        0x000154ea:    f8cdc008    ....    STR      r12,[sp,#8]
        0x000154ee:    4623        #F      MOV      r3,r4
        0x000154f0:    2100        .!      MOVS     r1,#0
        0x000154f2:    f7fffc98    ....    BL       _k_pipe_put_internal ; 0x14e26
        0x000154f6:    b004        ..      ADD      sp,sp,#0x10
        0x000154f8:    bd10        ..      POP      {r4,pc}
    k_pipe_block_put
        0x000154fa:    b5f0        ..      PUSH     {r4-r7,lr}
        0x000154fc:    b085        ..      SUB      sp,sp,#0x14
        0x000154fe:    4615        .F      MOV      r5,r2
        0x00015500:    460c        .F      MOV      r4,r1
        0x00015502:    4607        .F      MOV      r7,r0
        0x00015504:    461e        .F      MOV      r6,r3
        0x00015506:    a903        ..      ADD      r1,sp,#0xc
        0x00015508:    f04f32ff    O..2    MOV      r2,#0xffffffff
        0x0001550c:    481d        .H      LDR      r0,[pc,#116] ; [0x15584] = 0xc001a788
        0x0001550e:    f001f9c5    ....    BL       _impl_k_stack_pop ; 0x1689c
        0x00015512:    f8ddc00c    ....    LDR      r12,[sp,#0xc]
        0x00015516:    f10c0038    ..8.    ADD      r0,r12,#0x38
        0x0001551a:    f8cc0034    ..4.    STR      r0,[r12,#0x34]
        0x0001551e:    e9d40100    ....    LDRD     r0,r1,[r4,#0]
        0x00015522:    f8cc6040    ..@`    STR      r6,[r12,#0x40]
        0x00015526:    e9cc010e    ....    STRD     r0,r1,[r12,#0x38]
        0x0001552a:    4815        .H      LDR      r0,[pc,#84] ; [0x15580] = 0xc001d458
        0x0001552c:    6880        .h      LDR      r0,[r0,#8]
        0x0001552e:    f000fe22    ..".    BL       _impl_k_thread_priority_get ; 0x16176
        0x00015532:    9903        ..      LDR      r1,[sp,#0xc]
        0x00015534:    aa04        ..      ADD      r2,sp,#0x10
        0x00015536:    462b        +F      MOV      r3,r5
        0x00015538:    7288        .r      STRB     r0,[r1,#0xa]
        0x0001553a:    f04f30ff    O..0    MOV      r0,#0xffffffff
        0x0001553e:    9200        ..      STR      r2,[sp,#0]
        0x00015540:    e9cd5001    ...P    STRD     r5,r0,[sp,#4]
        0x00015544:    4638        8F      MOV      r0,r7
        0x00015546:    6822        "h      LDR      r2,[r4,#0]
        0x00015548:    f7fffc6d    ..m.    BL       _k_pipe_put_internal ; 0x14e26
        0x0001554c:    b005        ..      ADD      sp,sp,#0x14
        0x0001554e:    bdf0        ..      POP      {r4-r7,pc}
    pipe_xfer
        0x00015550:    b410        ..      PUSH     {r4}
        0x00015552:    4604        .F      MOV      r4,r0
        0x00015554:    4299        .B      CMP      r1,r3
        0x00015556:    bf34        4.      ITE      CC
        0x00015558:    4608        .F      MOVCC    r0,r1
        0x0001555a:    4618        .F      MOVCS    r0,r3
        0x0001555c:    1811        ..      ADDS     r1,r2,r0
        0x0001555e:    1a89        ..      SUBS     r1,r1,r2
        0x00015560:    2900        .)      CMP      r1,#0
        0x00015562:    bfdc        ..      ITT      LE
        0x00015564:    bc10        ..      POPLE    {r4}
        0x00015566:    4770        pG      BXLE     lr
        0x00015568:    f1a20c01    ....    SUB      r12,r2,#1
        0x0001556c:    1e62        b.      SUBS     r2,r4,#1
        0x0001556e:    f0110f01    ....    TST      r1,#1
        0x00015572:    d003        ..      BEQ      0x1557c ; pipe_xfer + 44
        0x00015574:    f81c3f01    ...?    LDRB     r3,[r12,#1]!
        0x00015578:    f8023f01    ...?    STRB     r3,[r2,#1]!
        0x0001557c:    104c        L.      ASRS     r4,r1,#1
        0x0001557e:    e003        ..      B        0x15588 ; pipe_xfer + 56
    $d
        0x00015580:    c001d458    X...    DCD    3221345368
        0x00015584:    c001a788    ....    DCD    3221333896
    $t
        0x00015588:    bf04        ..      ITT      EQ
        0x0001558a:    bc10        ..      POPEQ    {r4}
        0x0001558c:    4770        pG      BXEQ     lr
        0x0001558e:    bf00        ..      NOP      
        0x00015590:    f89c1001    ....    LDRB     r1,[r12,#1]
        0x00015594:    7051        Qp      STRB     r1,[r2,#1]
        0x00015596:    f81c1f02    ....    LDRB     r1,[r12,#2]!
        0x0001559a:    f8021f02    ....    STRB     r1,[r2,#2]!
        0x0001559e:    1e64        d.      SUBS     r4,r4,#1
        0x000155a0:    d1f6        ..      BNE      0x15590 ; pipe_xfer + 64
        0x000155a2:    bc10        ..      POP      {r4}
        0x000155a4:    4770        pG      BX       lr
    pipe_buffer_put
        0x000155a6:    e92d03f0    -...    PUSH     {r4-r9}
        0x000155aa:    2600        .&      MOVS     r6,#0
        0x000155ac:    4637        7F      MOV      r7,r6
        0x000155ae:    46b0        .F      MOV      r8,r6
        0x000155b0:    e9d03c01    ...<    LDRD     r3,r12,[r0,#4]
        0x000155b4:    eba3050c    ....    SUB      r5,r3,r12
        0x000155b8:    f8d0c010    ....    LDR      r12,[r0,#0x10]
        0x000155bc:    eba3030c    ....    SUB      r3,r3,r12
        0x000155c0:    429d        .B      CMP      r5,r3
        0x000155c2:    bf28        (.      IT       CS
        0x000155c4:    461d        .F      MOVCS    r5,r3
        0x000155c6:    6803        .h      LDR      r3,[r0,#0]
        0x000155c8:    eb03040c    ....    ADD      r4,r3,r12
        0x000155cc:    198b        ..      ADDS     r3,r1,r6
        0x000155ce:    eba20c06    ....    SUB      r12,r2,r6
        0x000155d2:    4565        eE      CMP      r5,r12
        0x000155d4:    bf28        (.      IT       CS
        0x000155d6:    4665        eF      MOVCS    r5,r12
        0x000155d8:    eb030c05    ....    ADD      r12,r3,r5
        0x000155dc:    ebac0903    ....    SUB      r9,r12,r3
        0x000155e0:    f1b90f00    ....    CMP      r9,#0
        0x000155e4:    dd16        ..      BLE      0x15614 ; pipe_buffer_put + 110
        0x000155e6:    f1a30c01    ....    SUB      r12,r3,#1
        0x000155ea:    1e63        c.      SUBS     r3,r4,#1
        0x000155ec:    f0190f01    ....    TST      r9,#1
        0x000155f0:    d003        ..      BEQ      0x155fa ; pipe_buffer_put + 84
        0x000155f2:    f81c4f01    ...O    LDRB     r4,[r12,#1]!
        0x000155f6:    f8034f01    ...O    STRB     r4,[r3,#1]!
        0x000155fa:    ea5f0469    _.i.    ASRS     r4,r9,#1
        0x000155fe:    d009        ..      BEQ      0x15614 ; pipe_buffer_put + 110
        0x00015600:    f89c9001    ....    LDRB     r9,[r12,#1]
        0x00015604:    f8839001    ....    STRB     r9,[r3,#1]
        0x00015608:    f81c9f02    ....    LDRB     r9,[r12,#2]!
        0x0001560c:    f8039f02    ....    STRB     r9,[r3,#2]!
        0x00015610:    1e64        d.      SUBS     r4,r4,#1
        0x00015612:    d1f5        ..      BNE      0x15600 ; pipe_buffer_put + 90
        0x00015614:    6883        .h      LDR      r3,[r0,#8]
        0x00015616:    442e        .D      ADD      r6,r6,r5
        0x00015618:    442b        +D      ADD      r3,r3,r5
        0x0001561a:    6083        .`      STR      r3,[r0,#8]
        0x0001561c:    6903        .i      LDR      r3,[r0,#0x10]
        0x0001561e:    442b        +D      ADD      r3,r3,r5
        0x00015620:    6103        .a      STR      r3,[r0,#0x10]
        0x00015622:    f8d0c004    ....    LDR      r12,[r0,#4]
        0x00015626:    4563        cE      CMP      r3,r12
        0x00015628:    bf08        ..      IT       EQ
        0x0001562a:    f8c08010    ....    STREQ    r8,[r0,#0x10]
        0x0001562e:    1c7f        ..      ADDS     r7,r7,#1
        0x00015630:    2f02        ./      CMP      r7,#2
        0x00015632:    dbbd        ..      BLT      0x155b0 ; pipe_buffer_put + 10
        0x00015634:    4630        0F      MOV      r0,r6
        0x00015636:    e8bd03f0    ....    POP      {r4-r9}
        0x0001563a:    4770        pG      BX       lr
    .text
    z_queue_node_peek
        0x0001563c:    b510        ..      PUSH     {r4,lr}
        0x0001563e:    2800        .(      CMP      r0,#0
        0x00015640:    bf1a        ..      ITTE     NE
        0x00015642:    7802        .x      LDRBNE   r2,[r0,#0]
        0x00015644:    f0120f03    ....    TSTNE    r2,#3
        0x00015648:    4604        .F      MOVEQ    r4,r0
        0x0001564a:    d004        ..      BEQ      0x15656 ; z_queue_node_peek + 26
        0x0001564c:    6844        Dh      LDR      r4,[r0,#4]
        0x0001564e:    2900        .)      CMP      r1,#0
        0x00015650:    bf18        ..      IT       NE
        0x00015652:    f7fffa28    ..(.    BLNE     k_free ; 0x14aa6
        0x00015656:    4620         F      MOV      r0,r4
        0x00015658:    bd10        ..      POP      {r4,pc}
    _impl_k_queue_init
        0x0001565a:    2100        .!      MOVS     r1,#0
        0x0001565c:    f8401b04    @...    STR      r1,[r0],#4
        0x00015660:    f8401b04    @...    STR      r1,[r0],#4
        0x00015664:    6000        .`      STR      r0,[r0,#0]
        0x00015666:    6040        @`      STR      r0,[r0,#4]
        0x00015668:    4770        pG      BX       lr
    _impl_k_queue_cancel_wait
        0x0001566a:    b570        p.      PUSH     {r4-r6,lr}
        0x0001566c:    2120         !      MOVS     r1,#0x20
        0x0001566e:    f3ef8511    ....    MRS      r5,BASEPRI
        0x00015672:    f3818811    ....    MSR      BASEPRI,r1
        0x00015676:    f3bf8f4f    ..O.    DSB      
        0x0001567a:    f3bf8f6f    ..o.    ISB      
        0x0001567e:    3008        .0      ADDS     r0,r0,#8
        0x00015680:    f000fad1    ....    BL       _unpend_first_thread ; 0x15c26
        0x00015684:    b168        h.      CBZ      r0,0x156a2 ; _impl_k_queue_cancel_wait + 56
        0x00015686:    7a41        Az      LDRB     r1,[r0,#9]
        0x00015688:    2600        .&      MOVS     r6,#0
        0x0001568a:    4604        .F      MOV      r4,r0
        0x0001568c:    f0110f1f    ....    TST      r1,#0x1f
        0x00015690:    bf02        ..      ITTT     EQ
        0x00015692:    6a41        Aj      LDREQ    r1,[r0,#0x24]
        0x00015694:    f1b13fff    ...?    CMPEQ    r1,#0xffffffff
        0x00015698:    f000f97d    ..}.    BLEQ     _add_thread_to_ready_q ; 0x15996
        0x0001569c:    2000        .       MOVS     r0,#0
        0x0001569e:    6126        &a      STR      r6,[r4,#0x10]
        0x000156a0:    6660        `f      STR      r0,[r4,#0x64]
        0x000156a2:    4628        (F      MOV      r0,r5
        0x000156a4:    e8bd4070    ..p@    POP      {r4-r6,lr}
        0x000156a8:    f000bb49    ..I.    B.W      _reschedule ; 0x15d3e
    queue_insert
        0x000156ac:    e92d41f0    -..A    PUSH     {r4-r8,lr}
        0x000156b0:    4606        .F      MOV      r6,r0
        0x000156b2:    4698        .F      MOV      r8,r3
        0x000156b4:    4614        .F      MOV      r4,r2
        0x000156b6:    460d        .F      MOV      r5,r1
        0x000156b8:    2020                MOVS     r0,#0x20
        0x000156ba:    f3ef8711    ....    MRS      r7,BASEPRI
        0x000156be:    f3808811    ....    MSR      BASEPRI,r0
        0x000156c2:    f3bf8f4f    ..O.    DSB      
        0x000156c6:    f3bf8f6f    ..o.    ISB      
        0x000156ca:    f1060008    ....    ADD      r0,r6,#8
        0x000156ce:    f000faaa    ....    BL       _unpend_first_thread ; 0x15c26
        0x000156d2:    b168        h.      CBZ      r0,0x156f0 ; queue_insert + 68
        0x000156d4:    7a41        Az      LDRB     r1,[r0,#9]
        0x000156d6:    4605        .F      MOV      r5,r0
        0x000156d8:    f0110f1f    ....    TST      r1,#0x1f
        0x000156dc:    bf02        ..      ITTT     EQ
        0x000156de:    6a41        Aj      LDREQ    r1,[r0,#0x24]
        0x000156e0:    f1b13fff    ...?    CMPEQ    r1,#0xffffffff
        0x000156e4:    f000f957    ..W.    BLEQ     _add_thread_to_ready_q ; 0x15996
        0x000156e8:    2000        .       MOVS     r0,#0
        0x000156ea:    612c        ,a      STR      r4,[r5,#0x10]
        0x000156ec:    6668        hf      STR      r0,[r5,#0x64]
        0x000156ee:    e023        #.      B        0x15738 ; queue_insert + 140
        0x000156f0:    f1b80f00    ....    CMP      r8,#0
        0x000156f4:    bf04        ..      ITT      EQ
        0x000156f6:    2000        .       MOVEQ    r0,#0
        0x000156f8:    6020         `      STREQ    r0,[r4,#0]
        0x000156fa:    d00c        ..      BEQ      0x15716 ; queue_insert + 106
        0x000156fc:    2008        .       MOVS     r0,#8
        0x000156fe:    f7fffa3e    ..>.    BL       z_thread_malloc ; 0x14b7e
        0x00015702:    2800        .(      CMP      r0,#0
        0x00015704:    bf04        ..      ITT      EQ
        0x00015706:    f06f000b    o...    MVNEQ    r0,#0xb
        0x0001570a:    e8bd81f0    ....    POPEQ    {r4-r8,pc}
        0x0001570e:    2101        .!      MOVS     r1,#1
        0x00015710:    e9c01400    ....    STRD     r1,r4,[r0,#0]
        0x00015714:    4604        .F      MOV      r4,r0
        0x00015716:    b1ad        ..      CBZ      r5,0x15744 ; queue_insert + 152
        0x00015718:    6828        (h      LDR      r0,[r5,#0]
        0x0001571a:    f0300103    0...    BICS     r1,r0,#3
        0x0001571e:    d01d        ..      BEQ      0x1575c ; queue_insert + 176
        0x00015720:    7821        !x      LDRB     r1,[r4,#0]
        0x00015722:    f0200003     ...    BIC      r0,r0,#3
        0x00015726:    f0010103    ....    AND      r1,r1,#3
        0x0001572a:    4308        .C      ORRS     r0,r0,r1
        0x0001572c:    6020         `      STR      r0,[r4,#0]
        0x0001572e:    7828        (x      LDRB     r0,[r5,#0]
        0x00015730:    f0000003    ....    AND      r0,r0,#3
        0x00015734:    4320         C      ORRS     r0,r0,r4
        0x00015736:    6028        (`      STR      r0,[r5,#0]
        0x00015738:    4638        8F      MOV      r0,r7
        0x0001573a:    f000fb00    ....    BL       _reschedule ; 0x15d3e
        0x0001573e:    2000        .       MOVS     r0,#0
        0x00015740:    e8bd81f0    ....    POP      {r4-r8,pc}
        0x00015744:    7821        !x      LDRB     r1,[r4,#0]
        0x00015746:    6830        0h      LDR      r0,[r6,#0]
        0x00015748:    f0010103    ....    AND      r1,r1,#3
        0x0001574c:    4308        .C      ORRS     r0,r0,r1
        0x0001574e:    6020         `      STR      r0,[r4,#0]
        0x00015750:    6034        4`      STR      r4,[r6,#0]
        0x00015752:    6870        ph      LDR      r0,[r6,#4]
        0x00015754:    2800        .(      CMP      r0,#0
        0x00015756:    bf08        ..      IT       EQ
        0x00015758:    6074        t`      STREQ    r4,[r6,#4]
        0x0001575a:    e7ed        ..      B        0x15738 ; queue_insert + 140
        0x0001575c:    7820         x      LDRB     r0,[r4,#0]
        0x0001575e:    f0000003    ....    AND      r0,r0,#3
        0x00015762:    6020         `      STR      r0,[r4,#0]
        0x00015764:    6870        ph      LDR      r0,[r6,#4]
        0x00015766:    2800        .(      CMP      r0,#0
        0x00015768:    bf04        ..      ITT      EQ
        0x0001576a:    6074        t`      STREQ    r4,[r6,#4]
        0x0001576c:    6034        4`      STREQ    r4,[r6,#0]
        0x0001576e:    d0e3        ..      BEQ      0x15738 ; queue_insert + 140
        0x00015770:    7801        .x      LDRB     r1,[r0,#0]
        0x00015772:    f0010103    ....    AND      r1,r1,#3
        0x00015776:    4321        !C      ORRS     r1,r1,r4
        0x00015778:    6001        .`      STR      r1,[r0,#0]
        0x0001577a:    6074        t`      STR      r4,[r6,#4]
        0x0001577c:    e7dc        ..      B        0x15738 ; queue_insert + 140
    k_queue_insert
        0x0001577e:    2300        .#      MOVS     r3,#0
        0x00015780:    e794        ..      B        queue_insert ; 0x156ac
    k_queue_append
        0x00015782:    460a        .F      MOV      r2,r1
        0x00015784:    2300        .#      MOVS     r3,#0
        0x00015786:    6841        Ah      LDR      r1,[r0,#4]
        0x00015788:    e790        ..      B        queue_insert ; 0x156ac
    k_queue_prepend
        0x0001578a:    2300        .#      MOVS     r3,#0
        0x0001578c:    460a        .F      MOV      r2,r1
        0x0001578e:    4619        .F      MOV      r1,r3
        0x00015790:    e78c        ..      B        queue_insert ; 0x156ac
    _impl_k_queue_alloc_append
        0x00015792:    460a        .F      MOV      r2,r1
        0x00015794:    2301        .#      MOVS     r3,#1
        0x00015796:    6841        Ah      LDR      r1,[r0,#4]
        0x00015798:    e788        ..      B        queue_insert ; 0x156ac
    _impl_k_queue_alloc_prepend
        0x0001579a:    2301        .#      MOVS     r3,#1
        0x0001579c:    460a        .F      MOV      r2,r1
        0x0001579e:    2100        .!      MOVS     r1,#0
        0x000157a0:    e784        ..      B        queue_insert ; 0x156ac
    k_queue_append_list
        0x000157a2:    e92d41f0    -..A    PUSH     {r4-r8,lr}
        0x000157a6:    4606        .F      MOV      r6,r0
        0x000157a8:    4617        .F      MOV      r7,r2
        0x000157aa:    460c        .F      MOV      r4,r1
        0x000157ac:    2020                MOVS     r0,#0x20
        0x000157ae:    f3ef8811    ....    MRS      r8,BASEPRI
        0x000157b2:    f3808811    ....    MSR      BASEPRI,r0
        0x000157b6:    f3bf8f4f    ..O.    DSB      
        0x000157ba:    f3bf8f6f    ..o.    ISB      
        0x000157be:    b1f4        ..      CBZ      r4,0x157fe ; k_queue_append_list + 92
        0x000157c0:    f1060008    ....    ADD      r0,r6,#8
        0x000157c4:    f000fa2f    ../.    BL       _unpend_first_thread ; 0x15c26
        0x000157c8:    b170        p.      CBZ      r0,0x157e8 ; k_queue_append_list + 70
        0x000157ca:    7a41        Az      LDRB     r1,[r0,#9]
        0x000157cc:    4605        .F      MOV      r5,r0
        0x000157ce:    f0110f1f    ....    TST      r1,#0x1f
        0x000157d2:    bf02        ..      ITTT     EQ
        0x000157d4:    6a41        Aj      LDREQ    r1,[r0,#0x24]
        0x000157d6:    f1b13fff    ...?    CMPEQ    r1,#0xffffffff
        0x000157da:    f000f8dc    ....    BLEQ     _add_thread_to_ready_q ; 0x15996
        0x000157de:    2100        .!      MOVS     r1,#0
        0x000157e0:    612c        ,a      STR      r4,[r5,#0x10]
        0x000157e2:    6669        if      STR      r1,[r5,#0x64]
        0x000157e4:    6824        $h      LDR      r4,[r4,#0]
        0x000157e6:    e7ea        ..      B        0x157be ; k_queue_append_list + 28
        0x000157e8:    6870        ph      LDR      r0,[r6,#4]
        0x000157ea:    2800        .(      CMP      r0,#0
        0x000157ec:    bf08        ..      IT       EQ
        0x000157ee:    6034        4`      STREQ    r4,[r6,#0]
        0x000157f0:    d004        ..      BEQ      0x157fc ; k_queue_append_list + 90
        0x000157f2:    7801        .x      LDRB     r1,[r0,#0]
        0x000157f4:    f0010103    ....    AND      r1,r1,#3
        0x000157f8:    4321        !C      ORRS     r1,r1,r4
        0x000157fa:    6001        .`      STR      r1,[r0,#0]
        0x000157fc:    6077        w`      STR      r7,[r6,#4]
        0x000157fe:    4640        @F      MOV      r0,r8
        0x00015800:    e8bd41f0    ...A    POP      {r4-r8,lr}
        0x00015804:    f000ba9b    ....    B.W      _reschedule ; 0x15d3e
    k_queue_merge_slist
        0x00015808:    e92d47f0    -..G    PUSH     {r4-r10,lr}
        0x0001580c:    4606        .F      MOV      r6,r0
        0x0001580e:    4688        .F      MOV      r8,r1
        0x00015810:    2020                MOVS     r0,#0x20
        0x00015812:    f3ef8911    ....    MRS      r9,BASEPRI
        0x00015816:    e9d84700    ...G    LDRD     r4,r7,[r8,#0]
        0x0001581a:    f3808811    ....    MSR      BASEPRI,r0
        0x0001581e:    f3bf8f4f    ..O.    DSB      
        0x00015822:    f3bf8f6f    ..o.    ISB      
        0x00015826:    f04f0a00    O...    MOV      r10,#0
        0x0001582a:    b1f4        ..      CBZ      r4,0x1586a ; k_queue_merge_slist + 98
        0x0001582c:    f1060008    ....    ADD      r0,r6,#8
        0x00015830:    f000f9f9    ....    BL       _unpend_first_thread ; 0x15c26
        0x00015834:    b170        p.      CBZ      r0,0x15854 ; k_queue_merge_slist + 76
        0x00015836:    7a41        Az      LDRB     r1,[r0,#9]
        0x00015838:    4605        .F      MOV      r5,r0
        0x0001583a:    f0110f1f    ....    TST      r1,#0x1f
        0x0001583e:    bf02        ..      ITTT     EQ
        0x00015840:    6a41        Aj      LDREQ    r1,[r0,#0x24]
        0x00015842:    f1b13fff    ...?    CMPEQ    r1,#0xffffffff
        0x00015846:    f000f8a6    ....    BLEQ     _add_thread_to_ready_q ; 0x15996
        0x0001584a:    2000        .       MOVS     r0,#0
        0x0001584c:    612c        ,a      STR      r4,[r5,#0x10]
        0x0001584e:    6668        hf      STR      r0,[r5,#0x64]
        0x00015850:    6824        $h      LDR      r4,[r4,#0]
        0x00015852:    e7ea        ..      B        0x1582a ; k_queue_merge_slist + 34
        0x00015854:    6870        ph      LDR      r0,[r6,#4]
        0x00015856:    2800        .(      CMP      r0,#0
        0x00015858:    bf08        ..      IT       EQ
        0x0001585a:    6034        4`      STREQ    r4,[r6,#0]
        0x0001585c:    d004        ..      BEQ      0x15868 ; k_queue_merge_slist + 96
        0x0001585e:    7801        .x      LDRB     r1,[r0,#0]
        0x00015860:    f0010103    ....    AND      r1,r1,#3
        0x00015864:    4321        !C      ORRS     r1,r1,r4
        0x00015866:    6001        .`      STR      r1,[r0,#0]
        0x00015868:    6077        w`      STR      r7,[r6,#4]
        0x0001586a:    4648        HF      MOV      r0,r9
        0x0001586c:    f000fa67    ..g.    BL       _reschedule ; 0x15d3e
        0x00015870:    f8c8a000    ....    STR      r10,[r8,#0]
        0x00015874:    f8c8a004    ....    STR      r10,[r8,#4]
        0x00015878:    e8bd87f0    ....    POP      {r4-r10,pc}
    _impl_k_queue_get
        0x0001587c:    b570        p.      PUSH     {r4-r6,lr}
        0x0001587e:    4603        .F      MOV      r3,r0
        0x00015880:    2020                MOVS     r0,#0x20
        0x00015882:    f3ef8411    ....    MRS      r4,BASEPRI
        0x00015886:    f3808811    ....    MSR      BASEPRI,r0
        0x0001588a:    f3bf8f4f    ..O.    DSB      
        0x0001588e:    f3bf8f6f    ..o.    ISB      
        0x00015892:    6818        .h      LDR      r0,[r3,#0]
        0x00015894:    b1b8        ..      CBZ      r0,0x158c6 ; _impl_k_queue_get + 74
        0x00015896:    6801        .h      LDR      r1,[r0,#0]
        0x00015898:    f0210103    !...    BIC      r1,r1,#3
        0x0001589c:    6019        .`      STR      r1,[r3,#0]
        0x0001589e:    685a        Zh      LDR      r2,[r3,#4]
        0x000158a0:    4282        .B      CMP      r2,r0
        0x000158a2:    bf08        ..      IT       EQ
        0x000158a4:    6059        Y`      STREQ    r1,[r3,#4]
        0x000158a6:    7801        .x      LDRB     r1,[r0,#0]
        0x000158a8:    f0110f03    ....    TST      r1,#3
        0x000158ac:    bf16        ..      ITET     NE
        0x000158ae:    6845        Eh      LDRNE    r5,[r0,#4]
        0x000158b0:    4605        .F      MOVEQ    r5,r0
        0x000158b2:    f7fff8f8    ....    BLNE     k_free ; 0x14aa6
        0x000158b6:    4628        (F      MOV      r0,r5
        0x000158b8:    f3848811    ....    MSR      BASEPRI,r4
        0x000158bc:    f3bf8f4f    ..O.    DSB      
        0x000158c0:    f3bf8f6f    ..o.    ISB      
        0x000158c4:    bd70        p.      POP      {r4-r6,pc}
        0x000158c6:    b169        i.      CBZ      r1,0x158e4 ; _impl_k_queue_get + 104
        0x000158c8:    460a        .F      MOV      r2,r1
        0x000158ca:    f1030108    ....    ADD      r1,r3,#8
        0x000158ce:    4620         F      MOV      r0,r4
        0x000158d0:    f000f99b    ....    BL       _pend_current_thread ; 0x15c0a
        0x000158d4:    2800        .(      CMP      r0,#0
        0x000158d6:    bf1c        ..      ITT      NE
        0x000158d8:    2000        .       MOVNE    r0,#0
        0x000158da:    bd70        p.      POPNE    {r4-r6,pc}
        0x000158dc:    4805        .H      LDR      r0,[pc,#20] ; [0x158f4] = 0xc001d458
        0x000158de:    6880        .h      LDR      r0,[r0,#8]
        0x000158e0:    6900        .i      LDR      r0,[r0,#0x10]
        0x000158e2:    bd70        p.      POP      {r4-r6,pc}
        0x000158e4:    f3848811    ....    MSR      BASEPRI,r4
        0x000158e8:    f3bf8f4f    ..O.    DSB      
        0x000158ec:    f3bf8f6f    ..o.    ISB      
        0x000158f0:    2000        .       MOVS     r0,#0
        0x000158f2:    bd70        p.      POP      {r4-r6,pc}
    $d
        0x000158f4:    c001d458    X...    DCD    3221345368
    $t
    .text
    _priq_mq_best
        0x000158f8:    f8d01100    ....    LDR      r1,[r0,#0x100]
        0x000158fc:    b149        I.      CBZ      r1,0x15912 ; _priq_mq_best + 26
        0x000158fe:    fa91f1a1    ....    RBIT     r1,r1
        0x00015902:    fab1f181    ....    CLZ      r1,r1
        0x00015906:    eb0001c1    ....    ADD      r1,r0,r1,LSL #3
        0x0001590a:    6808        .h      LDR      r0,[r1,#0]
        0x0001590c:    4288        .B      CMP      r0,r1
        0x0001590e:    bf18        ..      IT       NE
        0x00015910:    4770        pG      BXNE     lr
        0x00015912:    2000        .       MOVS     r0,#0
        0x00015914:    4770        pG      BX       lr
    update_cache
        0x00015916:    4afe        .J      LDR      r2,[pc,#1016] ; [0x15d10] = 0xc001d458
        0x00015918:    f1020120    .. .    ADD      r1,r2,#0x20
        0x0001591c:    f8d23120    .. 1    LDR      r3,[r2,#0x120]
        0x00015920:    b153        S.      CBZ      r3,0x15938 ; update_cache + 34
        0x00015922:    fa93f3a3    ....    RBIT     r3,r3
        0x00015926:    fab3f383    ....    CLZ      r3,r3
        0x0001592a:    eb0103c3    ....    ADD      r3,r1,r3,LSL #3
        0x0001592e:    6819        .h      LDR      r1,[r3,#0]
        0x00015930:    4299        .B      CMP      r1,r3
        0x00015932:    bf18        ..      IT       NE
        0x00015934:    2900        .)      CMPNE    r1,#0
        0x00015936:    d100        ..      BNE      0x1593a ; update_cache + 36
        0x00015938:    68d1        .h      LDR      r1,[r2,#0xc]
        0x0001593a:    b990        ..      CBNZ     r0,0x15962 ; update_cache + 76
        0x0001593c:    6890        .h      LDR      r0,[r2,#8]
        0x0001593e:    b180        ..      CBZ      r0,0x15962 ; update_cache + 76
        0x00015940:    7a43        Cz      LDRB     r3,[r0,#9]
        0x00015942:    f0130f1f    ....    TST      r3,#0x1f
        0x00015946:    d10c        ..      BNE      0x15962 ; update_cache + 76
        0x00015948:    6a43        Cj      LDR      r3,[r0,#0x24]
        0x0001594a:    f1b33fff    ...?    CMP      r3,#0xffffffff
        0x0001594e:    d108        ..      BNE      0x15962 ; update_cache + 76
        0x00015950:    8943        C.      LDRH     r3,[r0,#0xa]
        0x00015952:    2b7f        .+      CMP      r3,#0x7f
        0x00015954:    d905        ..      BLS      0x15962 ; update_cache + 76
        0x00015956:    4bef        .K      LDR      r3,[pc,#956] ; [0x15d14] = 0x19b84
        0x00015958:    681b        .h      LDR      r3,[r3,#0]
        0x0001595a:    4298        .B      CMP      r0,r3
        0x0001595c:    bf1c        ..      ITT      NE
        0x0001595e:    61d0        .a      STRNE    r0,[r2,#0x1c]
        0x00015960:    4770        pG      BXNE     lr
        0x00015962:    61d1        .a      STR      r1,[r2,#0x1c]
        0x00015964:    4770        pG      BX       lr
    _priq_mq_add
        0x00015966:    f991200a    ...     LDRSB    r2,[r1,#0xa]
        0x0001596a:    f1020310    ....    ADD      r3,r2,#0x10
        0x0001596e:    eb0002c3    ....    ADD      r2,r0,r3,LSL #3
        0x00015972:    600a        .`      STR      r2,[r1,#0]
        0x00015974:    f8d2c004    ....    LDR      r12,[r2,#4]
        0x00015978:    f8c1c004    ....    STR      r12,[r1,#4]
        0x0001597c:    f8d2c004    ....    LDR      r12,[r2,#4]
        0x00015980:    f8cc1000    ....    STR      r1,[r12,#0]
        0x00015984:    6051        Q`      STR      r1,[r2,#4]
        0x00015986:    2201        ."      MOVS     r2,#1
        0x00015988:    f8d01100    ....    LDR      r1,[r0,#0x100]
        0x0001598c:    409a        .@      LSLS     r2,r2,r3
        0x0001598e:    4311        .C      ORRS     r1,r1,r2
        0x00015990:    f8c01100    ....    STR      r1,[r0,#0x100]
        0x00015994:    4770        pG      BX       lr
    _add_thread_to_ready_q
        0x00015996:    b510        ..      PUSH     {r4,lr}
        0x00015998:    2120         !      MOVS     r1,#0x20
        0x0001599a:    f3ef8411    ....    MRS      r4,BASEPRI
        0x0001599e:    f3818811    ....    MSR      BASEPRI,r1
        0x000159a2:    f3bf8f4f    ..O.    DSB      
        0x000159a6:    f3bf8f6f    ..o.    ISB      
        0x000159aa:    f990100a    ....    LDRSB    r1,[r0,#0xa]
        0x000159ae:    4ada        .J      LDR      r2,[pc,#872] ; [0x15d18] = 0xc001d478
        0x000159b0:    f1010310    ....    ADD      r3,r1,#0x10
        0x000159b4:    eb0201c3    ....    ADD      r1,r2,r3,LSL #3
        0x000159b8:    6001        .`      STR      r1,[r0,#0]
        0x000159ba:    f8d1c004    ....    LDR      r12,[r1,#4]
        0x000159be:    f8c0c004    ....    STR      r12,[r0,#4]
        0x000159c2:    f8d1c004    ....    LDR      r12,[r1,#4]
        0x000159c6:    f8cc0000    ....    STR      r0,[r12,#0]
        0x000159ca:    6048        H`      STR      r0,[r1,#4]
        0x000159cc:    2101        .!      MOVS     r1,#1
        0x000159ce:    f8d2c100    ....    LDR      r12,[r2,#0x100]
        0x000159d2:    4099        .@      LSLS     r1,r1,r3
        0x000159d4:    ea4c0101    L...    ORR      r1,r12,r1
        0x000159d8:    f8c21100    ....    STR      r1,[r2,#0x100]
        0x000159dc:    7a41        Az      LDRB     r1,[r0,#9]
        0x000159de:    f0410140    A.@.    ORR      r1,r1,#0x40
        0x000159e2:    7241        Ar      STRB     r1,[r0,#9]
        0x000159e4:    2000        .       MOVS     r0,#0
        0x000159e6:    f7ffff96    ....    BL       update_cache ; 0x15916
        0x000159ea:    f3848811    ....    MSR      BASEPRI,r4
        0x000159ee:    f3bf8f4f    ..O.    DSB      
        0x000159f2:    f3bf8f6f    ..o.    ISB      
        0x000159f6:    bd10        ..      POP      {r4,pc}
    _priq_dumb_remove
        0x000159f8:    e9d10200    ....    LDRD     r0,r2,[r1,#0]
        0x000159fc:    6010        .`      STR      r0,[r2,#0]
        0x000159fe:    6848        Hh      LDR      r0,[r1,#4]
        0x00015a00:    6809        .h      LDR      r1,[r1,#0]
        0x00015a02:    6048        H`      STR      r0,[r1,#4]
        0x00015a04:    4770        pG      BX       lr
    _unpend_thread_no_timeout
        0x00015a06:    2220         "      MOVS     r2,#0x20
        0x00015a08:    f3ef8111    ....    MRS      r1,BASEPRI
        0x00015a0c:    f3828811    ....    MSR      BASEPRI,r2
        0x00015a10:    f3bf8f4f    ..O.    DSB      
        0x00015a14:    f3bf8f6f    ..o.    ISB      
        0x00015a18:    e9d02300    ...#    LDRD     r2,r3,[r0,#0]
        0x00015a1c:    601a        .`      STR      r2,[r3,#0]
        0x00015a1e:    e9d02300    ...#    LDRD     r2,r3,[r0,#0]
        0x00015a22:    6053        S`      STR      r3,[r2,#4]
        0x00015a24:    7a42        Bz      LDRB     r2,[r0,#9]
        0x00015a26:    f0220202    "...    BIC      r2,r2,#2
        0x00015a2a:    7242        Br      STRB     r2,[r0,#9]
        0x00015a2c:    f3818811    ....    MSR      BASEPRI,r1
        0x00015a30:    f3bf8f4f    ..O.    DSB      
        0x00015a34:    f3bf8f6f    ..o.    ISB      
        0x00015a38:    4770        pG      BX       lr
    _priq_dumb_best
        0x00015a3a:    6801        .h      LDR      r1,[r0,#0]
        0x00015a3c:    4281        .B      CMP      r1,r0
        0x00015a3e:    bf0c        ..      ITE      EQ
        0x00015a40:    2000        .       MOVEQ    r0,#0
        0x00015a42:    4608        .F      MOVNE    r0,r1
        0x00015a44:    4770        pG      BX       lr
    _find_first_thread_to_unpend
        0x00015a46:    4602        .F      MOV      r2,r0
        0x00015a48:    2020                MOVS     r0,#0x20
        0x00015a4a:    f3ef8111    ....    MRS      r1,BASEPRI
        0x00015a4e:    f3808811    ....    MSR      BASEPRI,r0
        0x00015a52:    f3bf8f4f    ..O.    DSB      
        0x00015a56:    f3bf8f6f    ..o.    ISB      
        0x00015a5a:    6810        .h      LDR      r0,[r2,#0]
        0x00015a5c:    4290        .B      CMP      r0,r2
        0x00015a5e:    bf08        ..      IT       EQ
        0x00015a60:    2000        .       MOVEQ    r0,#0
        0x00015a62:    f3818811    ....    MSR      BASEPRI,r1
        0x00015a66:    f3bf8f4f    ..O.    DSB      
        0x00015a6a:    f3bf8f6f    ..o.    ISB      
        0x00015a6e:    4770        pG      BX       lr
    _update_time_slice_before_swap
        0x00015a70:    2000        .       MOVS     r0,#0
        0x00015a72:    49aa        .I      LDR      r1,[pc,#680] ; [0x15d1c] = 0xc0019fa8
        0x00015a74:    6008        .`      STR      r0,[r1,#0]
        0x00015a76:    4770        pG      BX       lr
    _is_t1_higher_prio_than_t2
        0x00015a78:    f990000a    ....    LDRSB    r0,[r0,#0xa]
        0x00015a7c:    f991100a    ....    LDRSB    r1,[r1,#0xa]
        0x00015a80:    4288        .B      CMP      r0,r1
        0x00015a82:    bfb4        ..      ITE      LT
        0x00015a84:    2001        .       MOVLT    r0,#1
        0x00015a86:    2000        .       MOVGE    r0,#0
        0x00015a88:    4770        pG      BX       lr
    _priq_mq_remove
        0x00015a8a:    e9d13c00    ...<    LDRD     r3,r12,[r1,#0]
        0x00015a8e:    f991200a    ...     LDRSB    r2,[r1,#0xa]
        0x00015a92:    f8cc3000    ...0    STR      r3,[r12,#0]
        0x00015a96:    684b        Kh      LDR      r3,[r1,#4]
        0x00015a98:    6809        .h      LDR      r1,[r1,#0]
        0x00015a9a:    3210        .2      ADDS     r2,r2,#0x10
        0x00015a9c:    604b        K`      STR      r3,[r1,#4]
        0x00015a9e:    f8501032    P.2.    LDR      r1,[r0,r2,LSL #3]
        0x00015aa2:    eb0003c2    ....    ADD      r3,r0,r2,LSL #3
        0x00015aa6:    4299        .B      CMP      r1,r3
        0x00015aa8:    bf18        ..      IT       NE
        0x00015aaa:    4770        pG      BXNE     lr
        0x00015aac:    2301        .#      MOVS     r3,#1
        0x00015aae:    f8d01100    ....    LDR      r1,[r0,#0x100]
        0x00015ab2:    fa03f202    ....    LSL      r2,r3,r2
        0x00015ab6:    4391        .C      BICS     r1,r1,r2
        0x00015ab8:    f8c01100    ....    STR      r1,[r0,#0x100]
        0x00015abc:    4770        pG      BX       lr
    _move_thread_to_end_of_prio_q
        0x00015abe:    b570        p.      PUSH     {r4-r6,lr}
        0x00015ac0:    2120         !      MOVS     r1,#0x20
        0x00015ac2:    f3ef8411    ....    MRS      r4,BASEPRI
        0x00015ac6:    f3818811    ....    MSR      BASEPRI,r1
        0x00015aca:    f3bf8f4f    ..O.    DSB      
        0x00015ace:    f3bf8f6f    ..o.    ISB      
        0x00015ad2:    f990200a    ...     LDRSB    r2,[r0,#0xa]
        0x00015ad6:    4990        .I      LDR      r1,[pc,#576] ; [0x15d18] = 0xc001d478
        0x00015ad8:    f1020310    ....    ADD      r3,r2,#0x10
        0x00015adc:    e9d02500    ...%    LDRD     r2,r5,[r0,#0]
        0x00015ae0:    eb0106c3    ....    ADD      r6,r1,r3,LSL #3
        0x00015ae4:    602a        *`      STR      r2,[r5,#0]
        0x00015ae6:    e9d02500    ...%    LDRD     r2,r5,[r0,#0]
        0x00015aea:    6055        U`      STR      r5,[r2,#4]
        0x00015aec:    f8515033    Q.3P    LDR      r5,[r1,r3,LSL #3]
        0x00015af0:    2201        ."      MOVS     r2,#1
        0x00015af2:    42b5        .B      CMP      r5,r6
        0x00015af4:    d107        ..      BNE      0x15b06 ; _move_thread_to_end_of_prio_q + 72
        0x00015af6:    f8d15100    ...Q    LDR      r5,[r1,#0x100]
        0x00015afa:    fa02f303    ....    LSL      r3,r2,r3
        0x00015afe:    ea250303    %...    BIC      r3,r5,r3
        0x00015b02:    f8c13100    ...1    STR      r3,[r1,#0x100]
        0x00015b06:    460b        .F      MOV      r3,r1
        0x00015b08:    f990100a    ....    LDRSB    r1,[r0,#0xa]
        0x00015b0c:    f1010c10    ....    ADD      r12,r1,#0x10
        0x00015b10:    eb0301cc    ....    ADD      r1,r3,r12,LSL #3
        0x00015b14:    6001        .`      STR      r1,[r0,#0]
        0x00015b16:    684d        Mh      LDR      r5,[r1,#4]
        0x00015b18:    6045        E`      STR      r5,[r0,#4]
        0x00015b1a:    684d        Mh      LDR      r5,[r1,#4]
        0x00015b1c:    fa02f20c    ....    LSL      r2,r2,r12
        0x00015b20:    6028        (`      STR      r0,[r5,#0]
        0x00015b22:    6048        H`      STR      r0,[r1,#4]
        0x00015b24:    f8d31100    ....    LDR      r1,[r3,#0x100]
        0x00015b28:    4311        .C      ORRS     r1,r1,r2
        0x00015b2a:    f8c31100    ....    STR      r1,[r3,#0x100]
        0x00015b2e:    7a41        Az      LDRB     r1,[r0,#9]
        0x00015b30:    f0410140    A.@.    ORR      r1,r1,#0x40
        0x00015b34:    7241        Ar      STRB     r1,[r0,#9]
        0x00015b36:    2000        .       MOVS     r0,#0
        0x00015b38:    f7fffeed    ....    BL       update_cache ; 0x15916
        0x00015b3c:    f3848811    ....    MSR      BASEPRI,r4
        0x00015b40:    f3bf8f4f    ..O.    DSB      
        0x00015b44:    f3bf8f6f    ..o.    ISB      
        0x00015b48:    bd70        p.      POP      {r4-r6,pc}
    _remove_thread_from_ready_q
        0x00015b4a:    b570        p.      PUSH     {r4-r6,lr}
        0x00015b4c:    2120         !      MOVS     r1,#0x20
        0x00015b4e:    f3ef8411    ....    MRS      r4,BASEPRI
        0x00015b52:    f3818811    ....    MSR      BASEPRI,r1
        0x00015b56:    f3bf8f4f    ..O.    DSB      
        0x00015b5a:    f3bf8f6f    ..o.    ISB      
        0x00015b5e:    7a41        Az      LDRB     r1,[r0,#9]
        0x00015b60:    f04f0c01    O...    MOV      r12,#1
        0x00015b64:    f0110f40    ..@.    TST      r1,#0x40
        0x00015b68:    d024        $.      BEQ      0x15bb4 ; _remove_thread_from_ready_q + 106
        0x00015b6a:    e9d05600    ...V    LDRD     r5,r6,[r0,#0]
        0x00015b6e:    f990200a    ...     LDRSB    r2,[r0,#0xa]
        0x00015b72:    6035        5`      STR      r5,[r6,#0]
        0x00015b74:    e9d05600    ...V    LDRD     r5,r6,[r0,#0]
        0x00015b78:    4b65        eK      LDR      r3,[pc,#404] ; [0x15d10] = 0xc001d458
        0x00015b7a:    3210        .2      ADDS     r2,r2,#0x10
        0x00015b7c:    f1030120    .. .    ADD      r1,r3,#0x20
        0x00015b80:    606e        n`      STR      r6,[r5,#4]
        0x00015b82:    f8515032    Q.2P    LDR      r5,[r1,r2,LSL #3]
        0x00015b86:    eb0106c2    ....    ADD      r6,r1,r2,LSL #3
        0x00015b8a:    42b5        .B      CMP      r5,r6
        0x00015b8c:    d107        ..      BNE      0x15b9e ; _remove_thread_from_ready_q + 84
        0x00015b8e:    f8d15100    ...Q    LDR      r5,[r1,#0x100]
        0x00015b92:    fa0cf202    ....    LSL      r2,r12,r2
        0x00015b96:    ea250202    %...    BIC      r2,r5,r2
        0x00015b9a:    f8c12100    ...!    STR      r2,[r1,#0x100]
        0x00015b9e:    7a41        Az      LDRB     r1,[r0,#9]
        0x00015ba0:    f0210140    !.@.    BIC      r1,r1,#0x40
        0x00015ba4:    7241        Ar      STRB     r1,[r0,#9]
        0x00015ba6:    6899        .h      LDR      r1,[r3,#8]
        0x00015ba8:    4281        .B      CMP      r1,r0
        0x00015baa:    bf0c        ..      ITE      EQ
        0x00015bac:    2001        .       MOVEQ    r0,#1
        0x00015bae:    2000        .       MOVNE    r0,#0
        0x00015bb0:    f7fffeb1    ....    BL       update_cache ; 0x15916
        0x00015bb4:    f3848811    ....    MSR      BASEPRI,r4
        0x00015bb8:    f3bf8f4f    ..O.    DSB      
        0x00015bbc:    f3bf8f6f    ..o.    ISB      
        0x00015bc0:    bd70        p.      POP      {r4-r6,pc}
    _priq_dumb_add
        0x00015bc2:    6802        .h      LDR      r2,[r0,#0]
        0x00015bc4:    4282        .B      CMP      r2,r0
        0x00015bc6:    bf1c        ..      ITT      NE
        0x00015bc8:    2a00        .*      CMPNE    r2,#0
        0x00015bca:    f991300a    ...0    LDRSBNE  r3,[r1,#0xa]
        0x00015bce:    d013        ..      BEQ      0x15bf8 ; _priq_dumb_add + 54
        0x00015bd0:    f992c00a    ....    LDRSB    r12,[r2,#0xa]
        0x00015bd4:    4563        cE      CMP      r3,r12
        0x00015bd6:    da07        ..      BGE      0x15be8 ; _priq_dumb_add + 38
        0x00015bd8:    b172        r.      CBZ      r2,0x15bf8 ; _priq_dumb_add + 54
        0x00015bda:    6850        Ph      LDR      r0,[r2,#4]
        0x00015bdc:    e9c12000    ...     STRD     r2,r0,[r1,#0]
        0x00015be0:    6850        Ph      LDR      r0,[r2,#4]
        0x00015be2:    6001        .`      STR      r1,[r0,#0]
        0x00015be4:    6051        Q`      STR      r1,[r2,#4]
        0x00015be6:    4770        pG      BX       lr
        0x00015be8:    2a00        .*      CMP      r2,#0
        0x00015bea:    bf1f        ..      ITTTT    NE
        0x00015bec:    f8d0c004    ....    LDRNE    r12,[r0,#4]
        0x00015bf0:    4594        .E      CMPNE    r12,r2
        0x00015bf2:    6812        .h      LDRNE    r2,[r2,#0]
        0x00015bf4:    2a00        .*      CMPNE    r2,#0
        0x00015bf6:    d1eb        ..      BNE      0x15bd0 ; _priq_dumb_add + 14
        0x00015bf8:    6008        .`      STR      r0,[r1,#0]
        0x00015bfa:    6842        Bh      LDR      r2,[r0,#4]
        0x00015bfc:    604a        J`      STR      r2,[r1,#4]
        0x00015bfe:    6842        Bh      LDR      r2,[r0,#4]
        0x00015c00:    6011        .`      STR      r1,[r2,#0]
        0x00015c02:    6041        A`      STR      r1,[r0,#4]
        0x00015c04:    4770        pG      BX       lr
    _pend_thread
        0x00015c06:    f000bcfb    ....    B.W      pend ; 0x16600
    _pend_current_thread
        0x00015c0a:    b510        ..      PUSH     {r4,lr}
        0x00015c0c:    4604        .F      MOV      r4,r0
        0x00015c0e:    4840        @H      LDR      r0,[pc,#256] ; [0x15d10] = 0xc001d458
        0x00015c10:    6880        .h      LDR      r0,[r0,#8]
        0x00015c12:    f000fcf5    ....    BL       pend ; 0x16600
        0x00015c16:    4a41        AJ      LDR      r2,[pc,#260] ; [0x15d1c] = 0xc0019fa8
        0x00015c18:    2100        .!      MOVS     r1,#0
        0x00015c1a:    4620         F      MOV      r0,r4
        0x00015c1c:    6011        .`      STR      r1,[r2,#0]
        0x00015c1e:    e8bd4010    ...@    POP      {r4,lr}
        0x00015c22:    f002bf53    ..S.    B.W      __swap ; 0x18acc
    _unpend_first_thread
        0x00015c26:    4602        .F      MOV      r2,r0
        0x00015c28:    2020                MOVS     r0,#0x20
        0x00015c2a:    f3ef8111    ....    MRS      r1,BASEPRI
        0x00015c2e:    f3808811    ....    MSR      BASEPRI,r0
        0x00015c32:    f3bf8f4f    ..O.    DSB      
        0x00015c36:    f3bf8f6f    ..o.    ISB      
        0x00015c3a:    6810        .h      LDR      r0,[r2,#0]
        0x00015c3c:    4290        .B      CMP      r0,r2
        0x00015c3e:    bf08        ..      IT       EQ
        0x00015c40:    2000        .       MOVEQ    r0,#0
        0x00015c42:    f3818811    ....    MSR      BASEPRI,r1
        0x00015c46:    f3bf8f4f    ..O.    DSB      
        0x00015c4a:    f3bf8f6f    ..o.    ISB      
        0x00015c4e:    2800        .(      CMP      r0,#0
        0x00015c50:    bf08        ..      IT       EQ
        0x00015c52:    4770        pG      BXEQ     lr
        0x00015c54:    f04f0220    O. .    MOV      r2,#0x20
        0x00015c58:    f3ef8111    ....    MRS      r1,BASEPRI
        0x00015c5c:    f3828811    ....    MSR      BASEPRI,r2
        0x00015c60:    f3bf8f4f    ..O.    DSB      
        0x00015c64:    f3bf8f6f    ..o.    ISB      
        0x00015c68:    e9d02300    ...#    LDRD     r2,r3,[r0,#0]
        0x00015c6c:    601a        .`      STR      r2,[r3,#0]
        0x00015c6e:    e9d02300    ...#    LDRD     r2,r3,[r0,#0]
        0x00015c72:    6053        S`      STR      r3,[r2,#4]
        0x00015c74:    7a43        Cz      LDRB     r3,[r0,#9]
        0x00015c76:    f0230302    #...    BIC      r3,r3,#2
        0x00015c7a:    7243        Cr      STRB     r3,[r0,#9]
        0x00015c7c:    f3818811    ....    MSR      BASEPRI,r1
        0x00015c80:    f3bf8f4f    ..O.    DSB      
        0x00015c84:    f3bf8f6f    ..o.    ISB      
        0x00015c88:    bf08        ..      IT       EQ
        0x00015c8a:    4770        pG      BXEQ     lr
        0x00015c8c:    f1000114    ....    ADD      r1,r0,#0x14
        0x00015c90:    6a43        Cj      LDR      r3,[r0,#0x24]
        0x00015c92:    f1b33fff    ...?    CMP      r3,#0xffffffff
        0x00015c96:    bf08        ..      IT       EQ
        0x00015c98:    4770        pG      BXEQ     lr
        0x00015c9a:    4a1d        .J      LDR      r2,[pc,#116] ; [0x15d10] = 0xc001d458
        0x00015c9c:    6992        .i      LDR      r2,[r2,#0x18]
        0x00015c9e:    428a        .B      CMP      r2,r1
        0x00015ca0:    d006        ..      BEQ      0x15cb0 ; _unpend_first_thread + 138
        0x00015ca2:    1c0a        ..      ADDS     r2,r1,#0
        0x00015ca4:    bf18        ..      IT       NE
        0x00015ca6:    680a        .h      LDRNE    r2,[r1,#0]
        0x00015ca8:    f8d2c010    ....    LDR      r12,[r2,#0x10]
        0x00015cac:    4463        cD      ADD      r3,r3,r12
        0x00015cae:    6113        .a      STR      r3,[r2,#0x10]
        0x00015cb0:    e9d12300    ...#    LDRD     r2,r3,[r1,#0]
        0x00015cb4:    601a        .`      STR      r2,[r3,#0]
        0x00015cb6:    e9d12300    ...#    LDRD     r2,r3,[r1,#0]
        0x00015cba:    6053        S`      STR      r3,[r2,#4]
        0x00015cbc:    f04f32ff    O..2    MOV      r2,#0xffffffff
        0x00015cc0:    610a        .a      STR      r2,[r1,#0x10]
        0x00015cc2:    4770        pG      BX       lr
    _unpend_thread
        0x00015cc4:    2220         "      MOVS     r2,#0x20
        0x00015cc6:    f3ef8111    ....    MRS      r1,BASEPRI
        0x00015cca:    f3828811    ....    MSR      BASEPRI,r2
        0x00015cce:    f3bf8f4f    ..O.    DSB      
        0x00015cd2:    f3bf8f6f    ..o.    ISB      
        0x00015cd6:    e9d02300    ...#    LDRD     r2,r3,[r0,#0]
        0x00015cda:    601a        .`      STR      r2,[r3,#0]
        0x00015cdc:    e9d02300    ...#    LDRD     r2,r3,[r0,#0]
        0x00015ce0:    6053        S`      STR      r3,[r2,#4]
        0x00015ce2:    7a42        Bz      LDRB     r2,[r0,#9]
        0x00015ce4:    f0220202    "...    BIC      r2,r2,#2
        0x00015ce8:    7242        Br      STRB     r2,[r0,#9]
        0x00015cea:    f3818811    ....    MSR      BASEPRI,r1
        0x00015cee:    f3bf8f4f    ..O.    DSB      
        0x00015cf2:    f3bf8f6f    ..o.    ISB      
        0x00015cf6:    6a42        Bj      LDR      r2,[r0,#0x24]
        0x00015cf8:    3014        .0      ADDS     r0,r0,#0x14
        0x00015cfa:    f1b23fff    ...?    CMP      r2,#0xffffffff
        0x00015cfe:    bf08        ..      IT       EQ
        0x00015d00:    4770        pG      BXEQ     lr
        0x00015d02:    4903        .I      LDR      r1,[pc,#12] ; [0x15d10] = 0xc001d458
        0x00015d04:    6989        .i      LDR      r1,[r1,#0x18]
        0x00015d06:    4281        .B      CMP      r1,r0
        0x00015d08:    d00f        ..      BEQ      0x15d2a ; _unpend_thread + 102
        0x00015d0a:    1c01        ..      ADDS     r1,r0,#0
        0x00015d0c:    e008        ..      B        0x15d20 ; _unpend_thread + 92
    $d
        0x00015d0e:    0000        ..      DCW    0
        0x00015d10:    c001d458    X...    DCD    3221345368
        0x00015d14:    00019b84    ....    DCD    105348
        0x00015d18:    c001d478    x...    DCD    3221345400
        0x00015d1c:    c0019fa8    ....    DCD    3221331880
    $t
        0x00015d20:    bf18        ..      IT       NE
        0x00015d22:    6801        .h      LDRNE    r1,[r0,#0]
        0x00015d24:    690b        .i      LDR      r3,[r1,#0x10]
        0x00015d26:    441a        .D      ADD      r2,r2,r3
        0x00015d28:    610a        .a      STR      r2,[r1,#0x10]
        0x00015d2a:    e9d01200    ....    LDRD     r1,r2,[r0,#0]
        0x00015d2e:    6011        .`      STR      r1,[r2,#0]
        0x00015d30:    e9d01200    ....    LDRD     r1,r2,[r0,#0]
        0x00015d34:    604a        J`      STR      r2,[r1,#4]
        0x00015d36:    f04f31ff    O..1    MOV      r1,#0xffffffff
        0x00015d3a:    6101        .a      STR      r1,[r0,#0x10]
        0x00015d3c:    4770        pG      BX       lr
    _reschedule
        0x00015d3e:    f3ef8105    ....    MRS      r1,IPSR
        0x00015d42:    290d        .)      CMP      r1,#0xd
        0x00015d44:    d80f        ..      BHI      0x15d66 ; _reschedule + 40
        0x00015d46:    2200        ."      MOVS     r2,#0
        0x00015d48:    b121        !.      CBZ      r1,0x15d54 ; _reschedule + 22
        0x00015d4a:    49fd        .I      LDR      r1,[pc,#1012] ; [0x16140] = 0xe000ed04
        0x00015d4c:    6809        .h      LDR      r1,[r1,#0]
        0x00015d4e:    f4116f00    ...o    TST      r1,#0x800
        0x00015d52:    d008        ..      BEQ      0x15d66 ; _reschedule + 40
        0x00015d54:    49fb        .I      LDR      r1,[pc,#1004] ; [0x16144] = 0xc001d458
        0x00015d56:    69cb        .i      LDR      r3,[r1,#0x1c]
        0x00015d58:    6889        .h      LDR      r1,[r1,#8]
        0x00015d5a:    428b        .B      CMP      r3,r1
        0x00015d5c:    d003        ..      BEQ      0x15d66 ; _reschedule + 40
        0x00015d5e:    49fa        .I      LDR      r1,[pc,#1000] ; [0x16148] = 0xc0019fa8
        0x00015d60:    600a        .`      STR      r2,[r1,#0]
        0x00015d62:    f002beb3    ....    B.W      __swap ; 0x18acc
        0x00015d66:    f3808811    ....    MSR      BASEPRI,r0
        0x00015d6a:    f3bf8f4f    ..O.    DSB      
        0x00015d6e:    f3bf8f6f    ..o.    ISB      
        0x00015d72:    2000        .       MOVS     r0,#0
        0x00015d74:    4770        pG      BX       lr
    _thread_priority_set
        0x00015d76:    e92d41f0    -..A    PUSH     {r4-r8,lr}
        0x00015d7a:    2500        .%      MOVS     r5,#0
        0x00015d7c:    2220         "      MOVS     r2,#0x20
        0x00015d7e:    f3ef8611    ....    MRS      r6,BASEPRI
        0x00015d82:    f3828811    ....    MSR      BASEPRI,r2
        0x00015d86:    f3bf8f4f    ..O.    DSB      
        0x00015d8a:    f3bf8f6f    ..o.    ISB      
        0x00015d8e:    7a42        Bz      LDRB     r2,[r0,#9]
        0x00015d90:    4fec        .O      LDR      r7,[pc,#944] ; [0x16144] = 0xc001d458
        0x00015d92:    f0120f1f    ....    TST      r2,#0x1f
        0x00015d96:    f04f0401    O...    MOV      r4,#1
        0x00015d9a:    b24b        K.      SXTB     r3,r1
        0x00015d9c:    bf07        ..      ITTEE    EQ
        0x00015d9e:    6a41        Aj      LDREQ    r1,[r0,#0x24]
        0x00015da0:    f1b13fff    ...?    CMPEQ    r1,#0xffffffff
        0x00015da4:    462c        ,F      MOVNE    r4,r5
        0x00015da6:    7283        .r      STRBNE   r3,[r0,#0xa]
        0x00015da8:    d133        3.      BNE      0x15e12 ; _thread_priority_set + 156
        0x00015daa:    e9d08c00    ....    LDRD     r8,r12,[r0,#0]
        0x00015dae:    f990200a    ...     LDRSB    r2,[r0,#0xa]
        0x00015db2:    f8cc8000    ....    STR      r8,[r12,#0]
        0x00015db6:    e9d08c00    ....    LDRD     r8,r12,[r0,#0]
        0x00015dba:    f1070120    .. .    ADD      r1,r7,#0x20
        0x00015dbe:    3210        .2      ADDS     r2,r2,#0x10
        0x00015dc0:    f8c8c004    ....    STR      r12,[r8,#4]
        0x00015dc4:    f851c032    Q.2.    LDR      r12,[r1,r2,LSL #3]
        0x00015dc8:    eb0108c2    ....    ADD      r8,r1,r2,LSL #3
        0x00015dcc:    45c4        .E      CMP      r12,r8
        0x00015dce:    d107        ..      BNE      0x15de0 ; _thread_priority_set + 106
        0x00015dd0:    f8d18100    ....    LDR      r8,[r1,#0x100]
        0x00015dd4:    fa04f202    ....    LSL      r2,r4,r2
        0x00015dd8:    ea280202    (...    BIC      r2,r8,r2
        0x00015ddc:    f8c12100    ...!    STR      r2,[r1,#0x100]
        0x00015de0:    7283        .r      STRB     r3,[r0,#0xa]
        0x00015de2:    460a        .F      MOV      r2,r1
        0x00015de4:    3310        .3      ADDS     r3,r3,#0x10
        0x00015de6:    eb0101c3    ....    ADD      r1,r1,r3,LSL #3
        0x00015dea:    6001        .`      STR      r1,[r0,#0]
        0x00015dec:    f8d1c004    ....    LDR      r12,[r1,#4]
        0x00015df0:    f8c0c004    ....    STR      r12,[r0,#4]
        0x00015df4:    f8d1c004    ....    LDR      r12,[r1,#4]
        0x00015df8:    f8cc0000    ....    STR      r0,[r12,#0]
        0x00015dfc:    6048        H`      STR      r0,[r1,#4]
        0x00015dfe:    f8d21100    ....    LDR      r1,[r2,#0x100]
        0x00015e02:    fa04f003    ....    LSL      r0,r4,r3
        0x00015e06:    4308        .C      ORRS     r0,r0,r1
        0x00015e08:    f8c20100    ....    STR      r0,[r2,#0x100]
        0x00015e0c:    2001        .       MOVS     r0,#1
        0x00015e0e:    f7fffd82    ....    BL       update_cache ; 0x15916
        0x00015e12:    f3868811    ....    MSR      BASEPRI,r6
        0x00015e16:    f3bf8f4f    ..O.    DSB      
        0x00015e1a:    f3bf8f6f    ..o.    ISB      
        0x00015e1e:    2c00        .,      CMP      r4,#0
        0x00015e20:    bf08        ..      IT       EQ
        0x00015e22:    e8bd81f0    ....    POPEQ    {r4-r8,pc}
        0x00015e26:    f04f0120    O. .    MOV      r1,#0x20
        0x00015e2a:    f3ef8011    ....    MRS      r0,BASEPRI
        0x00015e2e:    f3818811    ....    MSR      BASEPRI,r1
        0x00015e32:    f3bf8f4f    ..O.    DSB      
        0x00015e36:    f3bf8f6f    ..o.    ISB      
        0x00015e3a:    f3ef8105    ....    MRS      r1,IPSR
        0x00015e3e:    290d        .)      CMP      r1,#0xd
        0x00015e40:    d80f        ..      BHI      0x15e62 ; _thread_priority_set + 236
        0x00015e42:    b121        !.      CBZ      r1,0x15e4e ; _thread_priority_set + 216
        0x00015e44:    49be        .I      LDR      r1,[pc,#760] ; [0x16140] = 0xe000ed04
        0x00015e46:    6809        .h      LDR      r1,[r1,#0]
        0x00015e48:    f4116f00    ...o    TST      r1,#0x800
        0x00015e4c:    d009        ..      BEQ      0x15e62 ; _thread_priority_set + 236
        0x00015e4e:    68ba        .h      LDR      r2,[r7,#8]
        0x00015e50:    69f9        .i      LDR      r1,[r7,#0x1c]
        0x00015e52:    4291        .B      CMP      r1,r2
        0x00015e54:    d005        ..      BEQ      0x15e62 ; _thread_priority_set + 236
        0x00015e56:    49bc        .I      LDR      r1,[pc,#752] ; [0x16148] = 0xc0019fa8
        0x00015e58:    600d        .`      STR      r5,[r1,#0]
        0x00015e5a:    e8bd41f0    ...A    POP      {r4-r8,lr}
        0x00015e5e:    f002be35    ..5.    B.W      __swap ; 0x18acc
        0x00015e62:    f3808811    ....    MSR      BASEPRI,r0
        0x00015e66:    f3bf8f4f    ..O.    DSB      
        0x00015e6a:    f3bf8f6f    ..o.    ISB      
        0x00015e6e:    e8bd81f0    ....    POP      {r4-r8,pc}
    k_sched_lock
        0x00015e72:    2120         !      MOVS     r1,#0x20
        0x00015e74:    f3ef8011    ....    MRS      r0,BASEPRI
        0x00015e78:    f3818811    ....    MSR      BASEPRI,r1
        0x00015e7c:    f3bf8f4f    ..O.    DSB      
        0x00015e80:    f3bf8f6f    ..o.    ISB      
        0x00015e84:    49af        .I      LDR      r1,[pc,#700] ; [0x16144] = 0xc001d458
        0x00015e86:    6889        .h      LDR      r1,[r1,#8]
        0x00015e88:    7aca        .z      LDRB     r2,[r1,#0xb]
        0x00015e8a:    1e52        R.      SUBS     r2,r2,#1
        0x00015e8c:    72ca        .r      STRB     r2,[r1,#0xb]
        0x00015e8e:    f3bf8f5f    .._.    DMB      
        0x00015e92:    f3808811    ....    MSR      BASEPRI,r0
        0x00015e96:    f3bf8f4f    ..O.    DSB      
        0x00015e9a:    f3bf8f6f    ..o.    ISB      
        0x00015e9e:    4770        pG      BX       lr
    k_sched_unlock
        0x00015ea0:    b570        p.      PUSH     {r4-r6,lr}
        0x00015ea2:    2500        .%      MOVS     r5,#0
        0x00015ea4:    2020                MOVS     r0,#0x20
        0x00015ea6:    f3ef8411    ....    MRS      r4,BASEPRI
        0x00015eaa:    f3808811    ....    MSR      BASEPRI,r0
        0x00015eae:    f3bf8f4f    ..O.    DSB      
        0x00015eb2:    f3bf8f6f    ..o.    ISB      
        0x00015eb6:    4ea3        .N      LDR      r6,[pc,#652] ; [0x16144] = 0xc001d458
        0x00015eb8:    2d00        .-      CMP      r5,#0
        0x00015eba:    68b0        .h      LDR      r0,[r6,#8]
        0x00015ebc:    7ac1        .z      LDRB     r1,[r0,#0xb]
        0x00015ebe:    f1010101    ....    ADD      r1,r1,#1
        0x00015ec2:    72c1        .r      STRB     r1,[r0,#0xb]
        0x00015ec4:    f04f0001    O...    MOV      r0,#1
        0x00015ec8:    f7fffd25    ..%.    BL       update_cache ; 0x15916
        0x00015ecc:    f3848811    ....    MSR      BASEPRI,r4
        0x00015ed0:    f3bf8f4f    ..O.    DSB      
        0x00015ed4:    f3bf8f6f    ..o.    ISB      
        0x00015ed8:    2001        .       MOVS     r0,#1
        0x00015eda:    2800        .(      CMP      r0,#0
        0x00015edc:    f04f0120    O. .    MOV      r1,#0x20
        0x00015ee0:    f3ef8011    ....    MRS      r0,BASEPRI
        0x00015ee4:    f3818811    ....    MSR      BASEPRI,r1
        0x00015ee8:    f3bf8f4f    ..O.    DSB      
        0x00015eec:    f3bf8f6f    ..o.    ISB      
        0x00015ef0:    f3ef8105    ....    MRS      r1,IPSR
        0x00015ef4:    290d        .)      CMP      r1,#0xd
        0x00015ef6:    d80f        ..      BHI      0x15f18 ; k_sched_unlock + 120
        0x00015ef8:    b121        !.      CBZ      r1,0x15f04 ; k_sched_unlock + 100
        0x00015efa:    4991        .I      LDR      r1,[pc,#580] ; [0x16140] = 0xe000ed04
        0x00015efc:    6809        .h      LDR      r1,[r1,#0]
        0x00015efe:    f4116f00    ...o    TST      r1,#0x800
        0x00015f02:    d009        ..      BEQ      0x15f18 ; k_sched_unlock + 120
        0x00015f04:    68b2        .h      LDR      r2,[r6,#8]
        0x00015f06:    69f1        .i      LDR      r1,[r6,#0x1c]
        0x00015f08:    4291        .B      CMP      r1,r2
        0x00015f0a:    d005        ..      BEQ      0x15f18 ; k_sched_unlock + 120
        0x00015f0c:    498e        .I      LDR      r1,[pc,#568] ; [0x16148] = 0xc0019fa8
        0x00015f0e:    600d        .`      STR      r5,[r1,#0]
        0x00015f10:    e8bd4070    ..p@    POP      {r4-r6,lr}
        0x00015f14:    f002bdda    ....    B.W      __swap ; 0x18acc
        0x00015f18:    f3808811    ....    MSR      BASEPRI,r0
        0x00015f1c:    f3bf8f4f    ..O.    DSB      
        0x00015f20:    f3bf8f6f    ..o.    ISB      
        0x00015f24:    bd70        p.      POP      {r4-r6,pc}
    _priq_rb_lessthan
        0x00015f26:    f990200a    ...     LDRSB    r2,[r0,#0xa]
        0x00015f2a:    f991300a    ...0    LDRSB    r3,[r1,#0xa]
        0x00015f2e:    4293        .B      CMP      r3,r2
        0x00015f30:    dc04        ..      BGT      0x15f3c ; _priq_rb_lessthan + 22
        0x00015f32:    db05        ..      BLT      0x15f40 ; _priq_rb_lessthan + 26
        0x00015f34:    68c0        .h      LDR      r0,[r0,#0xc]
        0x00015f36:    68c9        .h      LDR      r1,[r1,#0xc]
        0x00015f38:    4288        .B      CMP      r0,r1
        0x00015f3a:    d201        ..      BCS      0x15f40 ; _priq_rb_lessthan + 26
        0x00015f3c:    2001        .       MOVS     r0,#1
        0x00015f3e:    4770        pG      BX       lr
        0x00015f40:    2000        .       MOVS     r0,#0
        0x00015f42:    4770        pG      BX       lr
    _priq_rb_add
        0x00015f44:    b5f0        ..      PUSH     {r4-r7,lr}
        0x00015f46:    4604        .F      MOV      r4,r0
        0x00015f48:    b083        ..      SUB      sp,sp,#0xc
        0x00015f4a:    68c0        .h      LDR      r0,[r0,#0xc]
        0x00015f4c:    60c8        .`      STR      r0,[r1,#0xc]
        0x00015f4e:    68e0        .h      LDR      r0,[r4,#0xc]
        0x00015f50:    466d        mF      MOV      r5,sp
        0x00015f52:    1c40        @.      ADDS     r0,r0,#1
        0x00015f54:    460f        .F      MOV      r7,r1
        0x00015f56:    60e0        .`      STR      r0,[r4,#0xc]
        0x00015f58:    bf08        ..      IT       EQ
        0x00015f5a:    f04f36ff    O..6    MOVEQ    r6,#0xffffffff
        0x00015f5e:    d11c        ..      BNE      0x15f9a ; _priq_rb_add + 86
        0x00015f60:    68a0        .h      LDR      r0,[r4,#8]
        0x00015f62:    4629        )F      MOV      r1,r5
        0x00015f64:    0080        ..      LSLS     r0,r0,#2
        0x00015f66:    1dc0        ..      ADDS     r0,r0,#7
        0x00015f68:    f0200007     ...    BIC      r0,r0,#7
        0x00015f6c:    ebad0d00    ....    SUB      sp,sp,r0
        0x00015f70:    f8c5d000    ....    STR      sp,[r5,#0]
        0x00015f74:    68a0        .h      LDR      r0,[r4,#8]
        0x00015f76:    1dc0        ..      ADDS     r0,r0,#7
        0x00015f78:    f0200007     ...    BIC      r0,r0,#7
        0x00015f7c:    ebad0d00    ....    SUB      sp,sp,r0
        0x00015f80:    f8c5d004    ....    STR      sp,[r5,#4]
        0x00015f84:    4620         F      MOV      r0,r4
        0x00015f86:    60ae        .`      STR      r6,[r5,#8]
        0x00015f88:    f002fc50    ..P.    BL       _rb_foreach_next ; 0x1882c
        0x00015f8c:    b128        (.      CBZ      r0,0x15f9a ; _priq_rb_add + 86
        0x00015f8e:    68e1        .h      LDR      r1,[r4,#0xc]
        0x00015f90:    60c1        .`      STR      r1,[r0,#0xc]
        0x00015f92:    68e0        .h      LDR      r0,[r4,#0xc]
        0x00015f94:    1c40        @.      ADDS     r0,r0,#1
        0x00015f96:    60e0        .`      STR      r0,[r4,#0xc]
        0x00015f98:    e7e2        ..      B        0x15f60 ; _priq_rb_add + 28
        0x00015f9a:    4639        9F      MOV      r1,r7
        0x00015f9c:    4620         F      MOV      r0,r4
        0x00015f9e:    f002f9ec    ....    BL       rb_insert ; 0x1837a
        0x00015fa2:    46ad        .F      MOV      sp,r5
        0x00015fa4:    b003        ..      ADD      sp,sp,#0xc
        0x00015fa6:    bdf0        ..      POP      {r4-r7,pc}
    _priq_rb_remove
        0x00015fa8:    b510        ..      PUSH     {r4,lr}
        0x00015faa:    4604        .F      MOV      r4,r0
        0x00015fac:    f002faf5    ....    BL       rb_remove ; 0x1859a
        0x00015fb0:    6820         h      LDR      r0,[r4,#0]
        0x00015fb2:    2800        .(      CMP      r0,#0
        0x00015fb4:    bf04        ..      ITT      EQ
        0x00015fb6:    2000        .       MOVEQ    r0,#0
        0x00015fb8:    60e0        .`      STREQ    r0,[r4,#0xc]
        0x00015fba:    bd10        ..      POP      {r4,pc}
    _priq_rb_best
        0x00015fbc:    2100        .!      MOVS     r1,#0
        0x00015fbe:    f002b98d    ....    B.W      _rb_get_minmax ; 0x182dc
    k_sched_time_slice_set
        0x00015fc2:    4a62        bJ      LDR      r2,[pc,#392] ; [0x1614c] = 0xc0019fa0
        0x00015fc4:    6010        .`      STR      r0,[r2,#0]
        0x00015fc6:    4a60        `J      LDR      r2,[pc,#384] ; [0x16148] = 0xc0019fa8
        0x00015fc8:    2000        .       MOVS     r0,#0
        0x00015fca:    6010        .`      STR      r0,[r2,#0]
        0x00015fcc:    4860        `H      LDR      r0,[pc,#384] ; [0x16150] = 0xc0019fb8
        0x00015fce:    6001        .`      STR      r1,[r0,#0]
        0x00015fd0:    4770        pG      BX       lr
    _is_thread_time_slicing
        0x00015fd2:    4a5e        ^J      LDR      r2,[pc,#376] ; [0x1614c] = 0xc0019fa0
        0x00015fd4:    4601        .F      MOV      r1,r0
        0x00015fd6:    2000        .       MOVS     r0,#0
        0x00015fd8:    6812        .h      LDR      r2,[r2,#0]
        0x00015fda:    2a00        .*      CMP      r2,#0
        0x00015fdc:    dd08        ..      BLE      0x15ff0 ; _is_thread_time_slicing + 30
        0x00015fde:    894a        J.      LDRH     r2,[r1,#0xa]
        0x00015fe0:    2a7f        .*      CMP      r2,#0x7f
        0x00015fe2:    d805        ..      BHI      0x15ff0 ; _is_thread_time_slicing + 30
        0x00015fe4:    f991300a    ...0    LDRSB    r3,[r1,#0xa]
        0x00015fe8:    4959        YI      LDR      r1,[pc,#356] ; [0x16150] = 0xc0019fb8
        0x00015fea:    6809        .h      LDR      r1,[r1,#0]
        0x00015fec:    428b        .B      CMP      r3,r1
        0x00015fee:    da01        ..      BGE      0x15ff4 ; _is_thread_time_slicing + 34
        0x00015ff0:    2000        .       MOVS     r0,#0
        0x00015ff2:    4770        pG      BX       lr
        0x00015ff4:    2220         "      MOVS     r2,#0x20
        0x00015ff6:    f3ef8111    ....    MRS      r1,BASEPRI
        0x00015ffa:    f3828811    ....    MSR      BASEPRI,r2
        0x00015ffe:    f3bf8f4f    ..O.    DSB      
        0x00016002:    f3bf8f6f    ..o.    ISB      
        0x00016006:    4a4f        OJ      LDR      r2,[pc,#316] ; [0x16144] = 0xc001d458
        0x00016008:    f8d2c120    .. .    LDR      r12,[r2,#0x120]
        0x0001600c:    3220         2      ADDS     r2,r2,#0x20
        0x0001600e:    f1bc0f00    ....    CMP      r12,#0
        0x00016012:    d011        ..      BEQ      0x16038 ; _is_thread_time_slicing + 102
        0x00016014:    fa9cfcac    ....    RBIT     r12,r12
        0x00016018:    fabcfc8c    ....    CLZ      r12,r12
        0x0001601c:    eb020ccc    ....    ADD      r12,r2,r12,LSL #3
        0x00016020:    f8dc2000    ...     LDR      r2,[r12,#0]
        0x00016024:    4562        bE      CMP      r2,r12
        0x00016026:    bf18        ..      IT       NE
        0x00016028:    2a00        .*      CMPNE    r2,#0
        0x0001602a:    d005        ..      BEQ      0x16038 ; _is_thread_time_slicing + 102
        0x0001602c:    f992000a    ....    LDRSB    r0,[r2,#0xa]
        0x00016030:    4283        .B      CMP      r3,r0
        0x00016032:    bf0c        ..      ITE      EQ
        0x00016034:    2001        .       MOVEQ    r0,#1
        0x00016036:    2000        .       MOVNE    r0,#0
        0x00016038:    f3818811    ....    MSR      BASEPRI,r1
        0x0001603c:    f3bf8f4f    ..O.    DSB      
        0x00016040:    f3bf8f6f    ..o.    ISB      
        0x00016044:    4770        pG      BX       lr
    _unpend_all
        0x00016046:    e92d41f0    -..A    PUSH     {r4-r8,lr}
        0x0001604a:    4604        .F      MOV      r4,r0
        0x0001604c:    2000        .       MOVS     r0,#0
        0x0001604e:    6821        !h      LDR      r1,[r4,#0]
        0x00016050:    42a1        .B      CMP      r1,r4
        0x00016052:    bf14        ..      ITE      NE
        0x00016054:    2900        .)      CMPNE    r1,#0
        0x00016056:    e8bd81f0    ....    POPEQ    {r4-r8,pc}
        0x0001605a:    f04f37ff    O..7    MOV      r7,#0xffffffff
        0x0001605e:    4e39        9N      LDR      r6,[pc,#228] ; [0x16144] = 0xc001d458
        0x00016060:    2501        .%      MOVS     r5,#1
        0x00016062:    2220         "      MOVS     r2,#0x20
        0x00016064:    f3ef8011    ....    MRS      r0,BASEPRI
        0x00016068:    f3828811    ....    MSR      BASEPRI,r2
        0x0001606c:    f3bf8f4f    ..O.    DSB      
        0x00016070:    f3bf8f6f    ..o.    ISB      
        0x00016074:    e9d12300    ...#    LDRD     r2,r3,[r1,#0]
        0x00016078:    601a        .`      STR      r2,[r3,#0]
        0x0001607a:    e9d12300    ...#    LDRD     r2,r3,[r1,#0]
        0x0001607e:    6053        S`      STR      r3,[r2,#4]
        0x00016080:    7a4a        Jz      LDRB     r2,[r1,#9]
        0x00016082:    f0220202    "...    BIC      r2,r2,#2
        0x00016086:    724a        Jr      STRB     r2,[r1,#9]
        0x00016088:    f3808811    ....    MSR      BASEPRI,r0
        0x0001608c:    f3bf8f4f    ..O.    DSB      
        0x00016090:    f3bf8f6f    ..o.    ISB      
        0x00016094:    6a4a        Jj      LDR      r2,[r1,#0x24]
        0x00016096:    f1010014    ....    ADD      r0,r1,#0x14
        0x0001609a:    f1b23fff    ...?    CMP      r2,#0xffffffff
        0x0001609e:    d010        ..      BEQ      0x160c2 ; _unpend_all + 124
        0x000160a0:    69b3        .i      LDR      r3,[r6,#0x18]
        0x000160a2:    4283        .B      CMP      r3,r0
        0x000160a4:    d006        ..      BEQ      0x160b4 ; _unpend_all + 110
        0x000160a6:    1c03        ..      ADDS     r3,r0,#0
        0x000160a8:    bf18        ..      IT       NE
        0x000160aa:    6803        .h      LDRNE    r3,[r0,#0]
        0x000160ac:    f8d3c010    ....    LDR      r12,[r3,#0x10]
        0x000160b0:    4462        bD      ADD      r2,r2,r12
        0x000160b2:    611a        .a      STR      r2,[r3,#0x10]
        0x000160b4:    e9d02300    ...#    LDRD     r2,r3,[r0,#0]
        0x000160b8:    601a        .`      STR      r2,[r3,#0]
        0x000160ba:    e9d02300    ...#    LDRD     r2,r3,[r0,#0]
        0x000160be:    6053        S`      STR      r3,[r2,#4]
        0x000160c0:    6107        .a      STR      r7,[r0,#0x10]
        0x000160c2:    7a48        Hz      LDRB     r0,[r1,#9]
        0x000160c4:    f0100f1f    ....    TST      r0,#0x1f
        0x000160c8:    bf04        ..      ITT      EQ
        0x000160ca:    6a48        Hj      LDREQ    r0,[r1,#0x24]
        0x000160cc:    f1b03fff    ...?    CMPEQ    r0,#0xffffffff
        0x000160d0:    d12e        ..      BNE      0x16130 ; _unpend_all + 234
        0x000160d2:    2020                MOVS     r0,#0x20
        0x000160d4:    f3ef8811    ....    MRS      r8,BASEPRI
        0x000160d8:    f3808811    ....    MSR      BASEPRI,r0
        0x000160dc:    f3bf8f4f    ..O.    DSB      
        0x000160e0:    f3bf8f6f    ..o.    ISB      
        0x000160e4:    f991000a    ....    LDRSB    r0,[r1,#0xa]
        0x000160e8:    f1060220    .. .    ADD      r2,r6,#0x20
        0x000160ec:    f1000310    ....    ADD      r3,r0,#0x10
        0x000160f0:    eb0200c3    ....    ADD      r0,r2,r3,LSL #3
        0x000160f4:    6008        .`      STR      r0,[r1,#0]
        0x000160f6:    f8d0c004    ....    LDR      r12,[r0,#4]
        0x000160fa:    f8c1c004    ....    STR      r12,[r1,#4]
        0x000160fe:    f8d0c004    ....    LDR      r12,[r0,#4]
        0x00016102:    fa05f303    ....    LSL      r3,r5,r3
        0x00016106:    f8cc1000    ....    STR      r1,[r12,#0]
        0x0001610a:    6041        A`      STR      r1,[r0,#4]
        0x0001610c:    f8d60120    .. .    LDR      r0,[r6,#0x120]
        0x00016110:    4318        .C      ORRS     r0,r0,r3
        0x00016112:    f8c60120    .. .    STR      r0,[r6,#0x120]
        0x00016116:    7a48        Hz      LDRB     r0,[r1,#9]
        0x00016118:    f0400040    @.@.    ORR      r0,r0,#0x40
        0x0001611c:    7248        Hr      STRB     r0,[r1,#9]
        0x0001611e:    2000        .       MOVS     r0,#0
        0x00016120:    f7fffbf9    ....    BL       update_cache ; 0x15916
        0x00016124:    f3888811    ....    MSR      BASEPRI,r8
        0x00016128:    f3bf8f4f    ..O.    DSB      
        0x0001612c:    f3bf8f6f    ..o.    ISB      
        0x00016130:    6821        !h      LDR      r1,[r4,#0]
        0x00016132:    2001        .       MOVS     r0,#1
        0x00016134:    42a1        .B      CMP      r1,r4
        0x00016136:    bf18        ..      IT       NE
        0x00016138:    2900        .)      CMPNE    r1,#0
        0x0001613a:    d192        ..      BNE      0x16062 ; _unpend_all + 28
        0x0001613c:    e8bd81f0    ....    POP      {r4-r8,pc}
    $d
        0x00016140:    e000ed04    ....    DCD    3758157060
        0x00016144:    c001d458    X...    DCD    3221345368
        0x00016148:    c0019fa8    ....    DCD    3221331880
        0x0001614c:    c0019fa0    ....    DCD    3221331872
        0x00016150:    c0019fb8    ....    DCD    3221331896
    $t
    _sched_init
        0x00016154:    b510        ..      PUSH     {r4,lr}
        0x00016156:    f44f7194    O..q    MOV      r1,#0x128
        0x0001615a:    48fe        .H      LDR      r0,[pc,#1016] ; [0x16554] = 0xc001d458
        0x0001615c:    f003f9de    ....    BL       __aeabi_memclr ; 0x1951c
        0x00016160:    4afc        .J      LDR      r2,[pc,#1008] ; [0x16554] = 0xc001d458
        0x00016162:    2100        .!      MOVS     r1,#0
        0x00016164:    eb0200c1    ....    ADD      r0,r2,r1,LSL #3
        0x00016168:    3020         0      ADDS     r0,r0,#0x20
        0x0001616a:    1c49        I.      ADDS     r1,r1,#1
        0x0001616c:    6000        .`      STR      r0,[r0,#0]
        0x0001616e:    6040        @`      STR      r0,[r0,#4]
        0x00016170:    2920         )      CMP      r1,#0x20
        0x00016172:    d3f7        ..      BCC      0x16164 ; _sched_init + 16
        0x00016174:    bd10        ..      POP      {r4,pc}
    _impl_k_thread_priority_get
        0x00016176:    f990000a    ....    LDRSB    r0,[r0,#0xa]
        0x0001617a:    4770        pG      BX       lr
    _impl_k_thread_priority_set
        0x0001617c:    e5fb        ..      B        _thread_priority_set ; 0x15d76
    _impl_k_yield
        0x0001617e:    e92d41f0    -..A    PUSH     {r4-r8,lr}
        0x00016182:    4df4        .M      LDR      r5,[pc,#976] ; [0x16554] = 0xc001d458
        0x00016184:    49f4        .I      LDR      r1,[pc,#976] ; [0x16558] = 0x19b84
        0x00016186:    2600        .&      MOVS     r6,#0
        0x00016188:    68a8        .h      LDR      r0,[r5,#8]
        0x0001618a:    6809        .h      LDR      r1,[r1,#0]
        0x0001618c:    4288        .B      CMP      r0,r1
        0x0001618e:    d040        @.      BEQ      0x16212 ; _impl_k_yield + 148
        0x00016190:    2120         !      MOVS     r1,#0x20
        0x00016192:    f3ef8411    ....    MRS      r4,BASEPRI
        0x00016196:    f3818811    ....    MSR      BASEPRI,r1
        0x0001619a:    f3bf8f4f    ..O.    DSB      
        0x0001619e:    f3bf8f6f    ..o.    ISB      
        0x000161a2:    e9d03c00    ...<    LDRD     r3,r12,[r0,#0]
        0x000161a6:    f990200a    ...     LDRSB    r2,[r0,#0xa]
        0x000161aa:    f8cc3000    ...0    STR      r3,[r12,#0]
        0x000161ae:    6843        Ch      LDR      r3,[r0,#4]
        0x000161b0:    6800        .h      LDR      r0,[r0,#0]
        0x000161b2:    f1050120    .. .    ADD      r1,r5,#0x20
        0x000161b6:    3210        .2      ADDS     r2,r2,#0x10
        0x000161b8:    6043        C`      STR      r3,[r0,#4]
        0x000161ba:    f8510032    Q.2.    LDR      r0,[r1,r2,LSL #3]
        0x000161be:    eb010cc2    ....    ADD      r12,r1,r2,LSL #3
        0x000161c2:    2301        .#      MOVS     r3,#1
        0x000161c4:    4560        `E      CMP      r0,r12
        0x000161c6:    d106        ..      BNE      0x161d6 ; _impl_k_yield + 88
        0x000161c8:    f8d10100    ....    LDR      r0,[r1,#0x100]
        0x000161cc:    fa03f202    ....    LSL      r2,r3,r2
        0x000161d0:    4390        .C      BICS     r0,r0,r2
        0x000161d2:    f8c10100    ....    STR      r0,[r1,#0x100]
        0x000161d6:    68a8        .h      LDR      r0,[r5,#8]
        0x000161d8:    460a        .F      MOV      r2,r1
        0x000161da:    f990100a    ....    LDRSB    r1,[r0,#0xa]
        0x000161de:    f1010c10    ....    ADD      r12,r1,#0x10
        0x000161e2:    eb0201cc    ....    ADD      r1,r2,r12,LSL #3
        0x000161e6:    6001        .`      STR      r1,[r0,#0]
        0x000161e8:    684f        Oh      LDR      r7,[r1,#4]
        0x000161ea:    6047        G`      STR      r7,[r0,#4]
        0x000161ec:    684f        Oh      LDR      r7,[r1,#4]
        0x000161ee:    6038        8`      STR      r0,[r7,#0]
        0x000161f0:    6048        H`      STR      r0,[r1,#4]
        0x000161f2:    f8d20100    ....    LDR      r0,[r2,#0x100]
        0x000161f6:    fa03f10c    ....    LSL      r1,r3,r12
        0x000161fa:    4308        .C      ORRS     r0,r0,r1
        0x000161fc:    f8c20100    ....    STR      r0,[r2,#0x100]
        0x00016200:    2001        .       MOVS     r0,#1
        0x00016202:    f7fffb88    ....    BL       update_cache ; 0x15916
        0x00016206:    f3848811    ....    MSR      BASEPRI,r4
        0x0001620a:    f3bf8f4f    ..O.    DSB      
        0x0001620e:    f3bf8f6f    ..o.    ISB      
        0x00016212:    68a9        .h      LDR      r1,[r5,#8]
        0x00016214:    69e8        .i      LDR      r0,[r5,#0x1c]
        0x00016216:    4288        .B      CMP      r0,r1
        0x00016218:    bf08        ..      IT       EQ
        0x0001621a:    e8bd81f0    ....    POPEQ    {r4-r8,pc}
        0x0001621e:    2120         !      MOVS     r1,#0x20
        0x00016220:    f3ef8011    ....    MRS      r0,BASEPRI
        0x00016224:    f3818811    ....    MSR      BASEPRI,r1
        0x00016228:    f3bf8f4f    ..O.    DSB      
        0x0001622c:    f3bf8f6f    ..o.    ISB      
        0x00016230:    49ca        .I      LDR      r1,[pc,#808] ; [0x1655c] = 0xc0019fa8
        0x00016232:    600e        .`      STR      r6,[r1,#0]
        0x00016234:    e8bd41f0    ...A    POP      {r4-r8,lr}
        0x00016238:    f002bc48    ..H.    B.W      __swap ; 0x18acc
    _impl_k_sleep
        0x0001623c:    e92d43f8    -..C    PUSH     {r3-r9,lr}
        0x00016240:    2800        .(      CMP      r0,#0
        0x00016242:    d057        W.      BEQ      0x162f4 ; _impl_k_sleep + 184
        0x00016244:    2101        .!      MOVS     r1,#1
        0x00016246:    fb90f0f1    ....    SDIV     r0,r0,r1
        0x0001624a:    1c40        @.      ADDS     r0,r0,#1
        0x0001624c:    9000        ..      STR      r0,[sp,#0]
        0x0001624e:    2020                MOVS     r0,#0x20
        0x00016250:    f3ef8511    ....    MRS      r5,BASEPRI
        0x00016254:    f3808811    ....    MSR      BASEPRI,r0
        0x00016258:    f3bf8f4f    ..O.    DSB      
        0x0001625c:    f3bf8f6f    ..o.    ISB      
        0x00016260:    4ebc        .N      LDR      r6,[pc,#752] ; [0x16554] = 0xc001d458
        0x00016262:    2700        .'      MOVS     r7,#0
        0x00016264:    2020                MOVS     r0,#0x20
        0x00016266:    f3ef8411    ....    MRS      r4,BASEPRI
        0x0001626a:    68b1        .h      LDR      r1,[r6,#8]
        0x0001626c:    f3808811    ....    MSR      BASEPRI,r0
        0x00016270:    f3bf8f4f    ..O.    DSB      
        0x00016274:    f3bf8f6f    ..o.    ISB      
        0x00016278:    7a48        Hz      LDRB     r0,[r1,#9]
        0x0001627a:    f04f0301    O...    MOV      r3,#1
        0x0001627e:    f0100f40    ..@.    TST      r0,#0x40
        0x00016282:    d025        %.      BEQ      0x162d0 ; _impl_k_sleep + 148
        0x00016284:    e9d18c00    ....    LDRD     r8,r12,[r1,#0]
        0x00016288:    f991200a    ...     LDRSB    r2,[r1,#0xa]
        0x0001628c:    f8cc8000    ....    STR      r8,[r12,#0]
        0x00016290:    e9d18c00    ....    LDRD     r8,r12,[r1,#0]
        0x00016294:    f1060020    .. .    ADD      r0,r6,#0x20
        0x00016298:    3210        .2      ADDS     r2,r2,#0x10
        0x0001629a:    f8c8c004    ....    STR      r12,[r8,#4]
        0x0001629e:    f850c032    P.2.    LDR      r12,[r0,r2,LSL #3]
        0x000162a2:    eb0008c2    ....    ADD      r8,r0,r2,LSL #3
        0x000162a6:    45c4        .E      CMP      r12,r8
        0x000162a8:    d107        ..      BNE      0x162ba ; _impl_k_sleep + 126
        0x000162aa:    f8d0c100    ....    LDR      r12,[r0,#0x100]
        0x000162ae:    fa03f202    ....    LSL      r2,r3,r2
        0x000162b2:    ea2c0202    ,...    BIC      r2,r12,r2
        0x000162b6:    f8c02100    ...!    STR      r2,[r0,#0x100]
        0x000162ba:    7a48        Hz      LDRB     r0,[r1,#9]
        0x000162bc:    f0200040     .@.    BIC      r0,r0,#0x40
        0x000162c0:    7248        Hr      STRB     r0,[r1,#9]
        0x000162c2:    68b0        .h      LDR      r0,[r6,#8]
        0x000162c4:    4288        .B      CMP      r0,r1
        0x000162c6:    bf0c        ..      ITE      EQ
        0x000162c8:    2001        .       MOVEQ    r0,#1
        0x000162ca:    2000        .       MOVNE    r0,#0
        0x000162cc:    f7fffb23    ..#.    BL       update_cache ; 0x15916
        0x000162d0:    f3848811    ....    MSR      BASEPRI,r4
        0x000162d4:    f3bf8f4f    ..O.    DSB      
        0x000162d8:    f3bf8f6f    ..o.    ISB      
        0x000162dc:    68b0        .h      LDR      r0,[r6,#8]
        0x000162de:    2100        .!      MOVS     r1,#0
        0x000162e0:    9a00        ..      LDR      r2,[sp,#0]
        0x000162e2:    f000f8c0    ....    BL       _add_thread_timeout ; 0x16466
        0x000162e6:    499d        .I      LDR      r1,[pc,#628] ; [0x1655c] = 0xc0019fa8
        0x000162e8:    4628        (F      MOV      r0,r5
        0x000162ea:    600f        .`      STR      r7,[r1,#0]
        0x000162ec:    e8bd43f8    ...C    POP      {r3-r9,lr}
        0x000162f0:    f002bbec    ....    B.W      __swap ; 0x18acc
        0x000162f4:    e8bd43f8    ...C    POP      {r3-r9,lr}
        0x000162f8:    e741        A.      B        _impl_k_yield ; 0x1617e
    _impl_k_wakeup
        0x000162fa:    e92d41f0    -..A    PUSH     {r4-r8,lr}
        0x000162fe:    2120         !      MOVS     r1,#0x20
        0x00016300:    f3ef8411    ....    MRS      r4,BASEPRI
        0x00016304:    f3818811    ....    MSR      BASEPRI,r1
        0x00016308:    f3bf8f4f    ..O.    DSB      
        0x0001630c:    f3bf8f6f    ..o.    ISB      
        0x00016310:    7a41        Az      LDRB     r1,[r0,#9]
        0x00016312:    f0110f02    ....    TST      r1,#2
        0x00016316:    d17c        |.      BNE      0x16412 ; _impl_k_wakeup + 280
        0x00016318:    f8d0c024    ..$.    LDR      r12,[r0,#0x24]
        0x0001631c:    f1000114    ....    ADD      r1,r0,#0x14
        0x00016320:    f1bc3fff    ...?    CMP      r12,#0xffffffff
        0x00016324:    f04f33ff    O..3    MOV      r3,#0xffffffff
        0x00016328:    f04f0700    O...    MOV      r7,#0
        0x0001632c:    d075        u.      BEQ      0x1641a ; _impl_k_wakeup + 288
        0x0001632e:    4e89        .N      LDR      r6,[pc,#548] ; [0x16554] = 0xc001d458
        0x00016330:    69b2        .i      LDR      r2,[r6,#0x18]
        0x00016332:    428a        .B      CMP      r2,r1
        0x00016334:    d006        ..      BEQ      0x16344 ; _impl_k_wakeup + 74
        0x00016336:    1c0a        ..      ADDS     r2,r1,#0
        0x00016338:    bf18        ..      IT       NE
        0x0001633a:    680a        .h      LDRNE    r2,[r1,#0]
        0x0001633c:    6915        .i      LDR      r5,[r2,#0x10]
        0x0001633e:    44ac        .D      ADD      r12,r12,r5
        0x00016340:    f8c2c010    ....    STR      r12,[r2,#0x10]
        0x00016344:    e9d12c00    ...,    LDRD     r2,r12,[r1,#0]
        0x00016348:    f04f0801    O...    MOV      r8,#1
        0x0001634c:    f8cc2000    ...     STR      r2,[r12,#0]
        0x00016350:    e9d12c00    ...,    LDRD     r2,r12,[r1,#0]
        0x00016354:    f8c2c004    ....    STR      r12,[r2,#4]
        0x00016358:    610b        .a      STR      r3,[r1,#0x10]
        0x0001635a:    7a41        Az      LDRB     r1,[r0,#9]
        0x0001635c:    f0110f1f    ....    TST      r1,#0x1f
        0x00016360:    bf18        ..      IT       NE
        0x00016362:    2100        .!      MOVNE    r1,#0
        0x00016364:    d01f        ..      BEQ      0x163a6 ; _impl_k_wakeup + 172
        0x00016366:    2900        .)      CMP      r1,#0
        0x00016368:    f3ef8005    ....    MRS      r0,IPSR
        0x0001636c:    280d        .(      CMP      r0,#0xd
        0x0001636e:    d854        T.      BHI      0x1641a ; _impl_k_wakeup + 288
        0x00016370:    4a7b        {J      LDR      r2,[pc,#492] ; [0x16560] = 0xe000ed04
        0x00016372:    b118        ..      CBZ      r0,0x1637c ; _impl_k_wakeup + 130
        0x00016374:    6810        .h      LDR      r0,[r2,#0]
        0x00016376:    f4106f00    ...o    TST      r0,#0x800
        0x0001637a:    d04e        N.      BEQ      0x1641a ; _impl_k_wakeup + 288
        0x0001637c:    2000        .       MOVS     r0,#0
        0x0001637e:    4620         F      MOV      r0,r4
        0x00016380:    f3ef8105    ....    MRS      r1,IPSR
        0x00016384:    290d        .)      CMP      r1,#0xd
        0x00016386:    d850        P.      BHI      0x1642a ; _impl_k_wakeup + 304
        0x00016388:    b119        ..      CBZ      r1,0x16392 ; _impl_k_wakeup + 152
        0x0001638a:    6811        .h      LDR      r1,[r2,#0]
        0x0001638c:    f4116f00    ...o    TST      r1,#0x800
        0x00016390:    d04b        K.      BEQ      0x1642a ; _impl_k_wakeup + 304
        0x00016392:    68b2        .h      LDR      r2,[r6,#8]
        0x00016394:    69f1        .i      LDR      r1,[r6,#0x1c]
        0x00016396:    4291        .B      CMP      r1,r2
        0x00016398:    d047        G.      BEQ      0x1642a ; _impl_k_wakeup + 304
        0x0001639a:    4970        pI      LDR      r1,[pc,#448] ; [0x1655c] = 0xc0019fa8
        0x0001639c:    600f        .`      STR      r7,[r1,#0]
        0x0001639e:    e8bd41f0    ...A    POP      {r4-r8,lr}
        0x000163a2:    f002bb93    ....    B.W      __swap ; 0x18acc
        0x000163a6:    2101        .!      MOVS     r1,#1
        0x000163a8:    2900        .)      CMP      r1,#0
        0x000163aa:    f04f0120    O. .    MOV      r1,#0x20
        0x000163ae:    f3ef8511    ....    MRS      r5,BASEPRI
        0x000163b2:    f3818811    ....    MSR      BASEPRI,r1
        0x000163b6:    f3bf8f4f    ..O.    DSB      
        0x000163ba:    f3bf8f6f    ..o.    ISB      
        0x000163be:    f990100a    ....    LDRSB    r1,[r0,#0xa]
        0x000163c2:    f1060220    .. .    ADD      r2,r6,#0x20
        0x000163c6:    f1010310    ....    ADD      r3,r1,#0x10
        0x000163ca:    eb0201c3    ....    ADD      r1,r2,r3,LSL #3
        0x000163ce:    6001        .`      STR      r1,[r0,#0]
        0x000163d0:    f8d1c004    ....    LDR      r12,[r1,#4]
        0x000163d4:    f8c0c004    ....    STR      r12,[r0,#4]
        0x000163d8:    f8d1c004    ....    LDR      r12,[r1,#4]
        0x000163dc:    2f00        ./      CMP      r7,#0
        0x000163de:    fa08f303    ....    LSL      r3,r8,r3
        0x000163e2:    f8cc0000    ....    STR      r0,[r12,#0]
        0x000163e6:    6048        H`      STR      r0,[r1,#4]
        0x000163e8:    f8d61120    .. .    LDR      r1,[r6,#0x120]
        0x000163ec:    ea410103    A...    ORR      r1,r1,r3
        0x000163f0:    f8c61120    .. .    STR      r1,[r6,#0x120]
        0x000163f4:    7a41        Az      LDRB     r1,[r0,#9]
        0x000163f6:    f0410140    A.@.    ORR      r1,r1,#0x40
        0x000163fa:    7241        Ar      STRB     r1,[r0,#9]
        0x000163fc:    f04f0000    O...    MOV      r0,#0
        0x00016400:    f7fffa89    ....    BL       update_cache ; 0x15916
        0x00016404:    f3858811    ....    MSR      BASEPRI,r5
        0x00016408:    f3bf8f4f    ..O.    DSB      
        0x0001640c:    f3bf8f6f    ..o.    ISB      
        0x00016410:    e000        ..      B        0x16414 ; _impl_k_wakeup + 282
        0x00016412:    e002        ..      B        0x1641a ; _impl_k_wakeup + 288
        0x00016414:    f1b80f00    ....    CMP      r8,#0
        0x00016418:    e7a6        ..      B        0x16368 ; _impl_k_wakeup + 110
        0x0001641a:    f3848811    ....    MSR      BASEPRI,r4
        0x0001641e:    f3bf8f4f    ..O.    DSB      
        0x00016422:    f3bf8f6f    ..o.    ISB      
        0x00016426:    e8bd81f0    ....    POP      {r4-r8,pc}
        0x0001642a:    f3808811    ....    MSR      BASEPRI,r0
        0x0001642e:    f3bf8f4f    ..O.    DSB      
        0x00016432:    f3bf8f6f    ..o.    ISB      
        0x00016436:    e8bd81f0    ....    POP      {r4-r8,pc}
    _impl_k_current_get
        0x0001643a:    4846        FH      LDR      r0,[pc,#280] ; [0x16554] = 0xc001d458
        0x0001643c:    6880        .h      LDR      r0,[r0,#8]
        0x0001643e:    4770        pG      BX       lr
    _impl_k_is_preempt_thread
        0x00016440:    f3ef8005    ....    MRS      r0,IPSR
        0x00016444:    280d        .(      CMP      r0,#0xd
        0x00016446:    d80c        ..      BHI      0x16462 ; _impl_k_is_preempt_thread + 34
        0x00016448:    b120         .      CBZ      r0,0x16454 ; _impl_k_is_preempt_thread + 20
        0x0001644a:    4845        EH      LDR      r0,[pc,#276] ; [0x16560] = 0xe000ed04
        0x0001644c:    6800        .h      LDR      r0,[r0,#0]
        0x0001644e:    f4106f00    ...o    TST      r0,#0x800
        0x00016452:    d006        ..      BEQ      0x16462 ; _impl_k_is_preempt_thread + 34
        0x00016454:    483f        ?H      LDR      r0,[pc,#252] ; [0x16554] = 0xc001d458
        0x00016456:    6880        .h      LDR      r0,[r0,#8]
        0x00016458:    8940        @.      LDRH     r0,[r0,#0xa]
        0x0001645a:    287f        .(      CMP      r0,#0x7f
        0x0001645c:    bf9c        ..      ITT      LS
        0x0001645e:    2001        .       MOVLS    r0,#1
        0x00016460:    4770        pG      BXLS     lr
        0x00016462:    2000        .       MOVS     r0,#0
        0x00016464:    4770        pG      BX       lr
    _add_thread_timeout
        0x00016466:    e92d41f0    -..A    PUSH     {r4-r8,lr}
        0x0001646a:    f1000314    ....    ADD      r3,r0,#0x14
        0x0001646e:    61c0        .a      STR      r0,[r0,#0x1c]
        0x00016470:    e9c31203    ....    STRD     r1,r2,[r3,#0xc]
        0x00016474:    f8dfc0dc    ....    LDR      r12,[pc,#220] ; [0x16554] = 0xc001d458
        0x00016478:    2600        .&      MOVS     r6,#0
        0x0001647a:    b1ea        ..      CBZ      r2,0x164b8 ; _add_thread_timeout + 82
        0x0001647c:    f8dc0014    ....    LDR      r0,[r12,#0x14]
        0x00016480:    f10c0114    ....    ADD      r1,r12,#0x14
        0x00016484:    f1030410    ....    ADD      r4,r3,#0x10
        0x00016488:    4288        .B      CMP      r0,r1
        0x0001648a:    bf18        ..      IT       NE
        0x0001648c:    2800        .(      CMPNE    r0,#0
        0x0001648e:    d069        i.      BEQ      0x16564 ; _add_thread_timeout + 254
        0x00016490:    6821        !h      LDR      r1,[r4,#0]
        0x00016492:    6902        .i      LDR      r2,[r0,#0x10]
        0x00016494:    4291        .B      CMP      r1,r2
        0x00016496:    dc66        f.      BGT      0x16566 ; _add_thread_timeout + 256
        0x00016498:    4611        .F      MOV      r1,r2
        0x0001649a:    6822        "h      LDR      r2,[r4,#0]
        0x0001649c:    1a89        ..      SUBS     r1,r1,r2
        0x0001649e:    6101        .a      STR      r1,[r0,#0x10]
        0x000164a0:    f10c0114    ....    ADD      r1,r12,#0x14
        0x000164a4:    2800        .(      CMP      r0,#0
        0x000164a6:    d07d        }.      BEQ      0x165a4 ; _add_thread_timeout + 318
        0x000164a8:    6841        Ah      LDR      r1,[r0,#4]
        0x000164aa:    e9c30100    ....    STRD     r0,r1,[r3,#0]
        0x000164ae:    6841        Ah      LDR      r1,[r0,#4]
        0x000164b0:    600b        .`      STR      r3,[r1,#0]
        0x000164b2:    6043        C`      STR      r3,[r0,#4]
        0x000164b4:    e8bd81f0    ....    POP      {r4-r8,pc}
        0x000164b8:    4618        .F      MOV      r0,r3
        0x000164ba:    2220         "      MOVS     r2,#0x20
        0x000164bc:    f3ef8411    ....    MRS      r4,BASEPRI
        0x000164c0:    6899        .h      LDR      r1,[r3,#8]
        0x000164c2:    f3828811    ....    MSR      BASEPRI,r2
        0x000164c6:    f3bf8f4f    ..O.    DSB      
        0x000164ca:    f3bf8f6f    ..o.    ISB      
        0x000164ce:    f04f32ff    O..2    MOV      r2,#0xffffffff
        0x000164d2:    6102        .a      STR      r2,[r0,#0x10]
        0x000164d4:    2900        .)      CMP      r1,#0
        0x000164d6:    d069        i.      BEQ      0x165ac ; _add_thread_timeout + 326
        0x000164d8:    68d8        .h      LDR      r0,[r3,#0xc]
        0x000164da:    460d        .F      MOV      r5,r1
        0x000164dc:    2201        ."      MOVS     r2,#1
        0x000164de:    b1c8        ..      CBZ      r0,0x16514 ; _add_thread_timeout + 174
        0x000164e0:    2320         #      MOVS     r3,#0x20
        0x000164e2:    f3ef8011    ....    MRS      r0,BASEPRI
        0x000164e6:    f3838811    ....    MSR      BASEPRI,r3
        0x000164ea:    f3bf8f4f    ..O.    DSB      
        0x000164ee:    f3bf8f6f    ..o.    ISB      
        0x000164f2:    e9d53700    ...7    LDRD     r3,r7,[r5,#0]
        0x000164f6:    603b        ;`      STR      r3,[r7,#0]
        0x000164f8:    e9d53700    ...7    LDRD     r3,r7,[r5,#0]
        0x000164fc:    605f        _`      STR      r7,[r3,#4]
        0x000164fe:    7a6b        kz      LDRB     r3,[r5,#9]
        0x00016500:    f0230302    #...    BIC      r3,r3,#2
        0x00016504:    726b        kr      STRB     r3,[r5,#9]
        0x00016506:    f3808811    ....    MSR      BASEPRI,r0
        0x0001650a:    f3bf8f4f    ..O.    DSB      
        0x0001650e:    f3bf8f6f    ..o.    ISB      
        0x00016512:    622e        .b      STR      r6,[r5,#0x20]
        0x00016514:    7a48        Hz      LDRB     r0,[r1,#9]
        0x00016516:    f0200004     ...    BIC      r0,r0,#4
        0x0001651a:    7248        Hr      STRB     r0,[r1,#9]
        0x0001651c:    f0100f1f    ....    TST      r0,#0x1f
        0x00016520:    bf04        ..      ITT      EQ
        0x00016522:    6a48        Hj      LDREQ    r0,[r1,#0x24]
        0x00016524:    f1b03fff    ...?    CMPEQ    r0,#0xffffffff
        0x00016528:    d135        5.      BNE      0x16596 ; _add_thread_timeout + 304
        0x0001652a:    2020                MOVS     r0,#0x20
        0x0001652c:    f3ef8511    ....    MRS      r5,BASEPRI
        0x00016530:    f3808811    ....    MSR      BASEPRI,r0
        0x00016534:    f3bf8f4f    ..O.    DSB      
        0x00016538:    f3bf8f6f    ..o.    ISB      
        0x0001653c:    f991000a    ....    LDRSB    r0,[r1,#0xa]
        0x00016540:    f10c0320    .. .    ADD      r3,r12,#0x20
        0x00016544:    f1000c10    ....    ADD      r12,r0,#0x10
        0x00016548:    eb0300cc    ....    ADD      r0,r3,r12,LSL #3
        0x0001654c:    6008        .`      STR      r0,[r1,#0]
        0x0001654e:    6846        Fh      LDR      r6,[r0,#4]
        0x00016550:    604e        N`      STR      r6,[r1,#4]
        0x00016552:    e009        ..      B        0x16568 ; _add_thread_timeout + 258
    $d
        0x00016554:    c001d458    X...    DCD    3221345368
        0x00016558:    00019b84    ....    DCD    105348
        0x0001655c:    c0019fa8    ....    DCD    3221331880
        0x00016560:    e000ed04    ....    DCD    3758157060
    $t
        0x00016564:    e040        @.      B        0x165e8 ; _add_thread_timeout + 386
        0x00016566:    e034        4.      B        0x165d2 ; _add_thread_timeout + 364
        0x00016568:    6846        Fh      LDR      r6,[r0,#4]
        0x0001656a:    fa02f20c    ....    LSL      r2,r2,r12
        0x0001656e:    6031        1`      STR      r1,[r6,#0]
        0x00016570:    6041        A`      STR      r1,[r0,#4]
        0x00016572:    f8d30100    ....    LDR      r0,[r3,#0x100]
        0x00016576:    4310        .C      ORRS     r0,r0,r2
        0x00016578:    f8c30100    ....    STR      r0,[r3,#0x100]
        0x0001657c:    7a48        Hz      LDRB     r0,[r1,#9]
        0x0001657e:    f0400040    @.@.    ORR      r0,r0,#0x40
        0x00016582:    7248        Hr      STRB     r0,[r1,#9]
        0x00016584:    2000        .       MOVS     r0,#0
        0x00016586:    f7fff9c6    ....    BL       update_cache ; 0x15916
        0x0001658a:    f3858811    ....    MSR      BASEPRI,r5
        0x0001658e:    f3bf8f4f    ..O.    DSB      
        0x00016592:    f3bf8f6f    ..o.    ISB      
        0x00016596:    f3848811    ....    MSR      BASEPRI,r4
        0x0001659a:    f3bf8f4f    ..O.    DSB      
        0x0001659e:    f3bf8f6f    ..o.    ISB      
        0x000165a2:    e001        ..      B        0x165a8 ; _add_thread_timeout + 322
        0x000165a4:    e00e        ..      B        0x165c4 ; _add_thread_timeout + 350
        0x000165a6:    e001        ..      B        0x165ac ; _add_thread_timeout + 326
        0x000165a8:    e8bd81f0    ....    POP      {r4-r8,pc}
        0x000165ac:    f3848811    ....    MSR      BASEPRI,r4
        0x000165b0:    f3bf8f4f    ..O.    DSB      
        0x000165b4:    f3bf8f6f    ..o.    ISB      
        0x000165b8:    6941        Ai      LDR      r1,[r0,#0x14]
        0x000165ba:    2900        .)      CMP      r1,#0
        0x000165bc:    d0f1        ..      BEQ      0x165a2 ; _add_thread_timeout + 316
        0x000165be:    e8bd41f0    ...A    POP      {r4-r8,lr}
        0x000165c2:    4708        .G      BX       r1
        0x000165c4:    6019        .`      STR      r1,[r3,#0]
        0x000165c6:    6848        Hh      LDR      r0,[r1,#4]
        0x000165c8:    6058        X`      STR      r0,[r3,#4]
        0x000165ca:    6848        Hh      LDR      r0,[r1,#4]
        0x000165cc:    6003        .`      STR      r3,[r0,#0]
        0x000165ce:    604b        K`      STR      r3,[r1,#4]
        0x000165d0:    e7e7        ..      B        0x165a2 ; _add_thread_timeout + 316
        0x000165d2:    1a89        ..      SUBS     r1,r1,r2
        0x000165d4:    6021        !`      STR      r1,[r4,#0]
        0x000165d6:    b138        8.      CBZ      r0,0x165e8 ; _add_thread_timeout + 386
        0x000165d8:    f8dc1018    ....    LDR      r1,[r12,#0x18]
        0x000165dc:    4281        .B      CMP      r1,r0
        0x000165de:    bf1c        ..      ITT      NE
        0x000165e0:    6800        .h      LDRNE    r0,[r0,#0]
        0x000165e2:    2800        .(      CMPNE    r0,#0
        0x000165e4:    f47faf54    ..T.    BNE      0x16490 ; _add_thread_timeout + 42
        0x000165e8:    f10c0014    ....    ADD      r0,r12,#0x14
        0x000165ec:    6018        .`      STR      r0,[r3,#0]
        0x000165ee:    f8dc1018    ....    LDR      r1,[r12,#0x18]
        0x000165f2:    6059        Y`      STR      r1,[r3,#4]
        0x000165f4:    f8dc1018    ....    LDR      r1,[r12,#0x18]
        0x000165f8:    600b        .`      STR      r3,[r1,#0]
        0x000165fa:    f8cc3018    ...0    STR      r3,[r12,#0x18]
        0x000165fe:    e7d0        ..      B        0x165a2 ; _add_thread_timeout + 316
    pend
        0x00016600:    e92d41f0    -..A    PUSH     {r4-r8,lr}
        0x00016604:    4604        .F      MOV      r4,r0
        0x00016606:    4617        .F      MOV      r7,r2
        0x00016608:    460d        .F      MOV      r5,r1
        0x0001660a:    2020                MOVS     r0,#0x20
        0x0001660c:    f3ef8611    ....    MRS      r6,BASEPRI
        0x00016610:    f3808811    ....    MSR      BASEPRI,r0
        0x00016614:    f3bf8f4f    ..O.    DSB      
        0x00016618:    f3bf8f6f    ..o.    ISB      
        0x0001661c:    7a60        `z      LDRB     r0,[r4,#9]
        0x0001661e:    f04f0301    O...    MOV      r3,#1
        0x00016622:    f0100f40    ..@.    TST      r0,#0x40
        0x00016626:    d026        &.      BEQ      0x16676 ; pend + 118
        0x00016628:    e9d48c00    ....    LDRD     r8,r12,[r4,#0]
        0x0001662c:    f994100a    ....    LDRSB    r1,[r4,#0xa]
        0x00016630:    f8cc8000    ....    STR      r8,[r12,#0]
        0x00016634:    e9d48c00    ....    LDRD     r8,r12,[r4,#0]
        0x00016638:    4a34        4J      LDR      r2,[pc,#208] ; [0x1670c] = 0xc001d458
        0x0001663a:    3110        .1      ADDS     r1,r1,#0x10
        0x0001663c:    f1020020    .. .    ADD      r0,r2,#0x20
        0x00016640:    f8c8c004    ....    STR      r12,[r8,#4]
        0x00016644:    f850c031    P.1.    LDR      r12,[r0,r1,LSL #3]
        0x00016648:    eb0008c1    ....    ADD      r8,r0,r1,LSL #3
        0x0001664c:    45c4        .E      CMP      r12,r8
        0x0001664e:    d107        ..      BNE      0x16660 ; pend + 96
        0x00016650:    f8d0c100    ....    LDR      r12,[r0,#0x100]
        0x00016654:    fa03f101    ....    LSL      r1,r3,r1
        0x00016658:    ea2c0101    ,...    BIC      r1,r12,r1
        0x0001665c:    f8c01100    ....    STR      r1,[r0,#0x100]
        0x00016660:    7a61        az      LDRB     r1,[r4,#9]
        0x00016662:    f0210140    !.@.    BIC      r1,r1,#0x40
        0x00016666:    7261        ar      STRB     r1,[r4,#9]
        0x00016668:    6891        .h      LDR      r1,[r2,#8]
        0x0001666a:    42a1        .B      CMP      r1,r4
        0x0001666c:    bf0c        ..      ITE      EQ
        0x0001666e:    2001        .       MOVEQ    r0,#1
        0x00016670:    2000        .       MOVNE    r0,#0
        0x00016672:    f7fff950    ..P.    BL       update_cache ; 0x15916
        0x00016676:    f3868811    ....    MSR      BASEPRI,r6
        0x0001667a:    f3bf8f4f    ..O.    DSB      
        0x0001667e:    f3bf8f6f    ..o.    ISB      
        0x00016682:    7a60        `z      LDRB     r0,[r4,#9]
        0x00016684:    f1b73fff    ...?    CMP      r7,#0xffffffff
        0x00016688:    f0400002    @...    ORR      r0,r0,#2
        0x0001668c:    7260        `r      STRB     r0,[r4,#9]
        0x0001668e:    d016        ..      BEQ      0x166be ; pend + 190
        0x00016690:    2001        .       MOVS     r0,#1
        0x00016692:    fb97f0f0    ....    SDIV     r0,r7,r0
        0x00016696:    1c42        B.      ADDS     r2,r0,#1
        0x00016698:    2020                MOVS     r0,#0x20
        0x0001669a:    f3ef8611    ....    MRS      r6,BASEPRI
        0x0001669e:    f3808811    ....    MSR      BASEPRI,r0
        0x000166a2:    f3bf8f4f    ..O.    DSB      
        0x000166a6:    f3bf8f6f    ..o.    ISB      
        0x000166aa:    4629        )F      MOV      r1,r5
        0x000166ac:    4620         F      MOV      r0,r4
        0x000166ae:    f7fffeda    ....    BL       _add_thread_timeout ; 0x16466
        0x000166b2:    f3868811    ....    MSR      BASEPRI,r6
        0x000166b6:    f3bf8f4f    ..O.    DSB      
        0x000166ba:    f3bf8f6f    ..o.    ISB      
        0x000166be:    2d00        .-      CMP      r5,#0
        0x000166c0:    bf08        ..      IT       EQ
        0x000166c2:    e8bd81f0    ....    POPEQ    {r4-r8,pc}
        0x000166c6:    682a        *h      LDR      r2,[r5,#0]
        0x000166c8:    42aa        .B      CMP      r2,r5
        0x000166ca:    bf1c        ..      ITT      NE
        0x000166cc:    2a00        .*      CMPNE    r2,#0
        0x000166ce:    f994000a    ....    LDRSBNE  r0,[r4,#0xa]
        0x000166d2:    d013        ..      BEQ      0x166fc ; pend + 252
        0x000166d4:    f992100a    ....    LDRSB    r1,[r2,#0xa]
        0x000166d8:    4288        .B      CMP      r0,r1
        0x000166da:    da08        ..      BGE      0x166ee ; pend + 238
        0x000166dc:    b172        r.      CBZ      r2,0x166fc ; pend + 252
        0x000166de:    6850        Ph      LDR      r0,[r2,#4]
        0x000166e0:    e9c42000    ...     STRD     r2,r0,[r4,#0]
        0x000166e4:    6850        Ph      LDR      r0,[r2,#4]
        0x000166e6:    6004        .`      STR      r4,[r0,#0]
        0x000166e8:    6054        T`      STR      r4,[r2,#4]
        0x000166ea:    e8bd81f0    ....    POP      {r4-r8,pc}
        0x000166ee:    2a00        .*      CMP      r2,#0
        0x000166f0:    bf1f        ..      ITTTT    NE
        0x000166f2:    6869        ih      LDRNE    r1,[r5,#4]
        0x000166f4:    4291        .B      CMPNE    r1,r2
        0x000166f6:    6812        .h      LDRNE    r2,[r2,#0]
        0x000166f8:    2a00        .*      CMPNE    r2,#0
        0x000166fa:    d1eb        ..      BNE      0x166d4 ; pend + 212
        0x000166fc:    6025        %`      STR      r5,[r4,#0]
        0x000166fe:    6868        hh      LDR      r0,[r5,#4]
        0x00016700:    6060        ``      STR      r0,[r4,#4]
        0x00016702:    6868        hh      LDR      r0,[r5,#4]
        0x00016704:    6004        .`      STR      r4,[r0,#0]
        0x00016706:    606c        l`      STR      r4,[r5,#4]
        0x00016708:    e8bd81f0    ....    POP      {r4-r8,pc}
    $d
        0x0001670c:    c001d458    X...    DCD    3221345368
    $t
    .text
    _impl_k_sem_init
        0x00016710:    6000        .`      STR      r0,[r0,#0]
        0x00016712:    e9c01202    ....    STRD     r1,r2,[r0,#8]
        0x00016716:    6040        @`      STR      r0,[r0,#4]
        0x00016718:    4770        pG      BX       lr
    _sem_give_non_preemptible
        0x0001671a:    b570        p.      PUSH     {r4-r6,lr}
        0x0001671c:    4604        .F      MOV      r4,r0
        0x0001671e:    2100        .!      MOVS     r1,#0
        0x00016720:    f7fff991    ....    BL       _find_first_thread_to_unpend ; 0x15a46
        0x00016724:    0005        ..      MOVS     r5,r0
        0x00016726:    d004        ..      BEQ      0x16732 ; _sem_give_non_preemptible + 24
        0x00016728:    f7fff96d    ..m.    BL       _unpend_thread_no_timeout ; 0x15a06
        0x0001672c:    2000        .       MOVS     r0,#0
        0x0001672e:    6668        hf      STR      r0,[r5,#0x64]
        0x00016730:    bd70        p.      POP      {r4-r6,pc}
        0x00016732:    e9d40102    ....    LDRD     r0,r1,[r4,#8]
        0x00016736:    4288        .B      CMP      r0,r1
        0x00016738:    bf14        ..      ITE      NE
        0x0001673a:    2101        .!      MOVNE    r1,#1
        0x0001673c:    2100        .!      MOVEQ    r1,#0
        0x0001673e:    4408        .D      ADD      r0,r0,r1
        0x00016740:    60a0        .`      STR      r0,[r4,#8]
        0x00016742:    bd70        p.      POP      {r4-r6,pc}
    _impl_k_sem_give
        0x00016744:    b570        p.      PUSH     {r4-r6,lr}
        0x00016746:    2120         !      MOVS     r1,#0x20
        0x00016748:    f3ef8611    ....    MRS      r6,BASEPRI
        0x0001674c:    f3818811    ....    MSR      BASEPRI,r1
        0x00016750:    f3bf8f4f    ..O.    DSB      
        0x00016754:    f3bf8f6f    ..o.    ISB      
        0x00016758:    4605        .F      MOV      r5,r0
        0x0001675a:    f7fffa64    ..d.    BL       _unpend_first_thread ; 0x15c26
        0x0001675e:    0004        ..      MOVS     r4,r0
        0x00016760:    d00f        ..      BEQ      0x16782 ; _impl_k_sem_give + 62
        0x00016762:    7a41        Az      LDRB     r1,[r0,#9]
        0x00016764:    f0110f1f    ....    TST      r1,#0x1f
        0x00016768:    bf02        ..      ITTT     EQ
        0x0001676a:    6a41        Aj      LDREQ    r1,[r0,#0x24]
        0x0001676c:    f1b13fff    ...?    CMPEQ    r1,#0xffffffff
        0x00016770:    f7fff911    ....    BLEQ     _add_thread_to_ready_q ; 0x15996
        0x00016774:    2000        .       MOVS     r0,#0
        0x00016776:    6660        `f      STR      r0,[r4,#0x64]
        0x00016778:    4630        0F      MOV      r0,r6
        0x0001677a:    e8bd4070    ..p@    POP      {r4-r6,lr}
        0x0001677e:    f7ffbade    ....    B        _reschedule ; 0x15d3e
        0x00016782:    e9d50102    ....    LDRD     r0,r1,[r5,#8]
        0x00016786:    4288        .B      CMP      r0,r1
        0x00016788:    bf14        ..      ITE      NE
        0x0001678a:    2101        .!      MOVNE    r1,#1
        0x0001678c:    2100        .!      MOVEQ    r1,#0
        0x0001678e:    4408        .D      ADD      r0,r0,r1
        0x00016790:    60a8        .`      STR      r0,[r5,#8]
        0x00016792:    e7f1        ..      B        0x16778 ; _impl_k_sem_give + 52
    _impl_k_sem_take
        0x00016794:    460a        .F      MOV      r2,r1
        0x00016796:    4601        .F      MOV      r1,r0
        0x00016798:    2320         #      MOVS     r3,#0x20
        0x0001679a:    f3ef8011    ....    MRS      r0,BASEPRI
        0x0001679e:    f3838811    ....    MSR      BASEPRI,r3
        0x000167a2:    f3bf8f4f    ..O.    DSB      
        0x000167a6:    f3bf8f6f    ..o.    ISB      
        0x000167aa:    688b        .h      LDR      r3,[r1,#8]
        0x000167ac:    b14b        K.      CBZ      r3,0x167c2 ; _impl_k_sem_take + 46
        0x000167ae:    1e5a        Z.      SUBS     r2,r3,#1
        0x000167b0:    608a        .`      STR      r2,[r1,#8]
        0x000167b2:    f3808811    ....    MSR      BASEPRI,r0
        0x000167b6:    f3bf8f4f    ..O.    DSB      
        0x000167ba:    f3bf8f6f    ..o.    ISB      
        0x000167be:    2000        .       MOVS     r0,#0
        0x000167c0:    4770        pG      BX       lr
        0x000167c2:    b10a        ..      CBZ      r2,0x167c8 ; _impl_k_sem_take + 52
        0x000167c4:    f7ffba21    ..!.    B        _pend_current_thread ; 0x15c0a
        0x000167c8:    f3808811    ....    MSR      BASEPRI,r0
        0x000167cc:    f3bf8f4f    ..O.    DSB      
        0x000167d0:    f3bf8f6f    ..o.    ISB      
        0x000167d4:    f06f000f    o...    MVN      r0,#0xf
        0x000167d8:    4770        pG      BX       lr
        0x000167da:    0000        ..      MOVS     r0,r0
    .text
    k_stack_init
        0x000167dc:    6000        .`      STR      r0,[r0,#0]
        0x000167de:    e9c00101    ....    STRD     r0,r1,[r0,#4]
        0x000167e2:    60c1        .`      STR      r1,[r0,#0xc]
        0x000167e4:    eb010182    ....    ADD      r1,r1,r2,LSL #2
        0x000167e8:    6101        .a      STR      r1,[r0,#0x10]
        0x000167ea:    4770        pG      BX       lr
    _impl_k_stack_alloc_init
        0x000167ec:    b570        p.      PUSH     {r4-r6,lr}
        0x000167ee:    4604        .F      MOV      r4,r0
        0x000167f0:    460d        .F      MOV      r5,r1
        0x000167f2:    4608        .F      MOV      r0,r1
        0x000167f4:    f7fef9c3    ....    BL       z_thread_malloc ; 0x14b7e
        0x000167f8:    2800        .(      CMP      r0,#0
        0x000167fa:    bf04        ..      ITT      EQ
        0x000167fc:    f06f000b    o...    MVNEQ    r0,#0xb
        0x00016800:    bd70        p.      POPEQ    {r4-r6,pc}
        0x00016802:    6024        $`      STR      r4,[r4,#0]
        0x00016804:    e9c44001    ...@    STRD     r4,r0,[r4,#4]
        0x00016808:    60e0        .`      STR      r0,[r4,#0xc]
        0x0001680a:    68a0        .h      LDR      r0,[r4,#8]
        0x0001680c:    eb000085    ....    ADD      r0,r0,r5,LSL #2
        0x00016810:    6120         a      STR      r0,[r4,#0x10]
        0x00016812:    2001        .       MOVS     r0,#1
        0x00016814:    7520         u      STRB     r0,[r4,#0x14]
        0x00016816:    2000        .       MOVS     r0,#0
        0x00016818:    bd70        p.      POP      {r4-r6,pc}
    k_stack_cleanup
        0x0001681a:    b510        ..      PUSH     {r4,lr}
        0x0001681c:    4604        .F      MOV      r4,r0
        0x0001681e:    7d00        .}      LDRB     r0,[r0,#0x14]
        0x00016820:    f0100f01    ....    TST      r0,#1
        0x00016824:    bf08        ..      IT       EQ
        0x00016826:    bd10        ..      POPEQ    {r4,pc}
        0x00016828:    68a0        .h      LDR      r0,[r4,#8]
        0x0001682a:    f7fef93c    ..<.    BL       k_free ; 0x14aa6
        0x0001682e:    2000        .       MOVS     r0,#0
        0x00016830:    60a0        .`      STR      r0,[r4,#8]
        0x00016832:    7d20         }      LDRB     r0,[r4,#0x14]
        0x00016834:    f0200001     ...    BIC      r0,r0,#1
        0x00016838:    7520         u      STRB     r0,[r4,#0x14]
        0x0001683a:    bd10        ..      POP      {r4,pc}
    _impl_k_stack_push
        0x0001683c:    e92d41f0    -..A    PUSH     {r4-r8,lr}
        0x00016840:    4607        .F      MOV      r7,r0
        0x00016842:    460e        .F      MOV      r6,r1
        0x00016844:    2020                MOVS     r0,#0x20
        0x00016846:    f3ef8511    ....    MRS      r5,BASEPRI
        0x0001684a:    f3808811    ....    MSR      BASEPRI,r0
        0x0001684e:    f3bf8f4f    ..O.    DSB      
        0x00016852:    f3bf8f6f    ..o.    ISB      
        0x00016856:    4638        8F      MOV      r0,r7
        0x00016858:    f7fff9e5    ....    BL       _unpend_first_thread ; 0x15c26
        0x0001685c:    0004        ..      MOVS     r4,r0
        0x0001685e:    d010        ..      BEQ      0x16882 ; _impl_k_stack_push + 70
        0x00016860:    7a41        Az      LDRB     r1,[r0,#9]
        0x00016862:    f0110f1f    ....    TST      r1,#0x1f
        0x00016866:    bf02        ..      ITTT     EQ
        0x00016868:    6a41        Aj      LDREQ    r1,[r0,#0x24]
        0x0001686a:    f1b13fff    ...?    CMPEQ    r1,#0xffffffff
        0x0001686e:    f7fff892    ....    BLEQ     _add_thread_to_ready_q ; 0x15996
        0x00016872:    2000        .       MOVS     r0,#0
        0x00016874:    6126        &a      STR      r6,[r4,#0x10]
        0x00016876:    6660        `f      STR      r0,[r4,#0x64]
        0x00016878:    4628        (F      MOV      r0,r5
        0x0001687a:    e8bd41f0    ...A    POP      {r4-r8,lr}
        0x0001687e:    f7ffba5e    ..^.    B        _reschedule ; 0x15d3e
        0x00016882:    68f8        .h      LDR      r0,[r7,#0xc]
        0x00016884:    6006        .`      STR      r6,[r0,#0]
        0x00016886:    68f8        .h      LDR      r0,[r7,#0xc]
        0x00016888:    1d00        ..      ADDS     r0,r0,#4
        0x0001688a:    60f8        .`      STR      r0,[r7,#0xc]
        0x0001688c:    f3858811    ....    MSR      BASEPRI,r5
        0x00016890:    f3bf8f4f    ..O.    DSB      
        0x00016894:    f3bf8f6f    ..o.    ISB      
        0x00016898:    e8bd81f0    ....    POP      {r4-r8,pc}
    _impl_k_stack_pop
        0x0001689c:    b510        ..      PUSH     {r4,lr}
        0x0001689e:    460c        .F      MOV      r4,r1
        0x000168a0:    4601        .F      MOV      r1,r0
        0x000168a2:    2320         #      MOVS     r3,#0x20
        0x000168a4:    f3ef8011    ....    MRS      r0,BASEPRI
        0x000168a8:    f3838811    ....    MSR      BASEPRI,r3
        0x000168ac:    f3bf8f4f    ..O.    DSB      
        0x000168b0:    f3bf8f6f    ..o.    ISB      
        0x000168b4:    e9d1c302    ....    LDRD     r12,r3,[r1,#8]
        0x000168b8:    4563        cE      CMP      r3,r12
        0x000168ba:    d90c        ..      BLS      0x168d6 ; _impl_k_stack_pop + 58
        0x000168bc:    1f1a        ..      SUBS     r2,r3,#4
        0x000168be:    60ca        .`      STR      r2,[r1,#0xc]
        0x000168c0:    f8531c04    S...    LDR      r1,[r3,#-4]
        0x000168c4:    6021        !`      STR      r1,[r4,#0]
        0x000168c6:    f3808811    ....    MSR      BASEPRI,r0
        0x000168ca:    f3bf8f4f    ..O.    DSB      
        0x000168ce:    f3bf8f6f    ..o.    ISB      
        0x000168d2:    2000        .       MOVS     r0,#0
        0x000168d4:    bd10        ..      POP      {r4,pc}
        0x000168d6:    b14a        J.      CBZ      r2,0x168ec ; _impl_k_stack_pop + 80
        0x000168d8:    f7fff997    ....    BL       _pend_current_thread ; 0x15c0a
        0x000168dc:    2800        .(      CMP      r0,#0
        0x000168de:    bf18        ..      IT       NE
        0x000168e0:    bd10        ..      POPNE    {r4,pc}
        0x000168e2:    4907        .I      LDR      r1,[pc,#28] ; [0x16900] = 0xc001d458
        0x000168e4:    6889        .h      LDR      r1,[r1,#8]
        0x000168e6:    6909        .i      LDR      r1,[r1,#0x10]
        0x000168e8:    6021        !`      STR      r1,[r4,#0]
        0x000168ea:    bd10        ..      POP      {r4,pc}
        0x000168ec:    f3808811    ....    MSR      BASEPRI,r0
        0x000168f0:    f3bf8f4f    ..O.    DSB      
        0x000168f4:    f3bf8f6f    ..o.    ISB      
        0x000168f8:    f06f000f    o...    MVN      r0,#0xf
        0x000168fc:    bd10        ..      POP      {r4,pc}
    $d
        0x000168fe:    0000        ..      DCW    0
        0x00016900:    c001d458    X...    DCD    3221345368
    $t
    .text
    k_sys_work_q_init
        0x00016904:    b510        ..      PUSH     {r4,lr}
        0x00016906:    f04f33ff    O..3    MOV      r3,#0xffffffff
        0x0001690a:    f44f6280    O..b    MOV      r2,#0x400
        0x0001690e:    4903        .I      LDR      r1,[pc,#12] ; [0x1691c] = 0xc001de08
        0x00016910:    4803        .H      LDR      r0,[pc,#12] ; [0x16920] = 0xc001d580
        0x00016912:    f000ffe8    ....    BL       k_work_q_start ; 0x178e6
        0x00016916:    2000        .       MOVS     r0,#0
        0x00016918:    bd10        ..      POP      {r4,pc}
    $d
        0x0001691a:    0000        ..      DCW    0
        0x0001691c:    c001de08    ....    DCD    3221347848
        0x00016920:    c001d580    ....    DCD    3221345664
    $t
    .text
    _sys_device_do_config_level
        0x00016924:    b570        p.      PUSH     {r4-r6,lr}
        0x00016926:    4603        .F      MOV      r3,r0
        0x00016928:    4870        pH      LDR      r0,[pc,#448] ; [0x16aec] = 0xc0019f68
        0x0001692a:    f8dfc1c8    ....    LDR      r12,[pc,#456] ; [0x16af4] = 0xc001a740
        0x0001692e:    496e        nI      LDR      r1,[pc,#440] ; [0x16ae8] = 0xc001a498
        0x00016930:    4c6f        oL      LDR      r4,[pc,#444] ; [0x16af0] = 0xc001a72c
        0x00016932:    f8c0c00c    ....    STR      r12,[r0,#0xc]
        0x00016936:    6001        .`      STR      r1,[r0,#0]
        0x00016938:    4a6f        oJ      LDR      r2,[pc,#444] ; [0x16af8] = 0xc001a754
        0x0001693a:    4d70        pM      LDR      r5,[pc,#448] ; [0x16afc] = 0
        0x0001693c:    e9c01401    ....    STRD     r1,r4,[r0,#4]
        0x00016940:    4415        .D      ADD      r5,r5,r2
        0x00016942:    e9c02504    ...%    STRD     r2,r5,[r0,#0x10]
        0x00016946:    486e        nH      LDR      r0,[pc,#440] ; [0x16b00] = 0xc001d638
        0x00016948:    f8c0c008    ....    STR      r12,[r0,#8]
        0x0001694c:    e9c01400    ....    STRD     r1,r4,[r0,#0]
        0x00016950:    e9c02503    ...%    STRD     r2,r5,[r0,#0xc]
        0x00016954:    eb000583    ....    ADD      r5,r0,r3,LSL #2
        0x00016958:    f8504023    P.#@    LDR      r4,[r0,r3,LSL #2]
        0x0001695c:    6868        hh      LDR      r0,[r5,#4]
        0x0001695e:    42a0        .B      CMP      r0,r4
        0x00016960:    bf98        ..      IT       LS
        0x00016962:    bd70        p.      POPLS    {r4-r6,pc}
        0x00016964:    6820         h      LDR      r0,[r4,#0]
        0x00016966:    6841        Ah      LDR      r1,[r0,#4]
        0x00016968:    4620         F      MOV      r0,r4
        0x0001696a:    4788        .G      BLX      r1
        0x0001696c:    6868        hh      LDR      r0,[r5,#4]
        0x0001696e:    3414        .4      ADDS     r4,r4,#0x14
        0x00016970:    42a0        .B      CMP      r0,r4
        0x00016972:    d8f7        ..      BHI      0x16964 ; _sys_device_do_config_level + 64
        0x00016974:    bd70        p.      POP      {r4-r6,pc}
    device_get_binding
        0x00016976:    e92d47f0    -..G    PUSH     {r4-r10,lr}
        0x0001697a:    4f5c        \O      LDR      r7,[pc,#368] ; [0x16aec] = 0xc0019f68
        0x0001697c:    4681        .F      MOV      r9,r0
        0x0001697e:    f8df8184    ....    LDR      r8,[pc,#388] ; [0x16b04] = 0x66666667
        0x00016982:    6838        8h      LDR      r0,[r7,#0]
        0x00016984:    697a        zi      LDR      r2,[r7,#0x14]
        0x00016986:    2101        .!      MOVS     r1,#1
        0x00016988:    1a12        ..      SUBS     r2,r2,r0
        0x0001698a:    fb883202    ...2    SMULL    r3,r2,r8,r2
        0x0001698e:    10d3        ..      ASRS     r3,r2,#3
        0x00016990:    eba372e2    ...r    SUB      r2,r3,r2,ASR #31
        0x00016994:    4604        .F      MOV      r4,r0
        0x00016996:    2a01        .*      CMP      r2,#1
        0x00016998:    db0b        ..      BLT      0x169b2 ; device_get_binding + 60
        0x0001699a:    6843        Ch      LDR      r3,[r0,#4]
        0x0001699c:    b12b        +.      CBZ      r3,0x169aa ; device_get_binding + 52
        0x0001699e:    6803        .h      LDR      r3,[r0,#0]
        0x000169a0:    681b        .h      LDR      r3,[r3,#0]
        0x000169a2:    454b        KE      CMP      r3,r9
        0x000169a4:    bf08        ..      IT       EQ
        0x000169a6:    e8bd87f0    ....    POPEQ    {r4-r10,pc}
        0x000169aa:    3014        .0      ADDS     r0,r0,#0x14
        0x000169ac:    1c49        I.      ADDS     r1,r1,#1
        0x000169ae:    428a        .B      CMP      r2,r1
        0x000169b0:    daf3        ..      BGE      0x1699a ; device_get_binding + 36
        0x000169b2:    2601        .&      MOVS     r6,#1
        0x000169b4:    4625        %F      MOV      r5,r4
        0x000169b6:    2a01        .*      CMP      r2,#1
        0x000169b8:    db12        ..      BLT      0x169e0 ; device_get_binding + 106
        0x000169ba:    6860        `h      LDR      r0,[r4,#4]
        0x000169bc:    b128        (.      CBZ      r0,0x169ca ; device_get_binding + 84
        0x000169be:    6820         h      LDR      r0,[r4,#0]
        0x000169c0:    6801        .h      LDR      r1,[r0,#0]
        0x000169c2:    4648        HF      MOV      r0,r9
        0x000169c4:    f002fdbc    ....    BL       strcmp ; 0x19540
        0x000169c8:    b168        h.      CBZ      r0,0x169e6 ; device_get_binding + 112
        0x000169ca:    6978        xi      LDR      r0,[r7,#0x14]
        0x000169cc:    3414        .4      ADDS     r4,r4,#0x14
        0x000169ce:    1b40        @.      SUBS     r0,r0,r5
        0x000169d0:    fb881000    ....    SMULL    r1,r0,r8,r0
        0x000169d4:    10c1        ..      ASRS     r1,r0,#3
        0x000169d6:    eba170e0    ...p    SUB      r0,r1,r0,ASR #31
        0x000169da:    1c76        v.      ADDS     r6,r6,#1
        0x000169dc:    42b0        .B      CMP      r0,r6
        0x000169de:    daec        ..      BGE      0x169ba ; device_get_binding + 68
        0x000169e0:    2000        .       MOVS     r0,#0
        0x000169e2:    e8bd87f0    ....    POP      {r4-r10,pc}
        0x000169e6:    4620         F      MOV      r0,r4
        0x000169e8:    e8bd87f0    ....    POP      {r4-r10,pc}
    device_pm_control_nop
        0x000169ec:    2000        .       MOVS     r0,#0
        0x000169ee:    4770        pG      BX       lr
    device_list_get
        0x000169f0:    4a3e        >J      LDR      r2,[pc,#248] ; [0x16aec] = 0xc0019f68
        0x000169f2:    6813        .h      LDR      r3,[r2,#0]
        0x000169f4:    6003        .`      STR      r3,[r0,#0]
        0x000169f6:    6950        Pi      LDR      r0,[r2,#0x14]
        0x000169f8:    6812        .h      LDR      r2,[r2,#0]
        0x000169fa:    1a80        ..      SUBS     r0,r0,r2
        0x000169fc:    4a41        AJ      LDR      r2,[pc,#260] ; [0x16b04] = 0x66666667
        0x000169fe:    fb822000    ...     SMULL    r2,r0,r2,r0
        0x00016a02:    10c2        ..      ASRS     r2,r0,#3
        0x00016a04:    eba270e0    ...p    SUB      r0,r2,r0,ASR #31
        0x00016a08:    6008        .`      STR      r0,[r1,#0]
        0x00016a0a:    4770        pG      BX       lr
    device_any_busy_check
        0x00016a0c:    4837        7H      LDR      r0,[pc,#220] ; [0x16aec] = 0xc0019f68
        0x00016a0e:    b410        ..      PUSH     {r4}
        0x00016a10:    e9d01c06    ....    LDRD     r1,r12,[r0,#0x18]
        0x00016a14:    2200        ."      MOVS     r2,#0
        0x00016a16:    458c        .E      CMP      r12,r1
        0x00016a18:    bf86        ..      ITTE     HI
        0x00016a1a:    ebac0001    ....    SUBHI    r0,r12,r1
        0x00016a1e:    f3c00080    ....    UBFXHI   r0,r0,#2,#1
        0x00016a22:    2000        .       MOVLS    r0,#0
        0x00016a24:    1e43        C.      SUBS     r3,r0,#1
        0x00016a26:    d405        ..      BMI      0x16a34 ; device_any_busy_check + 40
        0x00016a28:    f8514022    Q."@    LDR      r4,[r1,r2,LSL #2]
        0x00016a2c:    b97c        |.      CBNZ     r4,0x16a4e ; device_any_busy_check + 66
        0x00016a2e:    1c52        R.      ADDS     r2,r2,#1
        0x00016a30:    429a        .B      CMP      r2,r3
        0x00016a32:    ddf9        ..      BLE      0x16a28 ; device_any_busy_check + 28
        0x00016a34:    ebac0301    ....    SUB      r3,r12,r1
        0x00016a38:    ebb00fa3    ....    CMP      r0,r3,ASR #2
        0x00016a3c:    da0f        ..      BGE      0x16a5e ; device_any_busy_check + 82
        0x00016a3e:    bf00        ..      NOP      
        0x00016a40:    f8512020    Q.      LDR      r2,[r1,r0,LSL #2]
        0x00016a44:    b91a        ..      CBNZ     r2,0x16a4e ; device_any_busy_check + 66
        0x00016a46:    eb010280    ....    ADD      r2,r1,r0,LSL #2
        0x00016a4a:    6852        Rh      LDR      r2,[r2,#4]
        0x00016a4c:    b11a        ..      CBZ      r2,0x16a56 ; device_any_busy_check + 74
        0x00016a4e:    bc10        ..      POP      {r4}
        0x00016a50:    f06f000f    o...    MVN      r0,#0xf
        0x00016a54:    4770        pG      BX       lr
        0x00016a56:    1c80        ..      ADDS     r0,r0,#2
        0x00016a58:    ebb00fa3    ....    CMP      r0,r3,ASR #2
        0x00016a5c:    dbf0        ..      BLT      0x16a40 ; device_any_busy_check + 52
        0x00016a5e:    bc10        ..      POP      {r4}
        0x00016a60:    2000        .       MOVS     r0,#0
        0x00016a62:    4770        pG      BX       lr
    device_busy_check
        0x00016a64:    4a21        !J      LDR      r2,[pc,#132] ; [0x16aec] = 0xc0019f68
        0x00016a66:    b510        ..      PUSH     {r4,lr}
        0x00016a68:    6991        .i      LDR      r1,[r2,#0x18]
        0x00016a6a:    6812        .h      LDR      r2,[r2,#0]
        0x00016a6c:    1a80        ..      SUBS     r0,r0,r2
        0x00016a6e:    4a25        %J      LDR      r2,[pc,#148] ; [0x16b04] = 0x66666667
        0x00016a70:    fb822000    ...     SMULL    r2,r0,r2,r0
        0x00016a74:    10c2        ..      ASRS     r2,r0,#3
        0x00016a76:    eba274e0    ...t    SUB      r4,r2,r0,ASR #31
        0x00016a7a:    0960        `.      LSRS     r0,r4,#5
        0x00016a7c:    eb010080    ....    ADD      r0,r1,r0,LSL #2
        0x00016a80:    f000f95e    ..^.    BL       atomic_get ; 0x16d40
        0x00016a84:    f004011f    ....    AND      r1,r4,#0x1f
        0x00016a88:    4108        .A      ASRS     r0,r0,r1
        0x00016a8a:    f0100001    ....    ANDS     r0,r0,#1
        0x00016a8e:    bf18        ..      IT       NE
        0x00016a90:    f06f000f    o...    MVNNE    r0,#0xf
        0x00016a94:    bd10        ..      POP      {r4,pc}
    device_busy_set
        0x00016a96:    2301        .#      MOVS     r3,#1
        0x00016a98:    4914        .I      LDR      r1,[pc,#80] ; [0x16aec] = 0xc0019f68
        0x00016a9a:    698a        .i      LDR      r2,[r1,#0x18]
        0x00016a9c:    6809        .h      LDR      r1,[r1,#0]
        0x00016a9e:    1a40        @.      SUBS     r0,r0,r1
        0x00016aa0:    4918        .I      LDR      r1,[pc,#96] ; [0x16b04] = 0x66666667
        0x00016aa2:    fb811000    ....    SMULL    r1,r0,r1,r0
        0x00016aa6:    10c1        ..      ASRS     r1,r0,#3
        0x00016aa8:    eba170e0    ...p    SUB      r0,r1,r0,ASR #31
        0x00016aac:    f000011f    ....    AND      r1,r0,#0x1f
        0x00016ab0:    fa03f101    ....    LSL      r1,r3,r1
        0x00016ab4:    0940        @.      LSRS     r0,r0,#5
        0x00016ab6:    eb020080    ....    ADD      r0,r2,r0,LSL #2
        0x00016aba:    f000b96a    ..j.    B.W      atomic_or ; 0x16d92
    device_busy_clear
        0x00016abe:    4a0b        .J      LDR      r2,[pc,#44] ; [0x16aec] = 0xc0019f68
        0x00016ac0:    2301        .#      MOVS     r3,#1
        0x00016ac2:    6991        .i      LDR      r1,[r2,#0x18]
        0x00016ac4:    6812        .h      LDR      r2,[r2,#0]
        0x00016ac6:    1a80        ..      SUBS     r0,r0,r2
        0x00016ac8:    4a0e        .J      LDR      r2,[pc,#56] ; [0x16b04] = 0x66666667
        0x00016aca:    fb822000    ...     SMULL    r2,r0,r2,r0
        0x00016ace:    10c2        ..      ASRS     r2,r0,#3
        0x00016ad0:    eba270e0    ...p    SUB      r0,r2,r0,ASR #31
        0x00016ad4:    f000021f    ....    AND      r2,r0,#0x1f
        0x00016ad8:    fa03f202    ....    LSL      r2,r3,r2
        0x00016adc:    0940        @.      LSRS     r0,r0,#5
        0x00016ade:    eb010080    ....    ADD      r0,r1,r0,LSL #2
        0x00016ae2:    43d1        .C      MVNS     r1,r2
        0x00016ae4:    f000b97d    ..}.    B.W      atomic_and ; 0x16de2
    $d
        0x00016ae8:    c001a498    ....    DCD    3221333144
        0x00016aec:    c0019f68    h...    DCD    3221331816
        0x00016af0:    c001a72c    ,...    DCD    3221333804
        0x00016af4:    c001a740    @...    DCD    3221333824
        0x00016af8:    c001a754    T...    DCD    3221333844
        0x00016afc:    00000000    ....    DCD    0
        0x00016b00:    c001d638    8...    DCD    3221345848
        0x00016b04:    66666667    gfff    DCD    1717986919
    $t
    .text
    pinmux_gm_initialize
        0x00016b08:    e92d43f0    -..C    PUSH     {r4-r9,lr}
        0x00016b0c:    b085        ..      SUB      sp,sp,#0x14
        0x00016b0e:    2500        .%      MOVS     r5,#0
        0x00016b10:    a04d        M.      ADR      r0,{pc}+0x138 ; 0x16c48
        0x00016b12:    f7ffff30    ..0.    BL       device_get_binding ; 0x16976
        0x00016b16:    a04e        N.      ADR      r0,{pc}+0x13a ; 0x16c50
        0x00016b18:    f7ffff2d    ..-.    BL       device_get_binding ; 0x16976
        0x00016b1c:    a04e        N.      ADR      r0,{pc}+0x13c ; 0x16c58
        0x00016b1e:    f7ffff2a    ..*.    BL       device_get_binding ; 0x16976
        0x00016b22:    2800        .(      CMP      r0,#0
        0x00016b24:    d02e        ..      BEQ      0x16b84 ; pinmux_gm_initialize + 124
        0x00016b26:    a04e        N.      ADR      r0,{pc}+0x13a ; 0x16c60
        0x00016b28:    f7ffff25    ..%.    BL       device_get_binding ; 0x16976
        0x00016b2c:    0004        ..      MOVS     r4,r0
        0x00016b2e:    bf08        ..      IT       EQ
        0x00016b30:    f04f30ff    O..0    MOVEQ    r0,#0xffffffff
        0x00016b34:    d025        %.      BEQ      0x16b82 ; pinmux_gm_initialize + 122
        0x00016b36:    4a4c        LJ      LDR      r2,[pc,#304] ; [0x16c68] = 0x19b68
        0x00016b38:    2501        .%      MOVS     r5,#1
        0x00016b3a:    f04f0802    O...    MOV      r8,#2
        0x00016b3e:    e9d20602    ....    LDRD     r0,r6,[r2,#8]
        0x00016b42:    6811        .h      LDR      r1,[r2,#0]
        0x00016b44:    6957        Wi      LDR      r7,[r2,#0x14]
        0x00016b46:    fa05f201    ....    LSL      r2,r5,r1
        0x00016b4a:    f04f0900    O...    MOV      r9,#0
        0x00016b4e:    e9cd9002    ....    STRD     r9,r0,[sp,#8]
        0x00016b52:    e9cd2800    ...(    STRD     r2,r8,[sp,#0]
        0x00016b56:    6863        ch      LDR      r3,[r4,#4]
        0x00016b58:    4620         F      MOV      r0,r4
        0x00016b5a:    466a        jF      MOV      r2,sp
        0x00016b5c:    681b        .h      LDR      r3,[r3,#0]
        0x00016b5e:    4798        .G      BLX      r3
        0x00016b60:    b978        x.      CBNZ     r0,0x16b82 ; pinmux_gm_initialize + 122
        0x00016b62:    fa05f006    ....    LSL      r0,r5,r6
        0x00016b66:    e9cd0800    ....    STRD     r0,r8,[sp,#0]
        0x00016b6a:    e9cd9702    ....    STRD     r9,r7,[sp,#8]
        0x00016b6e:    6863        ch      LDR      r3,[r4,#4]
        0x00016b70:    464d        MF      MOV      r5,r9
        0x00016b72:    4620         F      MOV      r0,r4
        0x00016b74:    681b        .h      LDR      r3,[r3,#0]
        0x00016b76:    4631        1F      MOV      r1,r6
        0x00016b78:    466a        jF      MOV      r2,sp
        0x00016b7a:    4798        .G      BLX      r3
        0x00016b7c:    2800        .(      CMP      r0,#0
        0x00016b7e:    bf08        ..      IT       EQ
        0x00016b80:    4628        (F      MOVEQ    r0,r5
        0x00016b82:    4605        .F      MOV      r5,r0
        0x00016b84:    a034        4.      ADR      r0,{pc}+0xd4 ; 0x16c58
        0x00016b86:    f7fffef6    ....    BL       device_get_binding ; 0x16976
        0x00016b8a:    2800        .(      CMP      r0,#0
        0x00016b8c:    bf18        ..      IT       NE
        0x00016b8e:    2500        .%      MOVNE    r5,#0
        0x00016b90:    4628        (F      MOV      r0,r5
        0x00016b92:    b005        ..      ADD      sp,sp,#0x14
        0x00016b94:    e8bd83f0    ....    POP      {r4-r9,pc}
    gm_pinmux_pm_control
        0x00016b98:    e92d47f0    -..G    PUSH     {r4-r10,lr}
        0x00016b9c:    2700        .'      MOVS     r7,#0
        0x00016b9e:    4b33        3K      LDR      r3,[pc,#204] ; [0x16c6c] = 0xc0019f88
        0x00016ba0:    b086        ..      SUB      sp,sp,#0x18
        0x00016ba2:    2901        .)      CMP      r1,#1
        0x00016ba4:    d007        ..      BEQ      0x16bb6 ; gm_pinmux_pm_control + 30
        0x00016ba6:    2902        .)      CMP      r1,#2
        0x00016ba8:    bf01        ..      ITTTT    EQ
        0x00016baa:    6818        .h      LDREQ    r0,[r3,#0]
        0x00016bac:    6010        .`      STREQ    r0,[r2,#0]
        0x00016bae:    b006        ..      ADDEQ    sp,sp,#0x18
        0x00016bb0:    e8bd87f0    ....    POPEQ    {r4-r10,pc}
        0x00016bb4:    e044        D.      B        0x16c40 ; gm_pinmux_pm_control + 168
        0x00016bb6:    6810        .h      LDR      r0,[r2,#0]
        0x00016bb8:    6018        .`      STR      r0,[r3,#0]
        0x00016bba:    2801        .(      CMP      r0,#1
        0x00016bbc:    d00b        ..      BEQ      0x16bd6 ; gm_pinmux_pm_control + 62
        0x00016bbe:    2802        .(      CMP      r0,#2
        0x00016bc0:    bf18        ..      IT       NE
        0x00016bc2:    2803        .(      CMPNE    r0,#3
        0x00016bc4:    d03c        <.      BEQ      0x16c40 ; gm_pinmux_pm_control + 168
        0x00016bc6:    2804        .(      CMP      r0,#4
        0x00016bc8:    bf18        ..      IT       NE
        0x00016bca:    f06f0015    o...    MVNNE    r0,#0x15
        0x00016bce:    d037        7.      BEQ      0x16c40 ; gm_pinmux_pm_control + 168
        0x00016bd0:    b006        ..      ADD      sp,sp,#0x18
        0x00016bd2:    e8bd87f0    ....    POP      {r4-r10,pc}
        0x00016bd6:    a01c        ..      ADR      r0,{pc}+0x72 ; 0x16c48
        0x00016bd8:    f7fffecd    ....    BL       device_get_binding ; 0x16976
        0x00016bdc:    a01c        ..      ADR      r0,{pc}+0x74 ; 0x16c50
        0x00016bde:    f7fffeca    ....    BL       device_get_binding ; 0x16976
        0x00016be2:    a01d        ..      ADR      r0,{pc}+0x76 ; 0x16c58
        0x00016be4:    f7fffec7    ....    BL       device_get_binding ; 0x16976
        0x00016be8:    b338        8.      CBZ      r0,0x16c3a ; gm_pinmux_pm_control + 162
        0x00016bea:    a01d        ..      ADR      r0,{pc}+0x76 ; 0x16c60
        0x00016bec:    f7fffec3    ....    BL       device_get_binding ; 0x16976
        0x00016bf0:    0004        ..      MOVS     r4,r0
        0x00016bf2:    d022        ".      BEQ      0x16c3a ; gm_pinmux_pm_control + 162
        0x00016bf4:    4a1c        .J      LDR      r2,[pc,#112] ; [0x16c68] = 0x19b68
        0x00016bf6:    f04f0901    O...    MOV      r9,#1
        0x00016bfa:    f04f0a02    O...    MOV      r10,#2
        0x00016bfe:    e9d20502    ....    LDRD     r0,r5,[r2,#8]
        0x00016c02:    6811        .h      LDR      r1,[r2,#0]
        0x00016c04:    f8d28014    ....    LDR      r8,[r2,#0x14]
        0x00016c08:    fa09f201    ....    LSL      r2,r9,r1
        0x00016c0c:    2600        .&      MOVS     r6,#0
        0x00016c0e:    e9cd6002    ...`    STRD     r6,r0,[sp,#8]
        0x00016c12:    e9cd2a00    ...*    STRD     r2,r10,[sp,#0]
        0x00016c16:    6863        ch      LDR      r3,[r4,#4]
        0x00016c18:    4620         F      MOV      r0,r4
        0x00016c1a:    466a        jF      MOV      r2,sp
        0x00016c1c:    681b        .h      LDR      r3,[r3,#0]
        0x00016c1e:    4798        .G      BLX      r3
        0x00016c20:    b958        X.      CBNZ     r0,0x16c3a ; gm_pinmux_pm_control + 162
        0x00016c22:    fa09f005    ....    LSL      r0,r9,r5
        0x00016c26:    e9cd0a00    ....    STRD     r0,r10,[sp,#0]
        0x00016c2a:    e9cd6802    ...h    STRD     r6,r8,[sp,#8]
        0x00016c2e:    6863        ch      LDR      r3,[r4,#4]
        0x00016c30:    4620         F      MOV      r0,r4
        0x00016c32:    4629        )F      MOV      r1,r5
        0x00016c34:    681b        .h      LDR      r3,[r3,#0]
        0x00016c36:    466a        jF      MOV      r2,sp
        0x00016c38:    4798        .G      BLX      r3
        0x00016c3a:    a007        ..      ADR      r0,{pc}+0x1e ; 0x16c58
        0x00016c3c:    f7fffe9b    ....    BL       device_get_binding ; 0x16976
        0x00016c40:    b006        ..      ADD      sp,sp,#0x18
        0x00016c42:    4638        8F      MOV      r0,r7
        0x00016c44:    e8bd87f0    ....    POP      {r4-r10,pc}
    $d
        0x00016c48:    74726f70    port    DCD    1953656688
        0x00016c4c:    0000006a    j...    DCD    106
        0x00016c50:    74726f70    port    DCD    1953656688
        0x00016c54:    0000006b    k...    DCD    107
        0x00016c58:    74726f70    port    DCD    1953656688
        0x00016c5c:    00000065    e...    DCD    101
        0x00016c60:    74726f70    port    DCD    1953656688
        0x00016c64:    00000062    b...    DCD    98
        0x00016c68:    00019b68    h...    DCD    105320
        0x00016c6c:    c0019f88    ....    DCD    3221331848
    $t
    .text
    atomic_cas
        0x00016c70:    b530        0.      PUSH     {r4,r5,lr}
        0x00016c72:    4604        .F      MOV      r4,r0
        0x00016c74:    2000        .       MOVS     r0,#0
        0x00016c76:    2520         %      MOVS     r5,#0x20
        0x00016c78:    f3ef8311    ....    MRS      r3,BASEPRI
        0x00016c7c:    f3858811    ....    MSR      BASEPRI,r5
        0x00016c80:    f3bf8f4f    ..O.    DSB      
        0x00016c84:    f3bf8f6f    ..o.    ISB      
        0x00016c88:    6825        %h      LDR      r5,[r4,#0]
        0x00016c8a:    428d        .B      CMP      r5,r1
        0x00016c8c:    d101        ..      BNE      0x16c92 ; atomic_cas + 34
        0x00016c8e:    2001        .       MOVS     r0,#1
        0x00016c90:    6022        "`      STR      r2,[r4,#0]
        0x00016c92:    f3838811    ....    MSR      BASEPRI,r3
        0x00016c96:    f3bf8f4f    ..O.    DSB      
        0x00016c9a:    f3bf8f6f    ..o.    ISB      
        0x00016c9e:    bd30        0.      POP      {r4,r5,pc}
    atomic_add
        0x00016ca0:    4603        .F      MOV      r3,r0
        0x00016ca2:    2020                MOVS     r0,#0x20
        0x00016ca4:    f3ef8211    ....    MRS      r2,BASEPRI
        0x00016ca8:    f3808811    ....    MSR      BASEPRI,r0
        0x00016cac:    f3bf8f4f    ..O.    DSB      
        0x00016cb0:    f3bf8f6f    ..o.    ISB      
        0x00016cb4:    6818        .h      LDR      r0,[r3,#0]
        0x00016cb6:    4401        .D      ADD      r1,r1,r0
        0x00016cb8:    6019        .`      STR      r1,[r3,#0]
        0x00016cba:    f3828811    ....    MSR      BASEPRI,r2
        0x00016cbe:    f3bf8f4f    ..O.    DSB      
        0x00016cc2:    f3bf8f6f    ..o.    ISB      
        0x00016cc6:    4770        pG      BX       lr
    atomic_sub
        0x00016cc8:    4603        .F      MOV      r3,r0
        0x00016cca:    2020                MOVS     r0,#0x20
        0x00016ccc:    f3ef8211    ....    MRS      r2,BASEPRI
        0x00016cd0:    f3808811    ....    MSR      BASEPRI,r0
        0x00016cd4:    f3bf8f4f    ..O.    DSB      
        0x00016cd8:    f3bf8f6f    ..o.    ISB      
        0x00016cdc:    6818        .h      LDR      r0,[r3,#0]
        0x00016cde:    1a41        A.      SUBS     r1,r0,r1
        0x00016ce0:    6019        .`      STR      r1,[r3,#0]
        0x00016ce2:    f3828811    ....    MSR      BASEPRI,r2
        0x00016ce6:    f3bf8f4f    ..O.    DSB      
        0x00016cea:    f3bf8f6f    ..o.    ISB      
        0x00016cee:    4770        pG      BX       lr
    atomic_inc
        0x00016cf0:    4602        .F      MOV      r2,r0
        0x00016cf2:    2020                MOVS     r0,#0x20
        0x00016cf4:    f3ef8111    ....    MRS      r1,BASEPRI
        0x00016cf8:    f3808811    ....    MSR      BASEPRI,r0
        0x00016cfc:    f3bf8f4f    ..O.    DSB      
        0x00016d00:    f3bf8f6f    ..o.    ISB      
        0x00016d04:    6810        .h      LDR      r0,[r2,#0]
        0x00016d06:    1c43        C.      ADDS     r3,r0,#1
        0x00016d08:    6013        .`      STR      r3,[r2,#0]
        0x00016d0a:    f3818811    ....    MSR      BASEPRI,r1
        0x00016d0e:    f3bf8f4f    ..O.    DSB      
        0x00016d12:    f3bf8f6f    ..o.    ISB      
        0x00016d16:    4770        pG      BX       lr
    atomic_dec
        0x00016d18:    4602        .F      MOV      r2,r0
        0x00016d1a:    2020                MOVS     r0,#0x20
        0x00016d1c:    f3ef8111    ....    MRS      r1,BASEPRI
        0x00016d20:    f3808811    ....    MSR      BASEPRI,r0
        0x00016d24:    f3bf8f4f    ..O.    DSB      
        0x00016d28:    f3bf8f6f    ..o.    ISB      
        0x00016d2c:    6810        .h      LDR      r0,[r2,#0]
        0x00016d2e:    1e43        C.      SUBS     r3,r0,#1
        0x00016d30:    6013        .`      STR      r3,[r2,#0]
        0x00016d32:    f3818811    ....    MSR      BASEPRI,r1
        0x00016d36:    f3bf8f4f    ..O.    DSB      
        0x00016d3a:    f3bf8f6f    ..o.    ISB      
        0x00016d3e:    4770        pG      BX       lr
    atomic_get
        0x00016d40:    6800        .h      LDR      r0,[r0,#0]
        0x00016d42:    4770        pG      BX       lr
    atomic_set
        0x00016d44:    2320         #      MOVS     r3,#0x20
        0x00016d46:    f3ef8211    ....    MRS      r2,BASEPRI
        0x00016d4a:    f3838811    ....    MSR      BASEPRI,r3
        0x00016d4e:    f3bf8f4f    ..O.    DSB      
        0x00016d52:    f3bf8f6f    ..o.    ISB      
        0x00016d56:    6803        .h      LDR      r3,[r0,#0]
        0x00016d58:    6001        .`      STR      r1,[r0,#0]
        0x00016d5a:    f3828811    ....    MSR      BASEPRI,r2
        0x00016d5e:    f3bf8f4f    ..O.    DSB      
        0x00016d62:    f3bf8f6f    ..o.    ISB      
        0x00016d66:    4618        .F      MOV      r0,r3
        0x00016d68:    4770        pG      BX       lr
    atomic_clear
        0x00016d6a:    2220         "      MOVS     r2,#0x20
        0x00016d6c:    f3ef8111    ....    MRS      r1,BASEPRI
        0x00016d70:    f3828811    ....    MSR      BASEPRI,r2
        0x00016d74:    f3bf8f4f    ..O.    DSB      
        0x00016d78:    f3bf8f6f    ..o.    ISB      
        0x00016d7c:    2300        .#      MOVS     r3,#0
        0x00016d7e:    6802        .h      LDR      r2,[r0,#0]
        0x00016d80:    6003        .`      STR      r3,[r0,#0]
        0x00016d82:    f3818811    ....    MSR      BASEPRI,r1
        0x00016d86:    f3bf8f4f    ..O.    DSB      
        0x00016d8a:    f3bf8f6f    ..o.    ISB      
        0x00016d8e:    4610        .F      MOV      r0,r2
        0x00016d90:    4770        pG      BX       lr
    atomic_or
        0x00016d92:    4603        .F      MOV      r3,r0
        0x00016d94:    2020                MOVS     r0,#0x20
        0x00016d96:    f3ef8211    ....    MRS      r2,BASEPRI
        0x00016d9a:    f3808811    ....    MSR      BASEPRI,r0
        0x00016d9e:    f3bf8f4f    ..O.    DSB      
        0x00016da2:    f3bf8f6f    ..o.    ISB      
        0x00016da6:    6818        .h      LDR      r0,[r3,#0]
        0x00016da8:    4301        .C      ORRS     r1,r1,r0
        0x00016daa:    6019        .`      STR      r1,[r3,#0]
        0x00016dac:    f3828811    ....    MSR      BASEPRI,r2
        0x00016db0:    f3bf8f4f    ..O.    DSB      
        0x00016db4:    f3bf8f6f    ..o.    ISB      
        0x00016db8:    4770        pG      BX       lr
    atomic_xor
        0x00016dba:    4603        .F      MOV      r3,r0
        0x00016dbc:    2020                MOVS     r0,#0x20
        0x00016dbe:    f3ef8211    ....    MRS      r2,BASEPRI
        0x00016dc2:    f3808811    ....    MSR      BASEPRI,r0
        0x00016dc6:    f3bf8f4f    ..O.    DSB      
        0x00016dca:    f3bf8f6f    ..o.    ISB      
        0x00016dce:    6818        .h      LDR      r0,[r3,#0]
        0x00016dd0:    4041        A@      EORS     r1,r1,r0
        0x00016dd2:    6019        .`      STR      r1,[r3,#0]
        0x00016dd4:    f3828811    ....    MSR      BASEPRI,r2
        0x00016dd8:    f3bf8f4f    ..O.    DSB      
        0x00016ddc:    f3bf8f6f    ..o.    ISB      
        0x00016de0:    4770        pG      BX       lr
    atomic_and
        0x00016de2:    4603        .F      MOV      r3,r0
        0x00016de4:    2020                MOVS     r0,#0x20
        0x00016de6:    f3ef8211    ....    MRS      r2,BASEPRI
        0x00016dea:    f3808811    ....    MSR      BASEPRI,r0
        0x00016dee:    f3bf8f4f    ..O.    DSB      
        0x00016df2:    f3bf8f6f    ..o.    ISB      
        0x00016df6:    6818        .h      LDR      r0,[r3,#0]
        0x00016df8:    4001        .@      ANDS     r1,r1,r0
        0x00016dfa:    6019        .`      STR      r1,[r3,#0]
        0x00016dfc:    f3828811    ....    MSR      BASEPRI,r2
        0x00016e00:    f3bf8f4f    ..O.    DSB      
        0x00016e04:    f3bf8f6f    ..o.    ISB      
        0x00016e08:    4770        pG      BX       lr
    atomic_nand
        0x00016e0a:    4603        .F      MOV      r3,r0
        0x00016e0c:    2020                MOVS     r0,#0x20
        0x00016e0e:    f3ef8211    ....    MRS      r2,BASEPRI
        0x00016e12:    f3808811    ....    MSR      BASEPRI,r0
        0x00016e16:    f3bf8f4f    ..O.    DSB      
        0x00016e1a:    f3bf8f6f    ..o.    ISB      
        0x00016e1e:    6818        .h      LDR      r0,[r3,#0]
        0x00016e20:    4001        .@      ANDS     r1,r1,r0
        0x00016e22:    43c9        .C      MVNS     r1,r1
        0x00016e24:    6019        .`      STR      r1,[r3,#0]
        0x00016e26:    f3828811    ....    MSR      BASEPRI,r2
        0x00016e2a:    f3bf8f4f    ..O.    DSB      
        0x00016e2e:    f3bf8f6f    ..o.    ISB      
        0x00016e32:    4770        pG      BX       lr
    .text
    k_call_stacks_analyze
        0x00016e34:    4770        pG      BX       lr
    _bss_zero
        0x00016e36:    495f        _I      LDR      r1,[pc,#380] ; [0x16fb4] = 0xc0019f8c
        0x00016e38:    4a5f        _J      LDR      r2,[pc,#380] ; [0x16fb8] = 0xc001d79c
        0x00016e3a:    485d        ]H      LDR      r0,[pc,#372] ; [0x16fb0] = 0xc001ada0
        0x00016e3c:    e9c10200    ....    STRD     r0,r2,[r1,#0]
        0x00016e40:    1a11        ..      SUBS     r1,r2,r0
        0x00016e42:    f002bb6b    ..k.    B.W      __aeabi_memclr ; 0x1951c
    bg_thread_main
        0x00016e46:    b510        ..      PUSH     {r4,lr}
        0x00016e48:    2002        .       MOVS     r0,#2
        0x00016e4a:    f7fffd6b    ..k.    BL       _sys_device_do_config_level ; 0x16924
        0x00016e4e:    4859        YH      LDR      r0,[pc,#356] ; [0x16fb4] = 0xc0019f8c
        0x00016e50:    6880        .h      LDR      r0,[r0,#8]
        0x00016e52:    b128        (.      CBZ      r0,0x16e60 ; bg_thread_main + 26
        0x00016e54:    a059        Y.      ADR      r0,{pc}+0x168 ; 0x16fbc
        0x00016e56:    f000ff91    ....    BL       printk ; 0x17d7c
        0x00016e5a:    2000        .       MOVS     r0,#0
        0x00016e5c:    f000fabc    ....    BL       k_busy_wait ; 0x173d8
        0x00016e60:    a065        e.      ADR      r0,{pc}+0x198 ; 0x16ff8
        0x00016e62:    f000ff8b    ....    BL       printk ; 0x17d7c
        0x00016e66:    2003        .       MOVS     r0,#3
        0x00016e68:    f7fffd5c    ..\.    BL       _sys_device_do_config_level ; 0x16924
        0x00016e6c:    f000fb99    ....    BL       _init_static_threads ; 0x175a2
        0x00016e70:    f7f9f990    ....    BL       main ; 0x10194
        0x00016e74:    486a        jH      LDR      r0,[pc,#424] ; [0x17020] = 0x19b80
        0x00016e76:    6801        .h      LDR      r1,[r0,#0]
        0x00016e78:    6800        .h      LDR      r0,[r0,#0]
        0x00016e7a:    7a09        .z      LDRB     r1,[r1,#8]
        0x00016e7c:    f0210101    !...    BIC      r1,r1,#1
        0x00016e80:    7201        .r      STRB     r1,[r0,#8]
        0x00016e82:    bd10        ..      POP      {r4,pc}
    prepare_multithreading
        0x00016e84:    e92d41f0    -..A    PUSH     {r4-r8,lr}
        0x00016e88:    b086        ..      SUB      sp,sp,#0x18
        0x00016e8a:    f7fff963    ..c.    BL       _sched_init ; 0x16154
        0x00016e8e:    4d64        dM      LDR      r5,[pc,#400] ; [0x17020] = 0x19b80
        0x00016e90:    f8df8190    ....    LDR      r8,[pc,#400] ; [0x17024] = 0xc001d458
        0x00016e94:    2400        .$      MOVS     r4,#0
        0x00016e96:    6829        )h      LDR      r1,[r5,#0]
        0x00016e98:    f8c8101c    ....    STR      r1,[r8,#0x1c]
        0x00016e9c:    2701        .'      MOVS     r7,#1
        0x00016e9e:    9401        ..      STR      r4,[sp,#4]
        0x00016ea0:    9402        ..      STR      r4,[sp,#8]
        0x00016ea2:    e9cd4703    ...G    STRD     r4,r7,[sp,#0xc]
        0x00016ea6:    9400        ..      STR      r4,[sp,#0]
        0x00016ea8:    4b5f        _K      LDR      r3,[pc,#380] ; [0x17028] = 0x16e47
        0x00016eaa:    033a        :.      LSLS     r2,r7,#12
        0x00016eac:    495f        _I      LDR      r1,[pc,#380] ; [0x1702c] = 0xc001e208
        0x00016eae:    6828        (h      LDR      r0,[r5,#0]
        0x00016eb0:    f000fac2    ....    BL       _setup_new_thread ; 0x17438
        0x00016eb4:    6828        (h      LDR      r0,[r5,#0]
        0x00016eb6:    7a41        Az      LDRB     r1,[r0,#9]
        0x00016eb8:    f0210104    !...    BIC      r1,r1,#4
        0x00016ebc:    7241        Ar      STRB     r1,[r0,#9]
        0x00016ebe:    6828        (h      LDR      r0,[r5,#0]
        0x00016ec0:    f0110f1f    ....    TST      r1,#0x1f
        0x00016ec4:    d104        ..      BNE      0x16ed0 ; prepare_multithreading + 76
        0x00016ec6:    6a41        Aj      LDR      r1,[r0,#0x24]
        0x00016ec8:    1c49        I.      ADDS     r1,r1,#1
        0x00016eca:    d101        ..      BNE      0x16ed0 ; prepare_multithreading + 76
        0x00016ecc:    f7fefd63    ..c.    BL       _add_thread_to_ready_q ; 0x15996
        0x00016ed0:    686e        nh      LDR      r6,[r5,#4]
        0x00016ed2:    200f        .       MOVS     r0,#0xf
        0x00016ed4:    e9cd4002    ...@    STRD     r4,r0,[sp,#8]
        0x00016ed8:    4955        UI      LDR      r1,[pc,#340] ; [0x17030] = 0xc001f208
        0x00016eda:    9704        ..      STR      r7,[sp,#0x10]
        0x00016edc:    9401        ..      STR      r4,[sp,#4]
        0x00016ede:    4b55        UK      LDR      r3,[pc,#340] ; [0x17034] = 0x18c0f
        0x00016ee0:    f44f6200    O..b    MOV      r2,#0x800
        0x00016ee4:    4630        0F      MOV      r0,r6
        0x00016ee6:    9400        ..      STR      r4,[sp,#0]
        0x00016ee8:    f000faa6    ....    BL       _setup_new_thread ; 0x17438
        0x00016eec:    7a70        pz      LDRB     r0,[r6,#9]
        0x00016eee:    f0200004     ...    BIC      r0,r0,#4
        0x00016ef2:    7270        pr      STRB     r0,[r6,#9]
        0x00016ef4:    484b        KH      LDR      r0,[pc,#300] ; [0x17024] = 0xc001d458
        0x00016ef6:    6869        ih      LDR      r1,[r5,#4]
        0x00016ef8:    3014        .0      ADDS     r0,r0,#0x14
        0x00016efa:    f8c8100c    ....    STR      r1,[r8,#0xc]
        0x00016efe:    6000        .`      STR      r0,[r0,#0]
        0x00016f00:    6040        @`      STR      r0,[r0,#4]
        0x00016f02:    b006        ..      ADD      sp,sp,#0x18
        0x00016f04:    e8bd81f0    ....    POP      {r4-r8,pc}
    z_early_boot_rand32_get
        0x00016f08:    f002ba34    ..4.    B.W      sys_rand32_get ; 0x19374
    _Cstart
        0x00016f0c:    2400        .$      MOVS     r4,#0
        0x00016f0e:    f001fed5    ....    BL       _IntLibInit ; 0x18cbc
        0x00016f12:    4949        II      LDR      r1,[pc,#292] ; [0x17038] = 0xc001fe08
        0x00016f14:    f3818808    ....    MSR      MSP,r1
        0x00016f18:    21ff        .!      MOVS     r1,#0xff
        0x00016f1a:    1ea0        ..      SUBS     r0,r4,#2
        0x00016f1c:    f000f837    ..7.    BL       __NVIC_SetPriority ; 0x16f8e
        0x00016f20:    2100        .!      MOVS     r1,#0
        0x00016f22:    1f48        H.      SUBS     r0,r1,#5
        0x00016f24:    f000f833    ..3.    BL       __NVIC_SetPriority ; 0x16f8e
        0x00016f28:    2100        .!      MOVS     r1,#0
        0x00016f2a:    f06f000b    o...    MVN      r0,#0xb
        0x00016f2e:    f000f82e    ....    BL       __NVIC_SetPriority ; 0x16f8e
        0x00016f32:    2100        .!      MOVS     r1,#0
        0x00016f34:    f06f000a    o...    MVN      r0,#0xa
        0x00016f38:    f000f829    ..).    BL       __NVIC_SetPriority ; 0x16f8e
        0x00016f3c:    2100        .!      MOVS     r1,#0
        0x00016f3e:    f06f0009    o...    MVN      r0,#9
        0x00016f42:    f000f824    ..$.    BL       __NVIC_SetPriority ; 0x16f8e
        0x00016f46:    483d        =H      LDR      r0,[pc,#244] ; [0x1703c] = 0xe000ed24
        0x00016f48:    6801        .h      LDR      r1,[r0,#0]
        0x00016f4a:    f44121e0    A..!    ORR      r1,r1,#0x70000
        0x00016f4e:    6001        .`      STR      r1,[r0,#0]
        0x00016f50:    f001ff79    ..y.    BL       _FaultInit ; 0x18e46
        0x00016f54:    f002f9f2    ....    BL       _CpuIdleInit ; 0x1933c
        0x00016f58:    2000        .       MOVS     r0,#0
        0x00016f5a:    f7fffce3    ....    BL       _sys_device_do_config_level ; 0x16924
        0x00016f5e:    2001        .       MOVS     r0,#1
        0x00016f60:    f7fffce0    ....    BL       _sys_device_do_config_level ; 0x16924
        0x00016f64:    4620         F      MOV      r0,r4
        0x00016f66:    f7ffff8d    ....    BL       prepare_multithreading ; 0x16e84
        0x00016f6a:    482d        -H      LDR      r0,[pc,#180] ; [0x17020] = 0x19b80
        0x00016f6c:    4b2d        -K      LDR      r3,[pc,#180] ; [0x17024] = 0xc001d458
        0x00016f6e:    4934        4I      LDR      r1,[pc,#208] ; [0x17040] = 0xc001f208
        0x00016f70:    6802        .h      LDR      r2,[r0,#0]
        0x00016f72:    482d        -H      LDR      r0,[pc,#180] ; [0x17028] = 0x16e47
        0x00016f74:    f0210107    !...    BIC      r1,r1,#7
        0x00016f78:    609a        .`      STR      r2,[r3,#8]
        0x00016f7a:    f3818809    ....    MSR      PSP,r1
        0x00016f7e:    2100        .!      MOVS     r1,#0
        0x00016f80:    f3818811    ....    MSR      BASEPRI,r1
        0x00016f84:    2300        .#      MOVS     r3,#0
        0x00016f86:    461a        .F      MOV      r2,r3
        0x00016f88:    4619        .F      MOV      r1,r3
        0x00016f8a:    f001fe4d    ..M.    BL       _thread_entry ; 0x18c28
    __NVIC_SetPriority
        0x00016f8e:    0749        I.      LSLS     r1,r1,#29
        0x00016f90:    0e09        ..      LSRS     r1,r1,#24
        0x00016f92:    2800        .(      CMP      r0,#0
        0x00016f94:    db04        ..      BLT      0x16fa0 ; __NVIC_SetPriority + 18
        0x00016f96:    f10020e0    ...     ADD      r0,r0,#0xe000e000
        0x00016f9a:    f8801400    ....    STRB     r1,[r0,#0x400]
        0x00016f9e:    4770        pG      BX       lr
        0x00016fa0:    f000000f    ....    AND      r0,r0,#0xf
        0x00016fa4:    f10020e0    ...     ADD      r0,r0,#0xe000e000
        0x00016fa8:    f8801d14    ....    STRB     r1,[r0,#0xd14]
        0x00016fac:    4770        pG      BX       lr
    $d
        0x00016fae:    0000        ..      DCW    0
        0x00016fb0:    c001ada0    ....    DCD    3221335456
        0x00016fb4:    c0019f8c    ....    DCD    3221331852
        0x00016fb8:    c001d79c    ....    DCD    3221346204
        0x00016fbc:    2a2a2a2a    ****    DCD    707406378
        0x00016fc0:    6564202a    * de    DCD    1701060650
        0x00016fc4:    6979616c    layi    DCD    1769562476
        0x00016fc8:    6220676e    ng b    DCD    1646290798
        0x00016fcc:    20746f6f    oot     DCD    544501615
        0x00016fd0:    20736d30    0ms     DCD    544435504
        0x00016fd4:    72657028    (per    DCD    1919250472
        0x00016fd8:    69756220     bui    DCD    1769300512
        0x00016fdc:    6320646c    ld c    DCD    1663067244
        0x00016fe0:    69666e6f    onfi    DCD    1768320623
        0x00016fe4:    61727567    gura    DCD    1634891111
        0x00016fe8:    6e6f6974    tion    DCD    1852795252
        0x00016fec:    2a2a2029    ) **    DCD    707403817
        0x00016ff0:    0a2a2a2a    ***.    DCD    170535466
        0x00016ff4:    00000000    ....    DCD    0
        0x00016ff8:    2a2a2a2a    ****    DCD    707406378
        0x00016ffc:    6f42202a    * Bo    DCD    1866604586
        0x00017000:    6e69746f    otin    DCD    1852404847
        0x00017004:    47752067    g uG    DCD    1198858343
        0x00017008:    73696c65    elis    DCD    1936288869
        0x0001700c:    20534f20     OS     DCD    542330656
        0x00017010:    32312e31    1.12    DCD    842083889
        0x00017014:    2039392e    .99     DCD    540621102
        0x00017018:    2a2a2a2a    ****    DCD    707406378
        0x0001701c:    00000a2a    *...    DCD    2602
        0x00017020:    00019b80    ....    DCD    105344
        0x00017024:    c001d458    X...    DCD    3221345368
        0x00017028:    00016e47    Gn..    DCD    93767
        0x0001702c:    c001e208    ....    DCD    3221348872
        0x00017030:    c001f208    ....    DCD    3221352968
        0x00017034:    00018c0f    ....    DCD    101391
        0x00017038:    c001fe08    ....    DCD    3221356040
        0x0001703c:    e000ed24    $...    DCD    3758157092
        0x00017040:    c001f208    ....    DCD    3221352968
    $t
    .text
    _tick_get
    sys_tick_get
        0x00017044:    2020                MOVS     r0,#0x20
        0x00017046:    f3ef8211    ....    MRS      r2,BASEPRI
        0x0001704a:    f3808811    ....    MSR      BASEPRI,r0
        0x0001704e:    f3bf8f4f    ..O.    DSB      
        0x00017052:    f3bf8f6f    ..o.    ISB      
        0x00017056:    49ae        .I      LDR      r1,[pc,#696] ; [0x17310] = 0xc0019fa0
        0x00017058:    6908        .i      LDR      r0,[r1,#0x10]
        0x0001705a:    6949        Ii      LDR      r1,[r1,#0x14]
        0x0001705c:    f3828811    ....    MSR      BASEPRI,r2
        0x00017060:    f3bf8f4f    ..O.    DSB      
        0x00017064:    f3bf8f6f    ..o.    ISB      
        0x00017068:    4770        pG      BX       lr
    _tick_get_32
    sys_tick_get_32
        0x0001706a:    49a9        .I      LDR      r1,[pc,#676] ; [0x17310] = 0xc0019fa0
        0x0001706c:    6908        .i      LDR      r0,[r1,#0x10]
        0x0001706e:    6949        Ii      LDR      r1,[r1,#0x14]
        0x00017070:    4770        pG      BX       lr
    _impl_k_uptime_get_32
        0x00017072:    b510        ..      PUSH     {r4,lr}
        0x00017074:    f7fffff9    ....    BL       _tick_get_32 ; 0x1706a
        0x00017078:    2100        .!      MOVS     r1,#0
        0x0001707a:    f000f83d    ..=.    BL       __ticks_to_ms ; 0x170f8
        0x0001707e:    bd10        ..      POP      {r4,pc}
    _impl_k_uptime_get
        0x00017080:    b510        ..      PUSH     {r4,lr}
        0x00017082:    f7ffffdf    ....    BL       _tick_get ; 0x17044
        0x00017086:    e8bd4010    ...@    POP      {r4,lr}
        0x0001708a:    f000b835    ..5.    B.W      __ticks_to_ms ; 0x170f8
    k_uptime_delta
        0x0001708e:    b570        p.      PUSH     {r4-r6,lr}
        0x00017090:    4604        .F      MOV      r4,r0
        0x00017092:    f7ffffd7    ....    BL       _tick_get ; 0x17044
        0x00017096:    f000f82f    ../.    BL       __ticks_to_ms ; 0x170f8
        0x0001709a:    e9d43500    ...5    LDRD     r3,r5,[r4,#0]
        0x0001709e:    460a        .F      MOV      r2,r1
        0x000170a0:    e9c40200    ....    STRD     r0,r2,[r4,#0]
        0x000170a4:    1ac3        ..      SUBS     r3,r0,r3
        0x000170a6:    eb610105    a...    SBC      r1,r1,r5
        0x000170aa:    4618        .F      MOV      r0,r3
        0x000170ac:    bd70        p.      POP      {r4-r6,pc}
    k_uptime_delta_32
        0x000170ae:    b510        ..      PUSH     {r4,lr}
        0x000170b0:    f7ffffed    ....    BL       k_uptime_delta ; 0x1708e
        0x000170b4:    bd10        ..      POP      {r4,pc}
    _nano_sys_clock_tick_announce
        0x000170b6:    b570        p.      PUSH     {r4-r6,lr}
        0x000170b8:    4604        .F      MOV      r4,r0
        0x000170ba:    2020                MOVS     r0,#0x20
        0x000170bc:    f3ef8111    ....    MRS      r1,BASEPRI
        0x000170c0:    f3808811    ....    MSR      BASEPRI,r0
        0x000170c4:    f3bf8f4f    ..O.    DSB      
        0x000170c8:    f3bf8f6f    ..o.    ISB      
        0x000170cc:    4a90        .J      LDR      r2,[pc,#576] ; [0x17310] = 0xc0019fa0
        0x000170ce:    6915        .i      LDR      r5,[r2,#0x10]
        0x000170d0:    6950        Pi      LDR      r0,[r2,#0x14]
        0x000170d2:    192d        -.      ADDS     r5,r5,r4
        0x000170d4:    eb4070e4    @..p    ADC      r0,r0,r4,ASR #31
        0x000170d8:    6115        .a      STR      r5,[r2,#0x10]
        0x000170da:    6150        Pa      STR      r0,[r2,#0x14]
        0x000170dc:    f3818811    ....    MSR      BASEPRI,r1
        0x000170e0:    f3bf8f4f    ..O.    DSB      
        0x000170e4:    f3bf8f6f    ..o.    ISB      
        0x000170e8:    4620         F      MOV      r0,r4
        0x000170ea:    f000f810    ....    BL       handle_timeouts ; 0x1710e
        0x000170ee:    4620         F      MOV      r0,r4
        0x000170f0:    e8bd4070    ..p@    POP      {r4-r6,lr}
        0x000170f4:    f000b86e    ..n.    B.W      handle_time_slicing ; 0x171d4
    __ticks_to_ms
        0x000170f8:    b530        0.      PUSH     {r4,r5,lr}
        0x000170fa:    2401        .$      MOVS     r4,#1
        0x000170fc:    4602        .F      MOV      r2,r0
        0x000170fe:    fba20504    ....    UMULL    r0,r5,r2,r4
        0x00017102:    fb015104    ...Q    MLA      r1,r1,r4,r5
        0x00017106:    2300        .#      MOVS     r3,#0
        0x00017108:    fb021103    ....    MLA      r1,r2,r3,r1
        0x0001710c:    bd30        0.      POP      {r4,r5,pc}
    handle_timeouts
        0x0001710e:    e92d47fc    -..G    PUSH     {r2-r10,lr}
        0x00017112:    4606        .F      MOV      r6,r0
        0x00017114:    f8cdd000    ....    STR      sp,[sp,#0]
        0x00017118:    f8cdd004    ....    STR      sp,[sp,#4]
        0x0001711c:    2020                MOVS     r0,#0x20
        0x0001711e:    f3ef8511    ....    MRS      r5,BASEPRI
        0x00017122:    f3808811    ....    MSR      BASEPRI,r0
        0x00017126:    f3bf8f4f    ..O.    DSB      
        0x0001712a:    f3bf8f6f    ..o.    ISB      
        0x0001712e:    4879        yH      LDR      r0,[pc,#484] ; [0x17314] = 0xc001d46c
        0x00017130:    4681        .F      MOV      r9,r0
        0x00017132:    f000f878    ..x.    BL       sys_dlist_peek_head ; 0x17226
        0x00017136:    4601        .F      MOV      r1,r0
        0x00017138:    000c        ..      MOVS     r4,r1
        0x0001713a:    d00a        ..      BEQ      0x17152 ; handle_timeouts + 68
        0x0001713c:    f8df81d0    ....    LDR      r8,[pc,#464] ; [0x17310] = 0xc0019fa0
        0x00017140:    2201        ."      MOVS     r2,#1
        0x00017142:    f8c82004    ...     STR      r2,[r8,#4]
        0x00017146:    2700        .'      MOVS     r7,#0
        0x00017148:    6920         i      LDR      r0,[r4,#0x10]
        0x0001714a:    42b0        .B      CMP      r0,r6
        0x0001714c:    da09        ..      BGE      0x17162 ; handle_timeouts + 84
        0x0001714e:    6127        'a      STR      r7,[r4,#0x10]
        0x00017150:    e009        ..      B        0x17166 ; handle_timeouts + 88
        0x00017152:    f3858811    ....    MSR      BASEPRI,r5
        0x00017156:    f3bf8f4f    ..O.    DSB      
        0x0001715a:    f3bf8f6f    ..o.    ISB      
        0x0001715e:    e8bd87fc    ....    POP      {r2-r10,pc}
        0x00017162:    1b82        ..      SUBS     r2,r0,r6
        0x00017164:    6122        "a      STR      r2,[r4,#0x10]
        0x00017166:    1a36        6.      SUBS     r6,r6,r0
        0x00017168:    4648        HF      MOV      r0,r9
        0x0001716a:    f000f862    ..b.    BL       sys_dlist_peek_next ; 0x17232
        0x0001716e:    4601        .F      MOV      r1,r0
        0x00017170:    6920         i      LDR      r0,[r4,#0x10]
        0x00017172:    b1f0        ..      CBZ      r0,0x171b2 ; handle_timeouts + 164
        0x00017174:    2e00        ..      CMP      r6,#0
        0x00017176:    dd10        ..      BLE      0x1719a ; handle_timeouts + 140
        0x00017178:    f3858811    ....    MSR      BASEPRI,r5
        0x0001717c:    f3bf8f4f    ..O.    DSB      
        0x00017180:    f3bf8f6f    ..o.    ISB      
        0x00017184:    2020                MOVS     r0,#0x20
        0x00017186:    f3ef8511    ....    MRS      r5,BASEPRI
        0x0001718a:    f3808811    ....    MSR      BASEPRI,r0
        0x0001718e:    f3bf8f4f    ..O.    DSB      
        0x00017192:    f3bf8f6f    ..o.    ISB      
        0x00017196:    000c        ..      MOVS     r4,r1
        0x00017198:    d1d6        ..      BNE      0x17148 ; handle_timeouts + 58
        0x0001719a:    f3858811    ....    MSR      BASEPRI,r5
        0x0001719e:    f3bf8f4f    ..O.    DSB      
        0x000171a2:    f3bf8f6f    ..o.    ISB      
        0x000171a6:    4668        hF      MOV      r0,sp
        0x000171a8:    f000f84b    ..K.    BL       _handle_expired_timeouts ; 0x17242
        0x000171ac:    f8c87004    ...p    STR      r7,[r8,#4]
        0x000171b0:    e7d5        ..      B        0x1715e ; handle_timeouts + 80
        0x000171b2:    e9d40200    ....    LDRD     r0,r2,[r4,#0]
        0x000171b6:    6010        .`      STR      r0,[r2,#0]
        0x000171b8:    e9d40200    ....    LDRD     r0,r2,[r4,#0]
        0x000171bc:    6042        B`      STR      r2,[r0,#4]
        0x000171be:    466a        jF      MOV      r2,sp
        0x000171c0:    9800        ..      LDR      r0,[sp,#0]
        0x000171c2:    e9c40200    ....    STRD     r0,r2,[r4,#0]
        0x000171c6:    9800        ..      LDR      r0,[sp,#0]
        0x000171c8:    6044        D`      STR      r4,[r0,#4]
        0x000171ca:    f06f0001    o...    MVN      r0,#1
        0x000171ce:    9400        ..      STR      r4,[sp,#0]
        0x000171d0:    6120         a      STR      r0,[r4,#0x10]
        0x000171d2:    e7d1        ..      B        0x17178 ; handle_timeouts + 106
    handle_time_slicing
        0x000171d4:    b570        p.      PUSH     {r4-r6,lr}
        0x000171d6:    4d4f        OM      LDR      r5,[pc,#316] ; [0x17314] = 0xc001d46c
        0x000171d8:    4604        .F      MOV      r4,r0
        0x000171da:    3d14        .=      SUBS     r5,r5,#0x14
        0x000171dc:    68a8        .h      LDR      r0,[r5,#8]
        0x000171de:    f7fefef8    ....    BL       _is_thread_time_slicing ; 0x15fd2
        0x000171e2:    2800        .(      CMP      r0,#0
        0x000171e4:    d01e        ..      BEQ      0x17224 ; handle_time_slicing + 80
        0x000171e6:    4620         F      MOV      r0,r4
        0x000171e8:    17e1        ..      ASRS     r1,r4,#31
        0x000171ea:    f7ffff85    ....    BL       __ticks_to_ms ; 0x170f8
        0x000171ee:    4948        HI      LDR      r1,[pc,#288] ; [0x17310] = 0xc0019fa0
        0x000171f0:    688a        .h      LDR      r2,[r1,#8]
        0x000171f2:    1880        ..      ADDS     r0,r0,r2
        0x000171f4:    6088        .`      STR      r0,[r1,#8]
        0x000171f6:    680a        .h      LDR      r2,[r1,#0]
        0x000171f8:    4290        .B      CMP      r0,r2
        0x000171fa:    db13        ..      BLT      0x17224 ; handle_time_slicing + 80
        0x000171fc:    2000        .       MOVS     r0,#0
        0x000171fe:    6088        .`      STR      r0,[r1,#8]
        0x00017200:    2020                MOVS     r0,#0x20
        0x00017202:    f3ef8411    ....    MRS      r4,BASEPRI
        0x00017206:    f3808811    ....    MSR      BASEPRI,r0
        0x0001720a:    f3bf8f4f    ..O.    DSB      
        0x0001720e:    f3bf8f6f    ..o.    ISB      
        0x00017212:    68a8        .h      LDR      r0,[r5,#8]
        0x00017214:    f7fefc53    ..S.    BL       _move_thread_to_end_of_prio_q ; 0x15abe
        0x00017218:    f3848811    ....    MSR      BASEPRI,r4
        0x0001721c:    f3bf8f4f    ..O.    DSB      
        0x00017220:    f3bf8f6f    ..o.    ISB      
        0x00017224:    bd70        p.      POP      {r4-r6,pc}
    sys_dlist_peek_head
        0x00017226:    4601        .F      MOV      r1,r0
        0x00017228:    6800        .h      LDR      r0,[r0,#0]
        0x0001722a:    4288        .B      CMP      r0,r1
        0x0001722c:    d100        ..      BNE      0x17230 ; sys_dlist_peek_head + 10
        0x0001722e:    2000        .       MOVS     r0,#0
        0x00017230:    4770        pG      BX       lr
    sys_dlist_peek_next
        0x00017232:    b111        ..      CBZ      r1,0x1723a ; sys_dlist_peek_next + 8
        0x00017234:    6840        @h      LDR      r0,[r0,#4]
        0x00017236:    4288        .B      CMP      r0,r1
        0x00017238:    d101        ..      BNE      0x1723e ; sys_dlist_peek_next + 12
        0x0001723a:    2000        .       MOVS     r0,#0
        0x0001723c:    4770        pG      BX       lr
        0x0001723e:    6808        .h      LDR      r0,[r1,#0]
        0x00017240:    4770        pG      BX       lr
    _handle_expired_timeouts
        0x00017242:    e92d47f0    -..G    PUSH     {r4-r10,lr}
        0x00017246:    4681        .F      MOV      r9,r0
        0x00017248:    f7ffffed    ....    BL       sys_dlist_peek_head ; 0x17226
        0x0001724c:    2800        .(      CMP      r0,#0
        0x0001724e:    d05d        ].      BEQ      0x1730c ; _handle_expired_timeouts + 202
        0x00017250:    4648        HF      MOV      r0,r9
        0x00017252:    f7ffffe8    ....    BL       sys_dlist_peek_head ; 0x17226
        0x00017256:    0004        ..      MOVS     r4,r0
        0x00017258:    d058        X.      BEQ      0x1730c ; _handle_expired_timeouts + 202
        0x0001725a:    4601        .F      MOV      r1,r0
        0x0001725c:    4648        HF      MOV      r0,r9
        0x0001725e:    f7ffffe8    ....    BL       sys_dlist_peek_next ; 0x17232
        0x00017262:    b128        (.      CBZ      r0,0x17270 ; _handle_expired_timeouts + 46
        0x00017264:    4621        !F      MOV      r1,r4
        0x00017266:    4648        HF      MOV      r0,r9
        0x00017268:    f7ffffe3    ....    BL       sys_dlist_peek_next ; 0x17232
        0x0001726c:    4605        .F      MOV      r5,r0
        0x0001726e:    e000        ..      B        0x17272 ; _handle_expired_timeouts + 48
        0x00017270:    2500        .%      MOVS     r5,#0
        0x00017272:    f04f0800    O...    MOV      r8,#0
        0x00017276:    f04f36ff    O..6    MOV      r6,#0xffffffff
        0x0001727a:    e032        2.      B        0x172e2 ; _handle_expired_timeouts + 160
        0x0001727c:    68c0        .h      LDR      r0,[r0,#0xc]
        0x0001727e:    b120         .      CBZ      r0,0x1728a ; _handle_expired_timeouts + 72
        0x00017280:    4620         F      MOV      r0,r4
        0x00017282:    f7fefbc0    ....    BL       _unpend_thread_no_timeout ; 0x15a06
        0x00017286:    f8c48020    .. .    STR      r8,[r4,#0x20]
        0x0001728a:    7a60        `z      LDRB     r0,[r4,#9]
        0x0001728c:    f0200104     ...    BIC      r1,r0,#4
        0x00017290:    7261        ar      STRB     r1,[r4,#9]
        0x00017292:    4620         F      MOV      r0,r4
        0x00017294:    f0110f1f    ....    TST      r1,#0x1f
        0x00017298:    d104        ..      BNE      0x172a4 ; _handle_expired_timeouts + 98
        0x0001729a:    6a41        Aj      LDR      r1,[r0,#0x24]
        0x0001729c:    1c49        I.      ADDS     r1,r1,#1
        0x0001729e:    d101        ..      BNE      0x172a4 ; _handle_expired_timeouts + 98
        0x000172a0:    f7fefb79    ..y.    BL       _add_thread_to_ready_q ; 0x15996
        0x000172a4:    f3878811    ....    MSR      BASEPRI,r7
        0x000172a8:    f3bf8f4f    ..O.    DSB      
        0x000172ac:    f3bf8f6f    ..o.    ISB      
        0x000172b0:    e009        ..      B        0x172c6 ; _handle_expired_timeouts + 132
        0x000172b2:    bf00        ..      NOP      
        0x000172b4:    f3878811    ....    MSR      BASEPRI,r7
        0x000172b8:    f3bf8f4f    ..O.    DSB      
        0x000172bc:    f3bf8f6f    ..o.    ISB      
        0x000172c0:    6941        Ai      LDR      r1,[r0,#0x14]
        0x000172c2:    b101        ..      CBZ      r1,0x172c6 ; _handle_expired_timeouts + 132
        0x000172c4:    4788        .G      BLX      r1
        0x000172c6:    002c        ,.      MOVS     r4,r5
        0x000172c8:    d020         .      BEQ      0x1730c ; _handle_expired_timeouts + 202
        0x000172ca:    4629        )F      MOV      r1,r5
        0x000172cc:    4648        HF      MOV      r0,r9
        0x000172ce:    f7ffffb0    ....    BL       sys_dlist_peek_next ; 0x17232
        0x000172d2:    b128        (.      CBZ      r0,0x172e0 ; _handle_expired_timeouts + 158
        0x000172d4:    4621        !F      MOV      r1,r4
        0x000172d6:    4648        HF      MOV      r0,r9
        0x000172d8:    f7ffffab    ....    BL       sys_dlist_peek_next ; 0x17232
        0x000172dc:    4605        .F      MOV      r5,r0
        0x000172de:    e000        ..      B        0x172e2 ; _handle_expired_timeouts + 160
        0x000172e0:    2500        .%      MOVS     r5,#0
        0x000172e2:    e9d40100    ....    LDRD     r0,r1,[r4,#0]
        0x000172e6:    6008        .`      STR      r0,[r1,#0]
        0x000172e8:    e9d40100    ....    LDRD     r0,r1,[r4,#0]
        0x000172ec:    6041        A`      STR      r1,[r0,#4]
        0x000172ee:    4620         F      MOV      r0,r4
        0x000172f0:    68a4        .h      LDR      r4,[r4,#8]
        0x000172f2:    2120         !      MOVS     r1,#0x20
        0x000172f4:    f3ef8711    ....    MRS      r7,BASEPRI
        0x000172f8:    f3818811    ....    MSR      BASEPRI,r1
        0x000172fc:    f3bf8f4f    ..O.    DSB      
        0x00017300:    f3bf8f6f    ..o.    ISB      
        0x00017304:    6106        .a      STR      r6,[r0,#0x10]
        0x00017306:    2c00        .,      CMP      r4,#0
        0x00017308:    d0d4        ..      BEQ      0x172b4 ; _handle_expired_timeouts + 114
        0x0001730a:    e7b7        ..      B        0x1727c ; _handle_expired_timeouts + 58
        0x0001730c:    e8bd87f0    ....    POP      {r4-r10,pc}
    $d
        0x00017310:    c0019fa0    ....    DCD    3221331872
        0x00017314:    c001d46c    l...    DCD    3221345388
    $t
    .text
    _impl_k_thread_start
        0x00017318:    b510        ..      PUSH     {r4,lr}
        0x0001731a:    2120         !      MOVS     r1,#0x20
        0x0001731c:    f3ef8411    ....    MRS      r4,BASEPRI
        0x00017320:    f3818811    ....    MSR      BASEPRI,r1
        0x00017324:    f3bf8f4f    ..O.    DSB      
        0x00017328:    f3bf8f6f    ..o.    ISB      
        0x0001732c:    7a41        Az      LDRB     r1,[r0,#9]
        0x0001732e:    074a        J.      LSLS     r2,r1,#29
        0x00017330:    d406        ..      BMI      0x17340 ; _impl_k_thread_start + 40
        0x00017332:    f3848811    ....    MSR      BASEPRI,r4
        0x00017336:    f3bf8f4f    ..O.    DSB      
        0x0001733a:    f3bf8f6f    ..o.    ISB      
        0x0001733e:    bd10        ..      POP      {r4,pc}
        0x00017340:    f0210104    !...    BIC      r1,r1,#4
        0x00017344:    7241        Ar      STRB     r1,[r0,#9]
        0x00017346:    f000f9a1    ....    BL       _ready_thread ; 0x1768c
        0x0001734a:    4620         F      MOV      r0,r4
        0x0001734c:    e8bd4010    ...@    POP      {r4,lr}
        0x00017350:    f7febcf5    ....    B        _reschedule ; 0x15d3e
    _abort_thread_timeout
        0x00017354:    b570        p.      PUSH     {r4-r6,lr}
        0x00017356:    f1000414    ....    ADD      r4,r0,#0x14
        0x0001735a:    6a40        @j      LDR      r0,[r0,#0x24]
        0x0001735c:    f04f35ff    O..5    MOV      r5,#0xffffffff
        0x00017360:    1c40        @.      ADDS     r0,r0,#1
        0x00017362:    d015        ..      BEQ      0x17390 ; _abort_thread_timeout + 60
        0x00017364:    48fa        .H      LDR      r0,[pc,#1000] ; [0x17750] = 0xc001d458
        0x00017366:    6980        .i      LDR      r0,[r0,#0x18]
        0x00017368:    42a0        .B      CMP      r0,r4
        0x0001736a:    d008        ..      BEQ      0x1737e ; _abort_thread_timeout + 42
        0x0001736c:    48f8        .H      LDR      r0,[pc,#992] ; [0x17750] = 0xc001d458
        0x0001736e:    4621        !F      MOV      r1,r4
        0x00017370:    3014        .0      ADDS     r0,r0,#0x14
        0x00017372:    f000f972    ..r.    BL       sys_dlist_peek_next ; 0x1765a
        0x00017376:    6901        .i      LDR      r1,[r0,#0x10]
        0x00017378:    6922        "i      LDR      r2,[r4,#0x10]
        0x0001737a:    4411        .D      ADD      r1,r1,r2
        0x0001737c:    6101        .a      STR      r1,[r0,#0x10]
        0x0001737e:    e9d40100    ....    LDRD     r0,r1,[r4,#0]
        0x00017382:    6008        .`      STR      r0,[r1,#0]
        0x00017384:    e9d40100    ....    LDRD     r0,r1,[r4,#0]
        0x00017388:    6041        A`      STR      r1,[r0,#4]
        0x0001738a:    2000        .       MOVS     r0,#0
        0x0001738c:    6125        %a      STR      r5,[r4,#0x10]
        0x0001738e:    bd70        p.      POP      {r4-r6,pc}
        0x00017390:    4628        (F      MOV      r0,r5
        0x00017392:    bd70        p.      POP      {r4-r6,pc}
    k_thread_foreach
        0x00017394:    4770        pG      BX       lr
    k_is_in_isr
        0x00017396:    f3ef8005    ....    MRS      r0,IPSR
        0x0001739a:    280d        .(      CMP      r0,#0xd
        0x0001739c:    d804        ..      BHI      0x173a8 ; k_is_in_isr + 18
        0x0001739e:    b128        (.      CBZ      r0,0x173ac ; k_is_in_isr + 22
        0x000173a0:    48ec        .H      LDR      r0,[pc,#944] ; [0x17754] = 0xe000ed04
        0x000173a2:    6800        .h      LDR      r0,[r0,#0]
        0x000173a4:    0500        ..      LSLS     r0,r0,#20
        0x000173a6:    d401        ..      BMI      0x173ac ; k_is_in_isr + 22
        0x000173a8:    2001        .       MOVS     r0,#1
        0x000173aa:    4770        pG      BX       lr
        0x000173ac:    2000        .       MOVS     r0,#0
        0x000173ae:    4770        pG      BX       lr
    _thread_essential_set
        0x000173b0:    48e7        .H      LDR      r0,[pc,#924] ; [0x17750] = 0xc001d458
        0x000173b2:    6880        .h      LDR      r0,[r0,#8]
        0x000173b4:    7a01        .z      LDRB     r1,[r0,#8]
        0x000173b6:    f0410101    A...    ORR      r1,r1,#1
        0x000173ba:    7201        .r      STRB     r1,[r0,#8]
        0x000173bc:    4770        pG      BX       lr
    _thread_essential_clear
        0x000173be:    48e4        .H      LDR      r0,[pc,#912] ; [0x17750] = 0xc001d458
        0x000173c0:    6880        .h      LDR      r0,[r0,#8]
        0x000173c2:    7a01        .z      LDRB     r1,[r0,#8]
        0x000173c4:    f0210101    !...    BIC      r1,r1,#1
        0x000173c8:    7201        .r      STRB     r1,[r0,#8]
        0x000173ca:    4770        pG      BX       lr
    _is_thread_essential
        0x000173cc:    48e0        .H      LDR      r0,[pc,#896] ; [0x17750] = 0xc001d458
        0x000173ce:    6880        .h      LDR      r0,[r0,#8]
        0x000173d0:    7a00        .z      LDRB     r0,[r0,#8]
        0x000173d2:    f0000001    ....    AND      r0,r0,#1
        0x000173d6:    4770        pG      BX       lr
    k_busy_wait
        0x000173d8:    49df        .I      LDR      r1,[pc,#892] ; [0x17758] = 0x8f0d180
        0x000173da:    b570        p.      PUSH     {r4-r6,lr}
        0x000173dc:    fba00101    ....    UMULL    r0,r1,r0,r1
        0x000173e0:    4ade        .J      LDR      r2,[pc,#888] ; [0x1775c] = 0xf4240
        0x000173e2:    2300        .#      MOVS     r3,#0
        0x000173e4:    f002f850    ..P.    BL       __aeabi_uldivmod ; 0x19488
        0x000173e8:    4605        .F      MOV      r5,r0
        0x000173ea:    f7f9f965    ..e.    BL       _timer_cycle_get_32 ; 0x106b8
        0x000173ee:    4604        .F      MOV      r4,r0
        0x000173f0:    f7f9f962    ..b.    BL       _timer_cycle_get_32 ; 0x106b8
        0x000173f4:    1b00        ..      SUBS     r0,r0,r4
        0x000173f6:    42a8        .B      CMP      r0,r5
        0x000173f8:    d3fa        ..      BCC      0x173f0 ; k_busy_wait + 24
        0x000173fa:    bd70        p.      POP      {r4-r6,pc}
    schedule_new_thread
        0x000173fc:    b510        ..      PUSH     {r4,lr}
        0x000173fe:    b1c1        ..      CBZ      r1,0x17432 ; schedule_new_thread + 54
        0x00017400:    2201        ."      MOVS     r2,#1
        0x00017402:    fb91f3f2    ....    SDIV     r3,r1,r2
        0x00017406:    2120         !      MOVS     r1,#0x20
        0x00017408:    f3ef8411    ....    MRS      r4,BASEPRI
        0x0001740c:    f3818811    ....    MSR      BASEPRI,r1
        0x00017410:    1c5b        [.      ADDS     r3,r3,#1
        0x00017412:    f3bf8f4f    ..O.    DSB      
        0x00017416:    f3bf8f6f    ..o.    ISB      
        0x0001741a:    2200        ."      MOVS     r2,#0
        0x0001741c:    f1000114    ....    ADD      r1,r0,#0x14
        0x00017420:    f000f940    ..@.    BL       _add_timeout ; 0x176a4
        0x00017424:    f3848811    ....    MSR      BASEPRI,r4
        0x00017428:    f3bf8f4f    ..O.    DSB      
        0x0001742c:    f3bf8f6f    ..o.    ISB      
        0x00017430:    bd10        ..      POP      {r4,pc}
        0x00017432:    e8bd4010    ...@    POP      {r4,lr}
        0x00017436:    e76f        o.      B        _impl_k_thread_start ; 0x17318
    _setup_new_thread
        0x00017438:    b5f0        ..      PUSH     {r4-r7,lr}
        0x0001743a:    b085        ..      SUB      sp,sp,#0x14
        0x0001743c:    f10d0e28    ..(.    ADD      lr,sp,#0x28
        0x00017440:    4604        .F      MOV      r4,r0
        0x00017442:    e89e10e1    ....    LDM      lr,{r0,r5-r7,r12}
        0x00017446:    e88d10e1    ....    STM      sp,{r0,r5-r7,r12}
        0x0001744a:    4620         F      MOV      r0,r4
        0x0001744c:    f001fbf8    ....    BL       _new_thread ; 0x18c40
        0x00017450:    48bf        .H      LDR      r0,[pc,#764] ; [0x17750] = 0xc001d458
        0x00017452:    6880        .h      LDR      r0,[r0,#8]
        0x00017454:    b100        ..      CBZ      r0,0x17458 ; _setup_new_thread + 32
        0x00017456:    6dc0        .m      LDR      r0,[r0,#0x5c]
        0x00017458:    65e0        .e      STR      r0,[r4,#0x5c]
        0x0001745a:    b005        ..      ADD      sp,sp,#0x14
        0x0001745c:    bdf0        ..      POP      {r4-r7,pc}
    _impl_k_thread_create
        0x0001745e:    b5f0        ..      PUSH     {r4-r7,lr}
        0x00017460:    b085        ..      SUB      sp,sp,#0x14
        0x00017462:    4605        .F      MOV      r5,r0
        0x00017464:    e9dde40e    ....    LDRD     lr,r4,[sp,#0x38]
        0x00017468:    e9dd7c0c    ...|    LDRD     r7,r12,[sp,#0x30]
        0x0001746c:    e9dd060a    ....    LDRD     r0,r6,[sp,#0x28]
        0x00017470:    e88d50c1    ...P    STM      sp,{r0,r6,r7,r12,lr}
        0x00017474:    4628        (F      MOV      r0,r5
        0x00017476:    f7ffffdf    ....    BL       _setup_new_thread ; 0x17438
        0x0001747a:    1c60        `.      ADDS     r0,r4,#1
        0x0001747c:    d003        ..      BEQ      0x17486 ; _impl_k_thread_create + 40
        0x0001747e:    4621        !F      MOV      r1,r4
        0x00017480:    4628        (F      MOV      r0,r5
        0x00017482:    f7ffffbb    ....    BL       schedule_new_thread ; 0x173fc
        0x00017486:    4628        (F      MOV      r0,r5
        0x00017488:    e7e7        ..      B        0x1745a ; _setup_new_thread + 34
    _impl_k_thread_cancel
        0x0001748a:    b570        p.      PUSH     {r4-r6,lr}
        0x0001748c:    4605        .F      MOV      r5,r0
        0x0001748e:    2020                MOVS     r0,#0x20
        0x00017490:    f3ef8411    ....    MRS      r4,BASEPRI
        0x00017494:    f3808811    ....    MSR      BASEPRI,r0
        0x00017498:    f3bf8f4f    ..O.    DSB      
        0x0001749c:    f3bf8f6f    ..o.    ISB      
        0x000174a0:    7a68        hz      LDRB     r0,[r5,#9]
        0x000174a2:    f3400080    @...    SBFX     r0,r0,#2,#1
        0x000174a6:    1c40        @.      ADDS     r0,r0,#1
        0x000174a8:    d10e        ..      BNE      0x174c8 ; _impl_k_thread_cancel + 62
        0x000174aa:    4628        (F      MOV      r0,r5
        0x000174ac:    f000f8dd    ....    BL       _is_thread_timeout_active ; 0x1766a
        0x000174b0:    b150        P.      CBZ      r0,0x174c8 ; _impl_k_thread_cancel + 62
        0x000174b2:    4628        (F      MOV      r0,r5
        0x000174b4:    f7ffff4e    ..N.    BL       _abort_thread_timeout ; 0x17354
        0x000174b8:    f3848811    ....    MSR      BASEPRI,r4
        0x000174bc:    f3bf8f4f    ..O.    DSB      
        0x000174c0:    f3bf8f6f    ..o.    ISB      
        0x000174c4:    2000        .       MOVS     r0,#0
        0x000174c6:    bd70        p.      POP      {r4-r6,pc}
        0x000174c8:    f3848811    ....    MSR      BASEPRI,r4
        0x000174cc:    f3bf8f4f    ..O.    DSB      
        0x000174d0:    f3bf8f6f    ..o.    ISB      
        0x000174d4:    f06f0015    o...    MVN      r0,#0x15
        0x000174d8:    bd70        p.      POP      {r4-r6,pc}
    _k_thread_single_suspend
        0x000174da:    b510        ..      PUSH     {r4,lr}
        0x000174dc:    4604        .F      MOV      r4,r0
        0x000174de:    f000f8c9    ....    BL       _is_thread_ready ; 0x17674
        0x000174e2:    b110        ..      CBZ      r0,0x174ea ; _k_thread_single_suspend + 16
        0x000174e4:    4620         F      MOV      r0,r4
        0x000174e6:    f7fefb30    ..0.    BL       _remove_thread_from_ready_q ; 0x15b4a
        0x000174ea:    7a60        `z      LDRB     r0,[r4,#9]
        0x000174ec:    f0400010    @...    ORR      r0,r0,#0x10
        0x000174f0:    7260        `r      STRB     r0,[r4,#9]
        0x000174f2:    bd10        ..      POP      {r4,pc}
    _impl_k_thread_suspend
        0x000174f4:    b570        p.      PUSH     {r4-r6,lr}
        0x000174f6:    4605        .F      MOV      r5,r0
        0x000174f8:    2020                MOVS     r0,#0x20
        0x000174fa:    f3ef8411    ....    MRS      r4,BASEPRI
        0x000174fe:    f3808811    ....    MSR      BASEPRI,r0
        0x00017502:    f3bf8f4f    ..O.    DSB      
        0x00017506:    f3bf8f6f    ..o.    ISB      
        0x0001750a:    4628        (F      MOV      r0,r5
        0x0001750c:    f7ffffe5    ....    BL       _k_thread_single_suspend ; 0x174da
        0x00017510:    488f        .H      LDR      r0,[pc,#572] ; [0x17750] = 0xc001d458
        0x00017512:    6880        .h      LDR      r0,[r0,#8]
        0x00017514:    42a8        .B      CMP      r0,r5
        0x00017516:    d106        ..      BNE      0x17526 ; _impl_k_thread_suspend + 50
        0x00017518:    f7fefaaa    ....    BL       _update_time_slice_before_swap ; 0x15a70
        0x0001751c:    4620         F      MOV      r0,r4
        0x0001751e:    e8bd4070    ..p@    POP      {r4-r6,lr}
        0x00017522:    f001bad3    ....    B.W      __swap ; 0x18acc
        0x00017526:    f3848811    ....    MSR      BASEPRI,r4
        0x0001752a:    f3bf8f4f    ..O.    DSB      
        0x0001752e:    f3bf8f6f    ..o.    ISB      
        0x00017532:    bd70        p.      POP      {r4-r6,pc}
    _k_thread_single_resume
        0x00017534:    7a41        Az      LDRB     r1,[r0,#9]
        0x00017536:    f0210110    !...    BIC      r1,r1,#0x10
        0x0001753a:    7241        Ar      STRB     r1,[r0,#9]
        0x0001753c:    f000b8a6    ....    B.W      _ready_thread ; 0x1768c
    _impl_k_thread_resume
        0x00017540:    b510        ..      PUSH     {r4,lr}
        0x00017542:    4601        .F      MOV      r1,r0
        0x00017544:    2020                MOVS     r0,#0x20
        0x00017546:    f3ef8411    ....    MRS      r4,BASEPRI
        0x0001754a:    f3808811    ....    MSR      BASEPRI,r0
        0x0001754e:    f3bf8f4f    ..O.    DSB      
        0x00017552:    f3bf8f6f    ..o.    ISB      
        0x00017556:    4608        .F      MOV      r0,r1
        0x00017558:    f7ffffec    ....    BL       _k_thread_single_resume ; 0x17534
        0x0001755c:    4620         F      MOV      r0,r4
        0x0001755e:    e8bd4010    ...@    POP      {r4,lr}
        0x00017562:    f7febbec    ....    B        _reschedule ; 0x15d3e
    _k_thread_single_abort
        0x00017566:    b510        ..      PUSH     {r4,lr}
        0x00017568:    4604        .F      MOV      r4,r0
        0x0001756a:    6d40        @m      LDR      r0,[r0,#0x54]
        0x0001756c:    b100        ..      CBZ      r0,0x17570 ; _k_thread_single_abort + 10
        0x0001756e:    4780        .G      BLX      r0
        0x00017570:    4620         F      MOV      r0,r4
        0x00017572:    f000f87f    ....    BL       _is_thread_ready ; 0x17674
        0x00017576:    b118        ..      CBZ      r0,0x17580 ; _k_thread_single_abort + 26
        0x00017578:    4620         F      MOV      r0,r4
        0x0001757a:    f7fefae6    ....    BL       _remove_thread_from_ready_q ; 0x15b4a
        0x0001757e:    e00b        ..      B        0x17598 ; _k_thread_single_abort + 50
        0x00017580:    7a60        `z      LDRB     r0,[r4,#9]
        0x00017582:    0780        ..      LSLS     r0,r0,#30
        0x00017584:    d502        ..      BPL      0x1758c ; _k_thread_single_abort + 38
        0x00017586:    4620         F      MOV      r0,r4
        0x00017588:    f7fefa3d    ..=.    BL       _unpend_thread_no_timeout ; 0x15a06
        0x0001758c:    6a60        `j      LDR      r0,[r4,#0x24]
        0x0001758e:    1c40        @.      ADDS     r0,r0,#1
        0x00017590:    d002        ..      BEQ      0x17598 ; _k_thread_single_abort + 50
        0x00017592:    4620         F      MOV      r0,r4
        0x00017594:    f7fffede    ....    BL       _abort_thread_timeout ; 0x17354
        0x00017598:    7a60        `z      LDRB     r0,[r4,#9]
        0x0001759a:    f0400008    @...    ORR      r0,r0,#8
        0x0001759e:    7260        `r      STRB     r0,[r4,#9]
        0x000175a0:    bd10        ..      POP      {r4,pc}
    _init_static_threads
        0x000175a2:    b570        p.      PUSH     {r4-r6,lr}
        0x000175a4:    4c6e        nL      LDR      r4,[pc,#440] ; [0x17760] = 0xc001a7a0
        0x000175a6:    4d6f        oM      LDR      r5,[pc,#444] ; [0x17764] = 0xc0019fbc
        0x000175a8:    486f        oH      LDR      r0,[pc,#444] ; [0x17768] = 0
        0x000175aa:    b086        ..      SUB      sp,sp,#0x18
        0x000175ac:    4420         D      ADD      r0,r0,r4
        0x000175ae:    e9c54000    ...@    STRD     r4,r0,[r5,#0]
        0x000175b2:    e00f        ..      B        0x175d4 ; _init_static_threads + 50
        0x000175b4:    f1040014    ....    ADD      r0,r4,#0x14
        0x000175b8:    ae01        ..      ADD      r6,sp,#4
        0x000175ba:    c80f        ..      LDM      r0,{r0-r3}
        0x000175bc:    e886000f    ....    STM      r6,{r0-r3}
        0x000175c0:    6920         i      LDR      r0,[r4,#0x10]
        0x000175c2:    9000        ..      STR      r0,[sp,#0]
        0x000175c4:    e894000f    ....    LDM      r4,{r0-r3}
        0x000175c8:    f7ffff36    ..6.    BL       _setup_new_thread ; 0x17438
        0x000175cc:    6820         h      LDR      r0,[r4,#0]
        0x000175ce:    6504        .e      STR      r4,[r0,#0x50]
        0x000175d0:    6868        hh      LDR      r0,[r5,#4]
        0x000175d2:    342c        ,4      ADDS     r4,r4,#0x2c
        0x000175d4:    4284        .B      CMP      r4,r0
        0x000175d6:    d3ed        ..      BCC      0x175b4 ; _init_static_threads + 18
        0x000175d8:    485d        ]H      LDR      r0,[pc,#372] ; [0x17750] = 0xc001d458
        0x000175da:    6880        .h      LDR      r0,[r0,#8]
        0x000175dc:    7a81        .z      LDRB     r1,[r0,#0xa]
        0x000175de:    1e49        I.      SUBS     r1,r1,#1
        0x000175e0:    7281        .r      STRB     r1,[r0,#0xa]
        0x000175e2:    f3bf8f5f    .._.    DMB      
        0x000175e6:    2020                MOVS     r0,#0x20
        0x000175e8:    f3ef8411    ....    MRS      r4,BASEPRI
        0x000175ec:    f3808811    ....    MSR      BASEPRI,r0
        0x000175f0:    f3bf8f4f    ..O.    DSB      
        0x000175f4:    f3bf8f6f    ..o.    ISB      
        0x000175f8:    682e        .h      LDR      r6,[r5,#0]
        0x000175fa:    e006        ..      B        0x1760a ; _init_static_threads + 104
        0x000175fc:    6a71        qj      LDR      r1,[r6,#0x24]
        0x000175fe:    1c48        H.      ADDS     r0,r1,#1
        0x00017600:    d002        ..      BEQ      0x17608 ; _init_static_threads + 102
        0x00017602:    6830        0h      LDR      r0,[r6,#0]
        0x00017604:    f7fffefa    ....    BL       schedule_new_thread ; 0x173fc
        0x00017608:    362c        ,6      ADDS     r6,r6,#0x2c
        0x0001760a:    6868        hh      LDR      r0,[r5,#4]
        0x0001760c:    4286        .B      CMP      r6,r0
        0x0001760e:    d3f5        ..      BCC      0x175fc ; _init_static_threads + 90
        0x00017610:    f3848811    ....    MSR      BASEPRI,r4
        0x00017614:    f3bf8f4f    ..O.    DSB      
        0x00017618:    f3bf8f6f    ..o.    ISB      
        0x0001761c:    b006        ..      ADD      sp,sp,#0x18
        0x0001761e:    e8bd4070    ..p@    POP      {r4-r6,lr}
        0x00017622:    f7febc3d    ..=.    B        k_sched_unlock ; 0x15ea0
    _init_thread_base
        0x00017626:    7203        .r      STRB     r3,[r0,#8]
        0x00017628:    7242        Br      STRB     r2,[r0,#9]
        0x0001762a:    72c1        .r      STRB     r1,[r0,#0xb]
        0x0001762c:    2100        .!      MOVS     r1,#0
        0x0001762e:    7281        .r      STRB     r1,[r0,#0xa]
        0x00017630:    1e4a        J.      SUBS     r2,r1,#1
        0x00017632:    e9c01208    ....    STRD     r1,r2,[r0,#0x20]
        0x00017636:    61c1        .a      STR      r1,[r0,#0x1c]
        0x00017638:    6281        .b      STR      r1,[r0,#0x28]
        0x0001763a:    4770        pG      BX       lr
    k_thread_access_grant
        0x0001763c:    4770        pG      BX       lr
    k_thread_user_mode_enter
        0x0001763e:    4606        .F      MOV      r6,r0
        0x00017640:    4843        CH      LDR      r0,[pc,#268] ; [0x17750] = 0xc001d458
        0x00017642:    460d        .F      MOV      r5,r1
        0x00017644:    6884        .h      LDR      r4,[r0,#8]
        0x00017646:    7a20         z      LDRB     r0,[r4,#8]
        0x00017648:    f0400004    @...    ORR      r0,r0,#4
        0x0001764c:    7220         r      STRB     r0,[r4,#8]
        0x0001764e:    f7fffeb6    ....    BL       _thread_essential_clear ; 0x173be
        0x00017652:    4629        )F      MOV      r1,r5
        0x00017654:    4630        0F      MOV      r0,r6
        0x00017656:    f001fae7    ....    BL       _thread_entry ; 0x18c28
    sys_dlist_peek_next
        0x0001765a:    b111        ..      CBZ      r1,0x17662 ; sys_dlist_peek_next + 8
        0x0001765c:    6840        @h      LDR      r0,[r0,#4]
        0x0001765e:    4288        .B      CMP      r0,r1
        0x00017660:    d101        ..      BNE      0x17666 ; sys_dlist_peek_next + 12
        0x00017662:    2000        .       MOVS     r0,#0
        0x00017664:    4770        pG      BX       lr
        0x00017666:    6808        .h      LDR      r0,[r1,#0]
        0x00017668:    4770        pG      BX       lr
    _is_thread_timeout_active
        0x0001766a:    6a40        @j      LDR      r0,[r0,#0x24]
        0x0001766c:    1c40        @.      ADDS     r0,r0,#1
        0x0001766e:    d000        ..      BEQ      0x17672 ; _is_thread_timeout_active + 8
        0x00017670:    2001        .       MOVS     r0,#1
        0x00017672:    4770        pG      BX       lr
    _is_thread_ready
        0x00017674:    b510        ..      PUSH     {r4,lr}
        0x00017676:    7a41        Az      LDRB     r1,[r0,#9]
        0x00017678:    f0110f1f    ....    TST      r1,#0x1f
        0x0001767c:    d102        ..      BNE      0x17684 ; _is_thread_ready + 16
        0x0001767e:    f7fffff4    ....    BL       _is_thread_timeout_active ; 0x1766a
        0x00017682:    b108        ..      CBZ      r0,0x17688 ; _is_thread_ready + 20
        0x00017684:    2000        .       MOVS     r0,#0
        0x00017686:    bd10        ..      POP      {r4,pc}
        0x00017688:    2001        .       MOVS     r0,#1
        0x0001768a:    bd10        ..      POP      {r4,pc}
    _ready_thread
        0x0001768c:    b510        ..      PUSH     {r4,lr}
        0x0001768e:    4604        .F      MOV      r4,r0
        0x00017690:    f7fffff0    ....    BL       _is_thread_ready ; 0x17674
        0x00017694:    2800        .(      CMP      r0,#0
        0x00017696:    d004        ..      BEQ      0x176a2 ; _ready_thread + 22
        0x00017698:    4620         F      MOV      r0,r4
        0x0001769a:    e8bd4010    ...@    POP      {r4,lr}
        0x0001769e:    f7feb97a    ..z.    B        _add_thread_to_ready_q ; 0x15996
        0x000176a2:    bd10        ..      POP      {r4,pc}
    _add_timeout
        0x000176a4:    e92d41f0    -..A    PUSH     {r4-r8,lr}
        0x000176a8:    460c        .F      MOV      r4,r1
        0x000176aa:    3108        .1      ADDS     r1,r1,#8
        0x000176ac:    e881000d    ....    STM      r1,{r0,r2,r3}
        0x000176b0:    b15b        [.      CBZ      r3,0x176ca ; _add_timeout + 38
        0x000176b2:    4827        'H      LDR      r0,[pc,#156] ; [0x17750] = 0xc001d458
        0x000176b4:    f1040710    ....    ADD      r7,r4,#0x10
        0x000176b8:    3014        .0      ADDS     r0,r0,#0x14
        0x000176ba:    4606        .F      MOV      r6,r0
        0x000176bc:    f000f86b    ..k.    BL       sys_dlist_peek_head ; 0x17796
        0x000176c0:    b398        ..      CBZ      r0,0x1772a ; _add_timeout + 134
        0x000176c2:    4630        0F      MOV      r0,r6
        0x000176c4:    f000f867    ..g.    BL       sys_dlist_peek_head ; 0x17796
        0x000176c8:    e060        `.      B        0x1778c ; _add_timeout + 232
        0x000176ca:    4605        .F      MOV      r5,r0
        0x000176cc:    2020                MOVS     r0,#0x20
        0x000176ce:    f3ef8611    ....    MRS      r6,BASEPRI
        0x000176d2:    f3808811    ....    MSR      BASEPRI,r0
        0x000176d6:    f3bf8f4f    ..O.    DSB      
        0x000176da:    f3bf8f6f    ..o.    ISB      
        0x000176de:    f04f30ff    O..0    MOV      r0,#0xffffffff
        0x000176e2:    6120         a      STR      r0,[r4,#0x10]
        0x000176e4:    b1a5        ..      CBZ      r5,0x17710 ; _add_timeout + 108
        0x000176e6:    b122        ".      CBZ      r2,0x176f2 ; _add_timeout + 78
        0x000176e8:    4628        (F      MOV      r0,r5
        0x000176ea:    f7fef98c    ....    BL       _unpend_thread_no_timeout ; 0x15a06
        0x000176ee:    2100        .!      MOVS     r1,#0
        0x000176f0:    6229        )b      STR      r1,[r5,#0x20]
        0x000176f2:    7a68        hz      LDRB     r0,[r5,#9]
        0x000176f4:    f0200004     ...    BIC      r0,r0,#4
        0x000176f8:    7268        hr      STRB     r0,[r5,#9]
        0x000176fa:    4628        (F      MOV      r0,r5
        0x000176fc:    f7ffffc6    ....    BL       _ready_thread ; 0x1768c
        0x00017700:    f3868811    ....    MSR      BASEPRI,r6
        0x00017704:    f3bf8f4f    ..O.    DSB      
        0x00017708:    f3bf8f6f    ..o.    ISB      
        0x0001770c:    e8bd81f0    ....    POP      {r4-r8,pc}
        0x00017710:    f3868811    ....    MSR      BASEPRI,r6
        0x00017714:    f3bf8f4f    ..O.    DSB      
        0x00017718:    f3bf8f6f    ..o.    ISB      
        0x0001771c:    6961        ai      LDR      r1,[r4,#0x14]
        0x0001771e:    2900        .)      CMP      r1,#0
        0x00017720:    d0f4        ..      BEQ      0x1770c ; _add_timeout + 104
        0x00017722:    4620         F      MOV      r0,r4
        0x00017724:    e8bd41f0    ...A    POP      {r4-r8,lr}
        0x00017728:    4708        .G      BX       r1
        0x0001772a:    e031        1.      B        0x17790 ; _add_timeout + 236
        0x0001772c:    6839        9h      LDR      r1,[r7,#0]
        0x0001772e:    6928        (i      LDR      r0,[r5,#0x10]
        0x00017730:    4281        .B      CMP      r1,r0
        0x00017732:    dc1f        ..      BGT      0x17774 ; _add_timeout + 208
        0x00017734:    6928        (i      LDR      r0,[r5,#0x10]
        0x00017736:    1a40        @.      SUBS     r0,r0,r1
        0x00017738:    6128        (a      STR      r0,[r5,#0x10]
        0x0001773a:    4630        0F      MOV      r0,r6
        0x0001773c:    4621        !F      MOV      r1,r4
        0x0001773e:    b1ad        ..      CBZ      r5,0x1776c ; _add_timeout + 200
        0x00017740:    6868        hh      LDR      r0,[r5,#4]
        0x00017742:    e9c15000    ...P    STRD     r5,r0,[r1,#0]
        0x00017746:    6868        hh      LDR      r0,[r5,#4]
        0x00017748:    6001        .`      STR      r1,[r0,#0]
        0x0001774a:    6069        i`      STR      r1,[r5,#4]
        0x0001774c:    e7de        ..      B        0x1770c ; _add_timeout + 104
    $d
        0x0001774e:    0000        ..      DCW    0
        0x00017750:    c001d458    X...    DCD    3221345368
        0x00017754:    e000ed04    ....    DCD    3758157060
        0x00017758:    08f0d180    ....    DCD    150000000
        0x0001775c:    000f4240    @B..    DCD    1000000
        0x00017760:    c001a7a0    ....    DCD    3221333920
        0x00017764:    c0019fbc    ....    DCD    3221331900
        0x00017768:    00000000    ....    DCD    0
    $t
        0x0001776c:    e8bd41f0    ...A    POP      {r4-r8,lr}
        0x00017770:    f000b817    ....    B.W      sys_dlist_append ; 0x177a2
        0x00017774:    1a08        ..      SUBS     r0,r1,r0
        0x00017776:    6038        8`      STR      r0,[r7,#0]
        0x00017778:    b155        U.      CBZ      r5,0x17790 ; _add_timeout + 236
        0x0001777a:    4629        )F      MOV      r1,r5
        0x0001777c:    4630        0F      MOV      r0,r6
        0x0001777e:    f7ffff6c    ..l.    BL       sys_dlist_peek_next ; 0x1765a
        0x00017782:    b128        (.      CBZ      r0,0x17790 ; _add_timeout + 236
        0x00017784:    4629        )F      MOV      r1,r5
        0x00017786:    4630        0F      MOV      r0,r6
        0x00017788:    f7ffff67    ..g.    BL       sys_dlist_peek_next ; 0x1765a
        0x0001778c:    0005        ..      MOVS     r5,r0
        0x0001778e:    d1cd        ..      BNE      0x1772c ; _add_timeout + 136
        0x00017790:    4621        !F      MOV      r1,r4
        0x00017792:    4630        0F      MOV      r0,r6
        0x00017794:    e7ea        ..      B        0x1776c ; _add_timeout + 200
    sys_dlist_peek_head
        0x00017796:    4601        .F      MOV      r1,r0
        0x00017798:    6800        .h      LDR      r0,[r0,#0]
        0x0001779a:    4288        .B      CMP      r0,r1
        0x0001779c:    d100        ..      BNE      0x177a0 ; sys_dlist_peek_head + 10
        0x0001779e:    2000        .       MOVS     r0,#0
        0x000177a0:    4770        pG      BX       lr
    sys_dlist_append
        0x000177a2:    6008        .`      STR      r0,[r1,#0]
        0x000177a4:    6842        Bh      LDR      r2,[r0,#4]
        0x000177a6:    604a        J`      STR      r2,[r1,#4]
        0x000177a8:    6842        Bh      LDR      r2,[r0,#4]
        0x000177aa:    6011        .`      STR      r1,[r2,#0]
        0x000177ac:    6041        A`      STR      r1,[r0,#4]
        0x000177ae:    4770        pG      BX       lr
    .text
    k_work_submit_to_queue
        0x000177b0:    b570        p.      PUSH     {r4-r6,lr}
        0x000177b2:    4605        .F      MOV      r5,r0
        0x000177b4:    460c        .F      MOV      r4,r1
        0x000177b6:    f1010008    ....    ADD      r0,r1,#8
        0x000177ba:    2101        .!      MOVS     r1,#1
        0x000177bc:    f7fffae9    ....    BL       atomic_or ; 0x16d92
        0x000177c0:    f0100f01    ....    TST      r0,#1
        0x000177c4:    d105        ..      BNE      0x177d2 ; k_work_submit_to_queue + 34
        0x000177c6:    4621        !F      MOV      r1,r4
        0x000177c8:    4628        (F      MOV      r0,r5
        0x000177ca:    e8bd4070    ..p@    POP      {r4-r6,lr}
        0x000177ce:    f7fdbfd8    ....    B        k_queue_append ; 0x15782
        0x000177d2:    bd70        p.      POP      {r4-r6,pc}
    _add_timeout
        0x000177d4:    e92d41f0    -..A    PUSH     {r4-r8,lr}
        0x000177d8:    460c        .F      MOV      r4,r1
        0x000177da:    3108        .1      ADDS     r1,r1,#8
        0x000177dc:    e881000d    ....    STM      r1,{r0,r2,r3}
        0x000177e0:    b153        S.      CBZ      r3,0x177f8 ; _add_timeout + 36
        0x000177e2:    48b2        .H      LDR      r0,[pc,#712] ; [0x17aac] = 0xc001d46c
        0x000177e4:    f1040710    ....    ADD      r7,r4,#0x10
        0x000177e8:    4606        .F      MOV      r6,r0
        0x000177ea:    f000f94a    ..J.    BL       sys_dlist_peek_head ; 0x17a82
        0x000177ee:    b370        p.      CBZ      r0,0x1784e ; _add_timeout + 122
        0x000177f0:    4630        0F      MOV      r0,r6
        0x000177f2:    f000f946    ..F.    BL       sys_dlist_peek_head ; 0x17a82
        0x000177f6:    e059        Y.      B        0x178ac ; _add_timeout + 216
        0x000177f8:    4605        .F      MOV      r5,r0
        0x000177fa:    2020                MOVS     r0,#0x20
        0x000177fc:    f3ef8611    ....    MRS      r6,BASEPRI
        0x00017800:    f3808811    ....    MSR      BASEPRI,r0
        0x00017804:    f3bf8f4f    ..O.    DSB      
        0x00017808:    f3bf8f6f    ..o.    ISB      
        0x0001780c:    f04f30ff    O..0    MOV      r0,#0xffffffff
        0x00017810:    6120         a      STR      r0,[r4,#0x10]
        0x00017812:    b1ed        ..      CBZ      r5,0x17850 ; _add_timeout + 124
        0x00017814:    0010        ..      MOVS     r0,r2
        0x00017816:    f04f0400    O...    MOV      r4,#0
        0x0001781a:    d003        ..      BEQ      0x17824 ; _add_timeout + 80
        0x0001781c:    4628        (F      MOV      r0,r5
        0x0001781e:    f7fef8f2    ....    BL       _unpend_thread_no_timeout ; 0x15a06
        0x00017822:    622c        ,b      STR      r4,[r5,#0x20]
        0x00017824:    7a68        hz      LDRB     r0,[r5,#9]
        0x00017826:    f0200104     ...    BIC      r1,r0,#4
        0x0001782a:    7269        ir      STRB     r1,[r5,#9]
        0x0001782c:    4628        (F      MOV      r0,r5
        0x0001782e:    f0110f1f    ....    TST      r1,#0x1f
        0x00017832:    d104        ..      BNE      0x1783e ; _add_timeout + 106
        0x00017834:    6a41        Aj      LDR      r1,[r0,#0x24]
        0x00017836:    1c49        I.      ADDS     r1,r1,#1
        0x00017838:    d101        ..      BNE      0x1783e ; _add_timeout + 106
        0x0001783a:    f7fef8ac    ....    BL       _add_thread_to_ready_q ; 0x15996
        0x0001783e:    f3868811    ....    MSR      BASEPRI,r6
        0x00017842:    f3bf8f4f    ..O.    DSB      
        0x00017846:    f3bf8f6f    ..o.    ISB      
        0x0001784a:    e8bd81f0    ....    POP      {r4-r8,pc}
        0x0001784e:    e02f        /.      B        0x178b0 ; _add_timeout + 220
        0x00017850:    f3868811    ....    MSR      BASEPRI,r6
        0x00017854:    f3bf8f4f    ..O.    DSB      
        0x00017858:    f3bf8f6f    ..o.    ISB      
        0x0001785c:    6961        ai      LDR      r1,[r4,#0x14]
        0x0001785e:    2900        .)      CMP      r1,#0
        0x00017860:    d0f3        ..      BEQ      0x1784a ; _add_timeout + 118
        0x00017862:    4620         F      MOV      r0,r4
        0x00017864:    e8bd41f0    ...A    POP      {r4-r8,lr}
        0x00017868:    4708        .G      BX       r1
        0x0001786a:    6839        9h      LDR      r1,[r7,#0]
        0x0001786c:    6928        (i      LDR      r0,[r5,#0x10]
        0x0001786e:    4281        .B      CMP      r1,r0
        0x00017870:    dc10        ..      BGT      0x17894 ; _add_timeout + 192
        0x00017872:    6928        (i      LDR      r0,[r5,#0x10]
        0x00017874:    1a40        @.      SUBS     r0,r0,r1
        0x00017876:    6128        (a      STR      r0,[r5,#0x10]
        0x00017878:    4630        0F      MOV      r0,r6
        0x0001787a:    4621        !F      MOV      r1,r4
        0x0001787c:    b135        5.      CBZ      r5,0x1788c ; _add_timeout + 184
        0x0001787e:    6868        hh      LDR      r0,[r5,#4]
        0x00017880:    e9c15000    ...P    STRD     r5,r0,[r1,#0]
        0x00017884:    6868        hh      LDR      r0,[r5,#4]
        0x00017886:    6001        .`      STR      r1,[r0,#0]
        0x00017888:    6069        i`      STR      r1,[r5,#4]
        0x0001788a:    e7de        ..      B        0x1784a ; _add_timeout + 118
        0x0001788c:    e8bd41f0    ...A    POP      {r4-r8,lr}
        0x00017890:    f000b905    ....    B.W      sys_dlist_append ; 0x17a9e
        0x00017894:    1a08        ..      SUBS     r0,r1,r0
        0x00017896:    6038        8`      STR      r0,[r7,#0]
        0x00017898:    b155        U.      CBZ      r5,0x178b0 ; _add_timeout + 220
        0x0001789a:    4629        )F      MOV      r1,r5
        0x0001789c:    4630        0F      MOV      r0,r6
        0x0001789e:    f000f8f6    ....    BL       sys_dlist_peek_next ; 0x17a8e
        0x000178a2:    b128        (.      CBZ      r0,0x178b0 ; _add_timeout + 220
        0x000178a4:    4629        )F      MOV      r1,r5
        0x000178a6:    4630        0F      MOV      r0,r6
        0x000178a8:    f000f8f1    ....    BL       sys_dlist_peek_next ; 0x17a8e
        0x000178ac:    0005        ..      MOVS     r5,r0
        0x000178ae:    d1dc        ..      BNE      0x1786a ; _add_timeout + 150
        0x000178b0:    4621        !F      MOV      r1,r4
        0x000178b2:    4630        0F      MOV      r0,r6
        0x000178b4:    e7ea        ..      B        0x1788c ; _add_timeout + 184
    work_q_main
        0x000178b6:    4605        .F      MOV      r5,r0
        0x000178b8:    f04f36ff    O..6    MOV      r6,#0xffffffff
        0x000178bc:    4628        (F      MOV      r0,r5
        0x000178be:    4631        1F      MOV      r1,r6
        0x000178c0:    f7fdffdc    ....    BL       _impl_k_queue_get ; 0x1587c
        0x000178c4:    0004        ..      MOVS     r4,r0
        0x000178c6:    d0f9        ..      BEQ      0x178bc ; work_q_main + 6
        0x000178c8:    f1040008    ....    ADD      r0,r4,#8
        0x000178cc:    f06f0101    o...    MVN      r1,#1
        0x000178d0:    6867        gh      LDR      r7,[r4,#4]
        0x000178d2:    f7fffa86    ....    BL       atomic_and ; 0x16de2
        0x000178d6:    f0100f01    ....    TST      r0,#1
        0x000178da:    d001        ..      BEQ      0x178e0 ; work_q_main + 42
        0x000178dc:    4620         F      MOV      r0,r4
        0x000178de:    47b8        .G      BLX      r7
        0x000178e0:    f7fefc4d    ..M.    BL       _impl_k_yield ; 0x1617e
        0x000178e4:    e7ea        ..      B        0x178bc ; work_q_main + 6
    k_work_q_start
        0x000178e6:    b5f0        ..      PUSH     {r4-r7,lr}
        0x000178e8:    b087        ..      SUB      sp,sp,#0x1c
        0x000178ea:    461d        .F      MOV      r5,r3
        0x000178ec:    4616        .F      MOV      r6,r2
        0x000178ee:    460f        .F      MOV      r7,r1
        0x000178f0:    4604        .F      MOV      r4,r0
        0x000178f2:    f7fdfeb2    ....    BL       _impl_k_queue_init ; 0x1565a
        0x000178f6:    4639        9F      MOV      r1,r7
        0x000178f8:    2700        .'      MOVS     r7,#0
        0x000178fa:    e9cd7704    ...w    STRD     r7,r7,[sp,#0x10]
        0x000178fe:    e9cd4700    ...G    STRD     r4,r7,[sp,#0]
        0x00017902:    e9cd7502    ...u    STRD     r7,r5,[sp,#8]
        0x00017906:    f1040010    ....    ADD      r0,r4,#0x10
        0x0001790a:    4632        2F      MOV      r2,r6
        0x0001790c:    4b68        hK      LDR      r3,[pc,#416] ; [0x17ab0] = 0x178b7
        0x0001790e:    f7fffda6    ....    BL       _impl_k_thread_create ; 0x1745e
        0x00017912:    b007        ..      ADD      sp,sp,#0x1c
        0x00017914:    bdf0        ..      POP      {r4-r7,pc}
    work_timeout
        0x00017916:    f1a0010c    ....    SUB      r1,r0,#0xc
        0x0001791a:    6980        .i      LDR      r0,[r0,#0x18]
        0x0001791c:    e748        H.      B        k_work_submit_to_queue ; 0x177b0
    k_delayed_work_init
        0x0001791e:    2200        ."      MOVS     r2,#0
        0x00017920:    e9c02100    ...!    STRD     r2,r1,[r0,#0]
        0x00017924:    1e53        S.      SUBS     r3,r2,#1
        0x00017926:    6082        .`      STR      r2,[r0,#8]
        0x00017928:    e9c02306    ...#    STRD     r2,r3,[r0,#0x18]
        0x0001792c:    4961        aI      LDR      r1,[pc,#388] ; [0x17ab4] = 0x17917
        0x0001792e:    6142        Ba      STR      r2,[r0,#0x14]
        0x00017930:    e9c01208    ....    STRD     r1,r2,[r0,#0x20]
        0x00017934:    4770        pG      BX       lr
    k_delayed_work_cancel
        0x00017936:    e92d41f0    -..A    PUSH     {r4-r8,lr}
        0x0001793a:    4604        .F      MOV      r4,r0
        0x0001793c:    2020                MOVS     r0,#0x20
        0x0001793e:    f3ef8611    ....    MRS      r6,BASEPRI
        0x00017942:    f3808811    ....    MSR      BASEPRI,r0
        0x00017946:    f3bf8f4f    ..O.    DSB      
        0x0001794a:    f3bf8f6f    ..o.    ISB      
        0x0001794e:    6a60        `j      LDR      r0,[r4,#0x24]
        0x00017950:    f06f0715    o...    MVN      r7,#0x15
        0x00017954:    b370        p.      CBZ      r0,0x179b4 ; k_delayed_work_cancel + 126
        0x00017956:    f1040508    ....    ADD      r5,r4,#8
        0x0001795a:    f04f0800    O...    MOV      r8,#0
        0x0001795e:    4628        (F      MOV      r0,r5
        0x00017960:    f7fff9ee    ....    BL       atomic_get ; 0x16d40
        0x00017964:    f0100f01    ....    TST      r0,#1
        0x00017968:    d02c        ,.      BEQ      0x179c4 ; k_delayed_work_cancel + 142
        0x0001796a:    6a63        cj      LDR      r3,[r4,#0x24]
        0x0001796c:    4622        "F      MOV      r2,r4
        0x0001796e:    2000        .       MOVS     r0,#0
        0x00017970:    6819        .h      LDR      r1,[r3,#0]
        0x00017972:    e01d        ..      B        0x179b0 ; k_delayed_work_cancel + 122
        0x00017974:    4291        .B      CMP      r1,r2
        0x00017976:    d116        ..      BNE      0x179a6 ; k_delayed_work_cancel + 112
        0x00017978:    b180        ..      CBZ      r0,0x1799c ; k_delayed_work_cancel + 102
        0x0001797a:    6811        .h      LDR      r1,[r2,#0]
        0x0001797c:    f0210703    !...    BIC      r7,r1,#3
        0x00017980:    7801        .x      LDRB     r1,[r0,#0]
        0x00017982:    f0010103    ....    AND      r1,r1,#3
        0x00017986:    4339        9C      ORRS     r1,r1,r7
        0x00017988:    6001        .`      STR      r1,[r0,#0]
        0x0001798a:    6859        Yh      LDR      r1,[r3,#4]
        0x0001798c:    4291        .B      CMP      r1,r2
        0x0001798e:    d100        ..      BNE      0x17992 ; k_delayed_work_cancel + 92
        0x00017990:    6058        X`      STR      r0,[r3,#4]
        0x00017992:    7810        .x      LDRB     r0,[r2,#0]
        0x00017994:    f0000003    ....    AND      r0,r0,#3
        0x00017998:    6020         `      STR      r0,[r4,#0]
        0x0001799a:    e02e        ..      B        0x179fa ; k_delayed_work_cancel + 196
        0x0001799c:    6810        .h      LDR      r0,[r2,#0]
        0x0001799e:    f0200003     ...    BIC      r0,r0,#3
        0x000179a2:    6018        .`      STR      r0,[r3,#0]
        0x000179a4:    e7f1        ..      B        0x1798a ; k_delayed_work_cancel + 84
        0x000179a6:    0008        ..      MOVS     r0,r1
        0x000179a8:    d004        ..      BEQ      0x179b4 ; k_delayed_work_cancel + 126
        0x000179aa:    6801        .h      LDR      r1,[r0,#0]
        0x000179ac:    f0210103    !...    BIC      r1,r1,#3
        0x000179b0:    2900        .)      CMP      r1,#0
        0x000179b2:    d1df        ..      BNE      0x17974 ; k_delayed_work_cancel + 62
        0x000179b4:    f3868811    ....    MSR      BASEPRI,r6
        0x000179b8:    f3bf8f4f    ..O.    DSB      
        0x000179bc:    f3bf8f6f    ..o.    ISB      
        0x000179c0:    4638        8F      MOV      r0,r7
        0x000179c2:    e742        B.      B        0x1784a ; _add_timeout + 118
        0x000179c4:    69e0        .i      LDR      r0,[r4,#0x1c]
        0x000179c6:    f104070c    ....    ADD      r7,r4,#0xc
        0x000179ca:    1c40        @.      ADDS     r0,r0,#1
        0x000179cc:    d015        ..      BEQ      0x179fa ; k_delayed_work_cancel + 196
        0x000179ce:    4837        7H      LDR      r0,[pc,#220] ; [0x17aac] = 0xc001d46c
        0x000179d0:    3814        .8      SUBS     r0,r0,#0x14
        0x000179d2:    6980        .i      LDR      r0,[r0,#0x18]
        0x000179d4:    42b8        .B      CMP      r0,r7
        0x000179d6:    d007        ..      BEQ      0x179e8 ; k_delayed_work_cancel + 178
        0x000179d8:    4639        9F      MOV      r1,r7
        0x000179da:    4834        4H      LDR      r0,[pc,#208] ; [0x17aac] = 0xc001d46c
        0x000179dc:    f000f857    ..W.    BL       sys_dlist_peek_next ; 0x17a8e
        0x000179e0:    6901        .i      LDR      r1,[r0,#0x10]
        0x000179e2:    693a        :i      LDR      r2,[r7,#0x10]
        0x000179e4:    4411        .D      ADD      r1,r1,r2
        0x000179e6:    6101        .a      STR      r1,[r0,#0x10]
        0x000179e8:    e9d70100    ....    LDRD     r0,r1,[r7,#0]
        0x000179ec:    6008        .`      STR      r0,[r1,#0]
        0x000179ee:    e9d70100    ....    LDRD     r0,r1,[r7,#0]
        0x000179f2:    6041        A`      STR      r1,[r0,#4]
        0x000179f4:    f04f30ff    O..0    MOV      r0,#0xffffffff
        0x000179f8:    6138        8a      STR      r0,[r7,#0x10]
        0x000179fa:    4628        (F      MOV      r0,r5
        0x000179fc:    f06f0101    o...    MVN      r1,#1
        0x00017a00:    f8c48024    ..$.    STR      r8,[r4,#0x24]
        0x00017a04:    f7fff9ed    ....    BL       atomic_and ; 0x16de2
        0x00017a08:    f3868811    ....    MSR      BASEPRI,r6
        0x00017a0c:    f3bf8f4f    ..O.    DSB      
        0x00017a10:    f3bf8f6f    ..o.    ISB      
        0x00017a14:    2000        .       MOVS     r0,#0
        0x00017a16:    e718        ..      B        0x1784a ; _add_timeout + 118
    k_delayed_work_submit_to_queue
        0x00017a18:    e92d41f0    -..A    PUSH     {r4-r8,lr}
        0x00017a1c:    4607        .F      MOV      r7,r0
        0x00017a1e:    4614        .F      MOV      r4,r2
        0x00017a20:    460e        .F      MOV      r6,r1
        0x00017a22:    2020                MOVS     r0,#0x20
        0x00017a24:    f3ef8511    ....    MRS      r5,BASEPRI
        0x00017a28:    f3808811    ....    MSR      BASEPRI,r0
        0x00017a2c:    f3bf8f4f    ..O.    DSB      
        0x00017a30:    f3bf8f6f    ..o.    ISB      
        0x00017a34:    6a70        pj      LDR      r0,[r6,#0x24]
        0x00017a36:    b120         .      CBZ      r0,0x17a42 ; k_delayed_work_submit_to_queue + 42
        0x00017a38:    42b8        .B      CMP      r0,r7
        0x00017a3a:    d002        ..      BEQ      0x17a42 ; k_delayed_work_submit_to_queue + 42
        0x00017a3c:    f06f002f    o./.    MVN      r0,#0x2f
        0x00017a40:    e013        ..      B        0x17a6a ; k_delayed_work_submit_to_queue + 82
        0x00017a42:    42b8        .B      CMP      r0,r7
        0x00017a44:    d104        ..      BNE      0x17a50 ; k_delayed_work_submit_to_queue + 56
        0x00017a46:    4608        .F      MOV      r0,r1
        0x00017a48:    f7ffff75    ..u.    BL       k_delayed_work_cancel ; 0x17936
        0x00017a4c:    2800        .(      CMP      r0,#0
        0x00017a4e:    db0c        ..      BLT      0x17a6a ; k_delayed_work_submit_to_queue + 82
        0x00017a50:    6277        wb      STR      r7,[r6,#0x24]
        0x00017a52:    b18c        ..      CBZ      r4,0x17a78 ; k_delayed_work_submit_to_queue + 96
        0x00017a54:    2001        .       MOVS     r0,#1
        0x00017a56:    fb94f3f0    ....    SDIV     r3,r4,r0
        0x00017a5a:    2200        ."      MOVS     r2,#0
        0x00017a5c:    f106010c    ....    ADD      r1,r6,#0xc
        0x00017a60:    4610        .F      MOV      r0,r2
        0x00017a62:    1c5b        [.      ADDS     r3,r3,#1
        0x00017a64:    f7fffeb6    ....    BL       _add_timeout ; 0x177d4
        0x00017a68:    2000        .       MOVS     r0,#0
        0x00017a6a:    f3858811    ....    MSR      BASEPRI,r5
        0x00017a6e:    f3bf8f4f    ..O.    DSB      
        0x00017a72:    f3bf8f6f    ..o.    ISB      
        0x00017a76:    e6e8        ..      B        0x1784a ; _add_timeout + 118
        0x00017a78:    4631        1F      MOV      r1,r6
        0x00017a7a:    4638        8F      MOV      r0,r7
        0x00017a7c:    f7fffe98    ....    BL       k_work_submit_to_queue ; 0x177b0
        0x00017a80:    e7f2        ..      B        0x17a68 ; k_delayed_work_submit_to_queue + 80
    sys_dlist_peek_head
        0x00017a82:    4601        .F      MOV      r1,r0
        0x00017a84:    6800        .h      LDR      r0,[r0,#0]
        0x00017a86:    4288        .B      CMP      r0,r1
        0x00017a88:    d100        ..      BNE      0x17a8c ; sys_dlist_peek_head + 10
        0x00017a8a:    2000        .       MOVS     r0,#0
        0x00017a8c:    4770        pG      BX       lr
    sys_dlist_peek_next
        0x00017a8e:    b111        ..      CBZ      r1,0x17a96 ; sys_dlist_peek_next + 8
        0x00017a90:    6840        @h      LDR      r0,[r0,#4]
        0x00017a92:    4288        .B      CMP      r0,r1
        0x00017a94:    d101        ..      BNE      0x17a9a ; sys_dlist_peek_next + 12
        0x00017a96:    2000        .       MOVS     r0,#0
        0x00017a98:    4770        pG      BX       lr
        0x00017a9a:    6808        .h      LDR      r0,[r1,#0]
        0x00017a9c:    4770        pG      BX       lr
    sys_dlist_append
        0x00017a9e:    6008        .`      STR      r0,[r1,#0]
        0x00017aa0:    6842        Bh      LDR      r2,[r0,#4]
        0x00017aa2:    604a        J`      STR      r2,[r1,#4]
        0x00017aa4:    6842        Bh      LDR      r2,[r0,#4]
        0x00017aa6:    6011        .`      STR      r1,[r2,#0]
        0x00017aa8:    6041        A`      STR      r1,[r0,#4]
        0x00017aaa:    4770        pG      BX       lr
    $d
        0x00017aac:    c001d46c    l...    DCD    3221345388
        0x00017ab0:    000178b7    .x..    DCD    96439
        0x00017ab4:    00017917    .y..    DCD    96535
    $t
    .text
    _nop_char_out
        0x00017ab8:    2000        .       MOVS     r0,#0
        0x00017aba:    4770        pG      BX       lr
    __printk_hook_install
        0x00017abc:    49f3        .I      LDR      r1,[pc,#972] ; [0x17e8c] = 0xc0019fc4
        0x00017abe:    6008        .`      STR      r0,[r1,#0]
        0x00017ac0:    4770        pG      BX       lr
    __printk_get_hook
        0x00017ac2:    48f2        .H      LDR      r0,[pc,#968] ; [0x17e8c] = 0xc0019fc4
        0x00017ac4:    6800        .h      LDR      r0,[r0,#0]
        0x00017ac6:    4770        pG      BX       lr
    _printk_dec_ulong
        0x00017ac8:    e92d5fff    -.._    PUSH     {r0-r12,lr}
        0x00017acc:    4cf0        .L      LDR      r4,[pc,#960] ; [0x17e90] = 0x3b9ac9ff
        0x00017ace:    f8dda038    ..8.    LDR      r10,[sp,#0x38]
        0x00017ad2:    270a        .'      MOVS     r7,#0xa
        0x00017ad4:    2601        .&      MOVS     r6,#1
        0x00017ad6:    4615        .F      MOV      r5,r2
        0x00017ad8:    4681        .F      MOV      r9,r0
        0x00017ada:    f04f0800    O...    MOV      r8,#0
        0x00017ade:    f1ba0f00    ....    CMP      r10,#0
        0x00017ae2:    dc01        ..      BGT      0x17ae8 ; _printk_dec_ulong + 32
        0x00017ae4:    f04f0a01    O...    MOV      r10,#1
        0x00017ae8:    f04f0b0a    O...    MOV      r11,#0xa
        0x00017aec:    42a5        .B      CMP      r5,r4
        0x00017aee:    d90d        ..      BLS      0x17b0c ; _printk_dec_ulong + 68
        0x00017af0:    1c60        `.      ADDS     r0,r4,#1
        0x00017af2:    fbb5f0f0    ....    UDIV     r0,r5,r0
        0x00017af6:    f04f0801    O...    MOV      r8,#1
        0x00017afa:    464a        JF      MOV      r2,r9
        0x00017afc:    3030        00      ADDS     r0,r0,#0x30
        0x00017afe:    9901        ..      LDR      r1,[sp,#4]
        0x00017b00:    e00e        ..      B        0x17b20 ; _printk_dec_ulong + 88
        0x00017b02:    bf00        ..      NOP      
        0x00017b04:    f1b80f00    ....    CMP      r8,#0
        0x00017b08:    d0f0        ..      BEQ      0x17aec ; _printk_dec_ulong + 36
        0x00017b0a:    e7f1        ..      B        0x17af0 ; _printk_dec_ulong + 40
        0x00017b0c:    4557        WE      CMP      r7,r10
        0x00017b0e:    dc09        ..      BGT      0x17b24 ; _printk_dec_ulong + 92
        0x00017b10:    9803        ..      LDR      r0,[sp,#0xc]
        0x00017b12:    2803        .(      CMP      r0,#3
        0x00017b14:    d206        ..      BCS      0x17b24 ; _printk_dec_ulong + 92
        0x00017b16:    2801        .(      CMP      r0,#1
        0x00017b18:    d019        ..      BEQ      0x17b4e ; _printk_dec_ulong + 134
        0x00017b1a:    2020                MOVS     r0,#0x20
        0x00017b1c:    464a        JF      MOV      r2,r9
        0x00017b1e:    9901        ..      LDR      r1,[sp,#4]
        0x00017b20:    4790        .G      BLX      r2
        0x00017b22:    1c76        v.      ADDS     r6,r6,#1
        0x00017b24:    1c60        `.      ADDS     r0,r4,#1
        0x00017b26:    fbb5f1f0    ....    UDIV     r1,r5,r0
        0x00017b2a:    fbb4f4fb    ....    UDIV     r4,r4,r11
        0x00017b2e:    fb005511    ...U    MLS      r5,r0,r1,r5
        0x00017b32:    1e7f        ..      SUBS     r7,r7,#1
        0x00017b34:    2c09        .,      CMP      r4,#9
        0x00017b36:    d2e5        ..      BCS      0x17b04 ; _printk_dec_ulong + 60
        0x00017b38:    f1050030    ..0.    ADD      r0,r5,#0x30
        0x00017b3c:    464a        JF      MOV      r2,r9
        0x00017b3e:    9901        ..      LDR      r1,[sp,#4]
        0x00017b40:    4790        .G      BLX      r2
        0x00017b42:    9803        ..      LDR      r0,[sp,#0xc]
        0x00017b44:    2803        .(      CMP      r0,#3
        0x00017b46:    d10c        ..      BNE      0x17b62 ; _printk_dec_ulong + 154
        0x00017b48:    ebaa0406    ....    SUB      r4,r10,r6
        0x00017b4c:    e005        ..      B        0x17b5a ; _printk_dec_ulong + 146
        0x00017b4e:    2030        0       MOVS     r0,#0x30
        0x00017b50:    e7e4        ..      B        0x17b1c ; _printk_dec_ulong + 84
        0x00017b52:    2020                MOVS     r0,#0x20
        0x00017b54:    464a        JF      MOV      r2,r9
        0x00017b56:    9901        ..      LDR      r1,[sp,#4]
        0x00017b58:    4790        .G      BLX      r2
        0x00017b5a:    1e20         .      SUBS     r0,r4,#0
        0x00017b5c:    f1a40401    ....    SUB      r4,r4,#1
        0x00017b60:    dcf7        ..      BGT      0x17b52 ; _printk_dec_ulong + 138
        0x00017b62:    e8bd9fff    ....    POP      {r0-r12,pc}
    _vprintk
        0x00017b66:    e92d4fff    -..O    PUSH     {r0-r11,lr}
        0x00017b6a:    2700        .'      MOVS     r7,#0
        0x00017b6c:    f04f3aff    O..:    MOV      r10,#0xffffffff
        0x00017b70:    b081        ..      SUB      sp,sp,#4
        0x00017b72:    469b        .F      MOV      r11,r3
        0x00017b74:    4616        .F      MOV      r6,r2
        0x00017b76:    4605        .F      MOV      r5,r0
        0x00017b78:    46b8        .F      MOV      r8,r7
        0x00017b7a:    4654        TF      MOV      r4,r10
        0x00017b7c:    46b9        .F      MOV      r9,r7
        0x00017b7e:    e060        `.      B        0x17c42 ; _vprintk + 220
        0x00017b80:    b197        ..      CBZ      r7,0x17ba8 ; _vprintk + 66
        0x00017b82:    2839        9(      CMP      r0,#0x39
        0x00017b84:    d047        G.      BEQ      0x17c16 ; _vprintk + 176
        0x00017b86:    dc1b        ..      BGT      0x17bc0 ; _vprintk + 90
        0x00017b88:    f1a00125    ..%.    SUB      r1,r0,#0x25
        0x00017b8c:    2914        .)      CMP      r1,#0x14
        0x00017b8e:    d233        3.      BCS      0x17bf8 ; _vprintk + 146
        0x00017b90:    e8dff001    ....    TBB      [pc,r1]
    $d
        0x00017b94:    323232ca    .222    DCD    842150602
        0x00017b98:    32323232    2222    DCD    842150450
        0x00017b9c:    3a323238    822:    DCD    976368184
        0x00017ba0:    41414141    AAAA    DCD    1094795585
        0x00017ba4:    41414141    AAAA    DCD    1094795585
    $t
        0x00017ba8:    b2c0        ..      UXTB     r0,r0
        0x00017baa:    2825        %(      CMP      r0,#0x25
        0x00017bac:    d002        ..      BEQ      0x17bb4 ; _vprintk + 78
        0x00017bae:    9902        ..      LDR      r1,[sp,#8]
        0x00017bb0:    47a8        .G      BLX      r5
        0x00017bb2:    e045        E.      B        0x17c40 ; _vprintk + 218
        0x00017bb4:    f04f0800    O...    MOV      r8,#0
        0x00017bb8:    2701        .'      MOVS     r7,#1
        0x00017bba:    4654        TF      MOV      r4,r10
        0x00017bbc:    4640        @F      MOV      r0,r8
        0x00017bbe:    e03e        >.      B        0x17c3e ; _vprintk + 216
        0x00017bc0:    286c        l(      CMP      r0,#0x6c
        0x00017bc2:    d03a        :.      BEQ      0x17c3a ; _vprintk + 212
        0x00017bc4:    dc0c        ..      BGT      0x17be0 ; _vprintk + 122
        0x00017bc6:    2864        d(      CMP      r0,#0x64
        0x00017bc8:    d041        A.      BEQ      0x17c4e ; _vprintk + 232
        0x00017bca:    dc04        ..      BGT      0x17bd6 ; _vprintk + 112
        0x00017bcc:    2858        X(      CMP      r0,#0x58
        0x00017bce:    d078        x.      BEQ      0x17cc2 ; _vprintk + 348
        0x00017bd0:    2863        c(      CMP      r0,#0x63
        0x00017bd2:    d111        ..      BNE      0x17bf8 ; _vprintk + 146
        0x00017bd4:    e0a4        ..      B        0x17d20 ; _vprintk + 442
        0x00017bd6:    2868        h(      CMP      r0,#0x68
        0x00017bd8:    d032        2.      BEQ      0x17c40 ; _vprintk + 218
        0x00017bda:    2869        i(      CMP      r0,#0x69
        0x00017bdc:    d10c        ..      BNE      0x17bf8 ; _vprintk + 146
        0x00017bde:    e036        6.      B        0x17c4e ; _vprintk + 232
        0x00017be0:    2875        u(      CMP      r0,#0x75
        0x00017be2:    d04e        N.      BEQ      0x17c82 ; _vprintk + 284
        0x00017be4:    dc04        ..      BGT      0x17bf0 ; _vprintk + 138
        0x00017be6:    2870        p(      CMP      r0,#0x70
        0x00017be8:    d062        b.      BEQ      0x17cb0 ; _vprintk + 330
        0x00017bea:    2873        s(      CMP      r0,#0x73
        0x00017bec:    d104        ..      BNE      0x17bf8 ; _vprintk + 146
        0x00017bee:    e07e        ~.      B        0x17cee ; _vprintk + 392
        0x00017bf0:    2878        x(      CMP      r0,#0x78
        0x00017bf2:    d066        f.      BEQ      0x17cc2 ; _vprintk + 348
        0x00017bf4:    287a        z(      CMP      r0,#0x7a
        0x00017bf6:    d023        #.      BEQ      0x17c40 ; _vprintk + 218
        0x00017bf8:    2025        %       MOVS     r0,#0x25
        0x00017bfa:    9902        ..      LDR      r1,[sp,#8]
        0x00017bfc:    47a8        .G      BLX      r5
        0x00017bfe:    7830        0x      LDRB     r0,[r6,#0]
        0x00017c00:    9902        ..      LDR      r1,[sp,#8]
        0x00017c02:    e093        ..      B        0x17d2c ; _vprintk + 454
        0x00017c04:    2003        .       MOVS     r0,#3
        0x00017c06:    e016        ..      B        0x17c36 ; _vprintk + 208
        0x00017c08:    2c00        .,      CMP      r4,#0
        0x00017c0a:    da09        ..      BGE      0x17c20 ; _vprintk + 186
        0x00017c0c:    f1b80f00    ....    CMP      r8,#0
        0x00017c10:    d103        ..      BNE      0x17c1a ; _vprintk + 180
        0x00017c12:    2001        .       MOVS     r0,#1
        0x00017c14:    e00f        ..      B        0x17c36 ; _vprintk + 208
        0x00017c16:    2c00        .,      CMP      r4,#0
        0x00017c18:    da02        ..      BGE      0x17c20 ; _vprintk + 186
        0x00017c1a:    f1a00430    ..0.    SUB      r4,r0,#0x30
        0x00017c1e:    e006        ..      B        0x17c2e ; _vprintk + 200
        0x00017c20:    eb040184    ....    ADD      r1,r4,r4,LSL #2
        0x00017c24:    f06f022f    o./.    MVN      r2,#0x2f
        0x00017c28:    eb020141    ..A.    ADD      r1,r2,r1,LSL #1
        0x00017c2c:    1844        D.      ADDS     r4,r0,r1
        0x00017c2e:    f1b80f00    ....    CMP      r8,#0
        0x00017c32:    d105        ..      BNE      0x17c40 ; _vprintk + 218
        0x00017c34:    2002        .       MOVS     r0,#2
        0x00017c36:    4680        .F      MOV      r8,r0
        0x00017c38:    e002        ..      B        0x17c40 ; _vprintk + 218
        0x00017c3a:    f1090001    ....    ADD      r0,r9,#1
        0x00017c3e:    4681        .F      MOV      r9,r0
        0x00017c40:    1c76        v.      ADDS     r6,r6,#1
        0x00017c42:    7830        0x      LDRB     r0,[r6,#0]
        0x00017c44:    2800        .(      CMP      r0,#0
        0x00017c46:    d19b        ..      BNE      0x17b80 ; _vprintk + 26
        0x00017c48:    b005        ..      ADD      sp,sp,#0x14
        0x00017c4a:    e8bd8ff0    ....    POP      {r4-r11,pc}
        0x00017c4e:    f1b90f02    ....    CMP      r9,#2
        0x00017c52:    da04        ..      BGE      0x17c5e ; _vprintk + 248
        0x00017c54:    f10b0004    ....    ADD      r0,r11,#4
        0x00017c58:    f8db7000    ...p    LDR      r7,[r11,#0]
        0x00017c5c:    e005        ..      B        0x17c6a ; _vprintk + 260
        0x00017c5e:    f10b0007    ....    ADD      r0,r11,#7
        0x00017c62:    f0200007     ...    BIC      r0,r0,#7
        0x00017c66:    f8507b08    P..{    LDR      r7,[r0],#8
        0x00017c6a:    4683        .F      MOV      r11,r0
        0x00017c6c:    2f00        ./      CMP      r7,#0
        0x00017c6e:    da04        ..      BGE      0x17c7a ; _vprintk + 276
        0x00017c70:    202d        -       MOVS     r0,#0x2d
        0x00017c72:    9902        ..      LDR      r1,[sp,#8]
        0x00017c74:    47a8        .G      BLX      r5
        0x00017c76:    427f        .B      RSBS     r7,r7,#0
        0x00017c78:    1e64        d.      SUBS     r4,r4,#1
        0x00017c7a:    4643        CF      MOV      r3,r8
        0x00017c7c:    463a        :F      MOV      r2,r7
        0x00017c7e:    9400        ..      STR      r4,[sp,#0]
        0x00017c80:    e010        ..      B        0x17ca4 ; _vprintk + 318
        0x00017c82:    f1b90f02    ....    CMP      r9,#2
        0x00017c86:    da04        ..      BGE      0x17c92 ; _vprintk + 300
        0x00017c88:    f10b0004    ....    ADD      r0,r11,#4
        0x00017c8c:    f8db2000    ...     LDR      r2,[r11,#0]
        0x00017c90:    e005        ..      B        0x17c9e ; _vprintk + 312
        0x00017c92:    f10b0007    ....    ADD      r0,r11,#7
        0x00017c96:    f0200007     ...    BIC      r0,r0,#7
        0x00017c9a:    f8502b08    P..+    LDR      r2,[r0],#8
        0x00017c9e:    4683        .F      MOV      r11,r0
        0x00017ca0:    4643        CF      MOV      r3,r8
        0x00017ca2:    9400        ..      STR      r4,[sp,#0]
        0x00017ca4:    4628        (F      MOV      r0,r5
        0x00017ca6:    9902        ..      LDR      r1,[sp,#8]
        0x00017ca8:    f7ffff0e    ....    BL       _printk_dec_ulong ; 0x17ac8
        0x00017cac:    e03f        ?.      B        0x17d2e ; _vprintk + 456
        0x00017cae:    e008        ..      B        0x17cc2 ; _vprintk + 348
        0x00017cb0:    2030        0       MOVS     r0,#0x30
        0x00017cb2:    9902        ..      LDR      r1,[sp,#8]
        0x00017cb4:    47a8        .G      BLX      r5
        0x00017cb6:    2078        x       MOVS     r0,#0x78
        0x00017cb8:    9902        ..      LDR      r1,[sp,#8]
        0x00017cba:    47a8        .G      BLX      r5
        0x00017cbc:    f04f0801    O...    MOV      r8,#1
        0x00017cc0:    2408        .$      MOVS     r4,#8
        0x00017cc2:    f1b90f02    ....    CMP      r9,#2
        0x00017cc6:    da04        ..      BGE      0x17cd2 ; _vprintk + 364
        0x00017cc8:    f10b0004    ....    ADD      r0,r11,#4
        0x00017ccc:    f8db2000    ...     LDR      r2,[r11,#0]
        0x00017cd0:    e005        ..      B        0x17cde ; _vprintk + 376
        0x00017cd2:    f10b0007    ....    ADD      r0,r11,#7
        0x00017cd6:    f0200007     ...    BIC      r0,r0,#7
        0x00017cda:    f8502b08    P..+    LDR      r2,[r0],#8
        0x00017cde:    4683        .F      MOV      r11,r0
        0x00017ce0:    4643        CF      MOV      r3,r8
        0x00017ce2:    9400        ..      STR      r4,[sp,#0]
        0x00017ce4:    4628        (F      MOV      r0,r5
        0x00017ce6:    9902        ..      LDR      r1,[sp,#8]
        0x00017ce8:    f000f88c    ....    BL       _printk_hex_ulong ; 0x17e04
        0x00017cec:    e01f        ..      B        0x17d2e ; _vprintk + 456
        0x00017cee:    f85b7b04    [..{    LDR      r7,[r11],#4
        0x00017cf2:    9700        ..      STR      r7,[sp,#0]
        0x00017cf4:    e002        ..      B        0x17cfc ; _vprintk + 406
        0x00017cf6:    1c7f        ..      ADDS     r7,r7,#1
        0x00017cf8:    9902        ..      LDR      r1,[sp,#8]
        0x00017cfa:    47a8        .G      BLX      r5
        0x00017cfc:    7838        8x      LDRB     r0,[r7,#0]
        0x00017cfe:    2800        .(      CMP      r0,#0
        0x00017d00:    d1f9        ..      BNE      0x17cf6 ; _vprintk + 400
        0x00017d02:    f1b80f03    ....    CMP      r8,#3
        0x00017d06:    d112        ..      BNE      0x17d2e ; _vprintk + 456
        0x00017d08:    9800        ..      LDR      r0,[sp,#0]
        0x00017d0a:    1a38        8.      SUBS     r0,r7,r0
        0x00017d0c:    1a27        '.      SUBS     r7,r4,r0
        0x00017d0e:    e002        ..      B        0x17d16 ; _vprintk + 432
        0x00017d10:    2020                MOVS     r0,#0x20
        0x00017d12:    9902        ..      LDR      r1,[sp,#8]
        0x00017d14:    47a8        .G      BLX      r5
        0x00017d16:    1e38        8.      SUBS     r0,r7,#0
        0x00017d18:    f1a70701    ....    SUB      r7,r7,#1
        0x00017d1c:    dcf8        ..      BGT      0x17d10 ; _vprintk + 426
        0x00017d1e:    e006        ..      B        0x17d2e ; _vprintk + 456
        0x00017d20:    f85b0b04    [...    LDR      r0,[r11],#4
        0x00017d24:    9902        ..      LDR      r1,[sp,#8]
        0x00017d26:    e001        ..      B        0x17d2c ; _vprintk + 454
        0x00017d28:    2025        %       MOVS     r0,#0x25
        0x00017d2a:    9902        ..      LDR      r1,[sp,#8]
        0x00017d2c:    47a8        .G      BLX      r5
        0x00017d2e:    f8160f01    ....    LDRB     r0,[r6,#1]!
        0x00017d32:    2700        .'      MOVS     r7,#0
        0x00017d34:    2800        .(      CMP      r0,#0
        0x00017d36:    f47faf37    ..7.    BNE      0x17ba8 ; _vprintk + 66
        0x00017d3a:    e785        ..      B        0x17c48 ; _vprintk + 226
    char_out
        0x00017d3c:    680a        .h      LDR      r2,[r1,#0]
        0x00017d3e:    1c52        R.      ADDS     r2,r2,#1
        0x00017d40:    600a        .`      STR      r2,[r1,#0]
        0x00017d42:    4952        RI      LDR      r1,[pc,#328] ; [0x17e8c] = 0xc0019fc4
        0x00017d44:    6809        .h      LDR      r1,[r1,#0]
        0x00017d46:    4708        .G      BX       r1
    vprintk
        0x00017d48:    b508        ..      PUSH     {r3,lr}
        0x00017d4a:    2200        ."      MOVS     r2,#0
        0x00017d4c:    9200        ..      STR      r2,[sp,#0]
        0x00017d4e:    460b        .F      MOV      r3,r1
        0x00017d50:    4602        .F      MOV      r2,r0
        0x00017d52:    4669        iF      MOV      r1,sp
        0x00017d54:    484f        OH      LDR      r0,[pc,#316] ; [0x17e94] = 0x17d3d
        0x00017d56:    f7ffff06    ....    BL       _vprintk ; 0x17b66
        0x00017d5a:    9800        ..      LDR      r0,[sp,#0]
        0x00017d5c:    bd08        ..      POP      {r3,pc}
    _impl_k_str_out
        0x00017d5e:    e92d41f0    -..A    PUSH     {r4-r8,lr}
        0x00017d62:    460d        .F      MOV      r5,r1
        0x00017d64:    4606        .F      MOV      r6,r0
        0x00017d66:    2400        .$      MOVS     r4,#0
        0x00017d68:    4f48        HO      LDR      r7,[pc,#288] ; [0x17e8c] = 0xc0019fc4
        0x00017d6a:    e003        ..      B        0x17d74 ; _impl_k_str_out + 22
        0x00017d6c:    6839        9h      LDR      r1,[r7,#0]
        0x00017d6e:    5d30        0]      LDRB     r0,[r6,r4]
        0x00017d70:    4788        .G      BLX      r1
        0x00017d72:    1c64        d.      ADDS     r4,r4,#1
        0x00017d74:    42ac        .B      CMP      r4,r5
        0x00017d76:    d3f9        ..      BCC      0x17d6c ; _impl_k_str_out + 14
        0x00017d78:    e8bd81f0    ....    POP      {r4-r8,pc}
    printk
        0x00017d7c:    b40f        ..      PUSH     {r0-r3}
        0x00017d7e:    b510        ..      PUSH     {r4,lr}
        0x00017d80:    a903        ..      ADD      r1,sp,#0xc
        0x00017d82:    9802        ..      LDR      r0,[sp,#8]
        0x00017d84:    f7ffffe0    ....    BL       vprintk ; 0x17d48
        0x00017d88:    bc10        ..      POP      {r4}
        0x00017d8a:    f85dfb14    ]...    LDR      pc,[sp],#0x14
    str_out
        0x00017d8e:    b530        0.      PUSH     {r4,r5,lr}
        0x00017d90:    688a        .h      LDR      r2,[r1,#8]
        0x00017d92:    680c        .h      LDR      r4,[r1,#0]
        0x00017d94:    1c53        S.      ADDS     r3,r2,#1
        0x00017d96:    b114        ..      CBZ      r4,0x17d9e ; str_out + 16
        0x00017d98:    684d        Mh      LDR      r5,[r1,#4]
        0x00017d9a:    42aa        .B      CMP      r2,r5
        0x00017d9c:    db01        ..      BLT      0x17da2 ; str_out + 20
        0x00017d9e:    608b        .`      STR      r3,[r1,#8]
        0x00017da0:    bd30        0.      POP      {r4,r5,pc}
        0x00017da2:    1e6d        m.      SUBS     r5,r5,#1
        0x00017da4:    42aa        .B      CMP      r2,r5
        0x00017da6:    d103        ..      BNE      0x17db0 ; str_out + 34
        0x00017da8:    2500        .%      MOVS     r5,#0
        0x00017daa:    608b        .`      STR      r3,[r1,#8]
        0x00017dac:    54a5        .T      STRB     r5,[r4,r2]
        0x00017dae:    bd30        0.      POP      {r4,r5,pc}
        0x00017db0:    608b        .`      STR      r3,[r1,#8]
        0x00017db2:    54a0        .T      STRB     r0,[r4,r2]
        0x00017db4:    bd30        0.      POP      {r4,r5,pc}
    snprintk
        0x00017db6:    b40f        ..      PUSH     {r0-r3}
        0x00017db8:    b53e        >.      PUSH     {r1-r5,lr}
        0x00017dba:    4604        .F      MOV      r4,r0
        0x00017dbc:    e9cd0100    ....    STRD     r0,r1,[sp,#0]
        0x00017dc0:    2500        .%      MOVS     r5,#0
        0x00017dc2:    ab09        ..      ADD      r3,sp,#0x24
        0x00017dc4:    9502        ..      STR      r5,[sp,#8]
        0x00017dc6:    4669        iF      MOV      r1,sp
        0x00017dc8:    4833        3H      LDR      r0,[pc,#204] ; [0x17e98] = 0x17d8f
        0x00017dca:    9a08        ..      LDR      r2,[sp,#0x20]
        0x00017dcc:    f7fffecb    ....    BL       _vprintk ; 0x17b66
        0x00017dd0:    e9dd1001    ....    LDRD     r1,r0,[sp,#4]
        0x00017dd4:    4288        .B      CMP      r0,r1
        0x00017dd6:    da00        ..      BGE      0x17dda ; snprintk + 36
        0x00017dd8:    5425        %T      STRB     r5,[r4,r0]
        0x00017dda:    9802        ..      LDR      r0,[sp,#8]
        0x00017ddc:    bc3e        >.      POP      {r1-r5}
        0x00017dde:    f85dfb14    ]...    LDR      pc,[sp],#0x14
    vsnprintk
        0x00017de2:    b53e        >.      PUSH     {r1-r5,lr}
        0x00017de4:    4604        .F      MOV      r4,r0
        0x00017de6:    e9cd0100    ....    STRD     r0,r1,[sp,#0]
        0x00017dea:    2500        .%      MOVS     r5,#0
        0x00017dec:    9502        ..      STR      r5,[sp,#8]
        0x00017dee:    4669        iF      MOV      r1,sp
        0x00017df0:    4829        )H      LDR      r0,[pc,#164] ; [0x17e98] = 0x17d8f
        0x00017df2:    f7fffeb8    ....    BL       _vprintk ; 0x17b66
        0x00017df6:    e9dd1001    ....    LDRD     r1,r0,[sp,#4]
        0x00017dfa:    4288        .B      CMP      r0,r1
        0x00017dfc:    da00        ..      BGE      0x17e00 ; vsnprintk + 30
        0x00017dfe:    5425        %T      STRB     r5,[r4,r0]
        0x00017e00:    9802        ..      LDR      r0,[sp,#8]
        0x00017e02:    bd3e        >.      POP      {r1-r5,pc}
    _printk_hex_ulong
        0x00017e04:    e92d5fff    -.._    PUSH     {r0-r12,lr}
        0x00017e08:    2408        .$      MOVS     r4,#8
        0x00017e0a:    2700        .'      MOVS     r7,#0
        0x00017e0c:    f8dda038    ..8.    LDR      r10,[sp,#0x38]
        0x00017e10:    469b        .F      MOV      r11,r3
        0x00017e12:    4691        .F      MOV      r9,r2
        0x00017e14:    4605        .F      MOV      r5,r0
        0x00017e16:    46a0        .F      MOV      r8,r4
        0x00017e18:    463e        >F      MOV      r6,r7
        0x00017e1a:    00a1        ..      LSLS     r1,r4,#2
        0x00017e1c:    1f09        ..      SUBS     r1,r1,#4
        0x00017e1e:    fa29f001    )...    LSR      r0,r9,r1
        0x00017e22:    f000000f    ....    AND      r0,r0,#0xf
        0x00017e26:    ea500107    P...    ORRS     r1,r0,r7
        0x00017e2a:    d10d        ..      BNE      0x17e48 ; _printk_hex_ulong + 68
        0x00017e2c:    2c01        .,      CMP      r4,#1
        0x00017e2e:    d00b        ..      BEQ      0x17e48 ; _printk_hex_ulong + 68
        0x00017e30:    4640        @F      MOV      r0,r8
        0x00017e32:    f1a80801    ....    SUB      r8,r8,#1
        0x00017e36:    4550        PE      CMP      r0,r10
        0x00017e38:    dc17        ..      BGT      0x17e6a ; _printk_hex_ulong + 102
        0x00017e3a:    f1bb0f01    ....    CMP      r11,#1
        0x00017e3e:    d00e        ..      BEQ      0x17e5e ; _printk_hex_ulong + 90
        0x00017e40:    f1bb0f02    ....    CMP      r11,#2
        0x00017e44:    d00e        ..      BEQ      0x17e64 ; _printk_hex_ulong + 96
        0x00017e46:    e010        ..      B        0x17e6a ; _printk_hex_ulong + 102
        0x00017e48:    2701        .'      MOVS     r7,#1
        0x00017e4a:    2809        .(      CMP      r0,#9
        0x00017e4c:    d901        ..      BLS      0x17e52 ; _printk_hex_ulong + 78
        0x00017e4e:    2157        W!      MOVS     r1,#0x57
        0x00017e50:    e000        ..      B        0x17e54 ; _printk_hex_ulong + 80
        0x00017e52:    2130        0!      MOVS     r1,#0x30
        0x00017e54:    4408        .D      ADD      r0,r0,r1
        0x00017e56:    9901        ..      LDR      r1,[sp,#4]
        0x00017e58:    47a8        .G      BLX      r5
        0x00017e5a:    1c76        v.      ADDS     r6,r6,#1
        0x00017e5c:    e005        ..      B        0x17e6a ; _printk_hex_ulong + 102
        0x00017e5e:    2030        0       MOVS     r0,#0x30
        0x00017e60:    9901        ..      LDR      r1,[sp,#4]
        0x00017e62:    e001        ..      B        0x17e68 ; _printk_hex_ulong + 100
        0x00017e64:    2020                MOVS     r0,#0x20
        0x00017e66:    9901        ..      LDR      r1,[sp,#4]
        0x00017e68:    47a8        .G      BLX      r5
        0x00017e6a:    1e64        d.      SUBS     r4,r4,#1
        0x00017e6c:    d1d5        ..      BNE      0x17e1a ; _printk_hex_ulong + 22
        0x00017e6e:    f1bb0f03    ....    CMP      r11,#3
        0x00017e72:    d109        ..      BNE      0x17e88 ; _printk_hex_ulong + 132
        0x00017e74:    ebc6044a    ..J.    RSB      r4,r6,r10,LSL #1
        0x00017e78:    e002        ..      B        0x17e80 ; _printk_hex_ulong + 124
        0x00017e7a:    2020                MOVS     r0,#0x20
        0x00017e7c:    9901        ..      LDR      r1,[sp,#4]
        0x00017e7e:    47a8        .G      BLX      r5
        0x00017e80:    1e20         .      SUBS     r0,r4,#0
        0x00017e82:    f1a40401    ....    SUB      r4,r4,#1
        0x00017e86:    dcf8        ..      BGT      0x17e7a ; _printk_hex_ulong + 118
        0x00017e88:    e66b        k.      B        0x17b62 ; _printk_dec_ulong + 154
    $d
        0x00017e8a:    0000        ..      DCW    0
        0x00017e8c:    c0019fc4    ....    DCD    3221331908
        0x00017e90:    3b9ac9ff    ...;    DCD    999999999
        0x00017e94:    00017d3d    =}..    DCD    97597
        0x00017e98:    00017d8f    .}..    DCD    97679
    $t
    .text
    get_bit_ptr
        0x00017e9c:    b530        0.      PUSH     {r4,r5,lr}
        0x00017e9e:    7ac5        .z      LDRB     r5,[r0,#0xb]
        0x00017ea0:    68c0        .h      LDR      r0,[r0,#0xc]
        0x00017ea2:    eb010441    ..A.    ADD      r4,r1,r1,LSL #1
        0x00017ea6:    428d        .B      CMP      r5,r1
        0x00017ea8:    db02        ..      BLT      0x17eb0 ; get_bit_ptr + 20
        0x00017eaa:    eb000084    ....    ADD      r0,r0,r4,LSL #2
        0x00017eae:    e001        ..      B        0x17eb4 ; get_bit_ptr + 24
        0x00017eb0:    f8500024    P.$.    LDR      r0,[r0,r4,LSL #2]
        0x00017eb4:    17d1        ..      ASRS     r1,r2,#31
        0x00017eb6:    eb0261d1    ...a    ADD      r1,r2,r1,LSR #27
        0x00017eba:    1149        I.      ASRS     r1,r1,#5
        0x00017ebc:    eb000081    ....    ADD      r0,r0,r1,LSL #2
        0x00017ec0:    6018        .`      STR      r0,[r3,#0]
        0x00017ec2:    f002001f    ....    AND      r0,r2,#0x1f
        0x00017ec6:    bd30        0.      POP      {r4,r5,pc}
    _sys_mem_pool_base_init
        0x00017ec8:    e92d41f0    -..A    PUSH     {r4-r8,lr}
        0x00017ecc:    4604        .F      MOV      r4,r0
        0x00017ece:    8905        ..      LDRH     r5,[r0,#8]
        0x00017ed0:    6841        Ah      LDR      r1,[r0,#4]
        0x00017ed2:    6800        .h      LDR      r0,[r0,#0]
        0x00017ed4:    434d        MC      MULS     r5,r1,r5
        0x00017ed6:    1946        F.      ADDS     r6,r0,r5
        0x00017ed8:    2000        .       MOVS     r0,#0
        0x00017eda:    e01f        ..      B        0x17f1c ; _sys_mem_pool_base_init + 84
        0x00017edc:    fbb5f3f1    ....    UDIV     r3,r5,r1
        0x00017ee0:    eb000740    ..@.    ADD      r7,r0,r0,LSL #1
        0x00017ee4:    f04f0c04    O...    MOV      r12,#4
        0x00017ee8:    68e2        .h      LDR      r2,[r4,#0xc]
        0x00017eea:    eb0c0c87    ....    ADD      r12,r12,r7,LSL #2
        0x00017eee:    4462        bD      ADD      r2,r2,r12
        0x00017ef0:    2b20         +      CMP      r3,#0x20
        0x00017ef2:    6012        .`      STR      r2,[r2,#0]
        0x00017ef4:    6052        R`      STR      r2,[r2,#4]
        0x00017ef6:    da01        ..      BGE      0x17efc ; _sys_mem_pool_base_init + 52
        0x00017ef8:    72e0        .r      STRB     r0,[r4,#0xb]
        0x00017efa:    e009        ..      B        0x17f10 ; _sys_mem_pool_base_init + 72
        0x00017efc:    68e2        .h      LDR      r2,[r4,#0xc]
        0x00017efe:    331f        .3      ADDS     r3,r3,#0x1f
        0x00017f00:    f8426027    B.'`    STR      r6,[r2,r7,LSL #2]
        0x00017f04:    17da        ..      ASRS     r2,r3,#31
        0x00017f06:    eb0362d2    ...b    ADD      r2,r3,r2,LSR #27
        0x00017f0a:    1152        R.      ASRS     r2,r2,#5
        0x00017f0c:    eb060682    ....    ADD      r6,r6,r2,LSL #2
        0x00017f10:    2203        ."      MOVS     r2,#3
        0x00017f12:    eb020191    ....    ADD      r1,r2,r1,LSR #2
        0x00017f16:    f0210103    !...    BIC      r1,r1,#3
        0x00017f1a:    1c40        @.      ADDS     r0,r0,#1
        0x00017f1c:    7aa2        .z      LDRB     r2,[r4,#0xa]
        0x00017f1e:    4282        .B      CMP      r2,r0
        0x00017f20:    dcdc        ..      BGT      0x17edc ; _sys_mem_pool_base_init + 20
        0x00017f22:    2500        .%      MOVS     r5,#0
        0x00017f24:    e00e        ..      B        0x17f44 ; _sys_mem_pool_base_init + 124
        0x00017f26:    bf00        ..      NOP      
        0x00017f28:    e9d41000    ....    LDRD     r1,r0,[r4,#0]
        0x00017f2c:    fb001105    ....    MLA      r1,r0,r5,r1
        0x00017f30:    68e0        .h      LDR      r0,[r4,#0xc]
        0x00017f32:    1d00        ..      ADDS     r0,r0,#4
        0x00017f34:    f000f97f    ....    BL       sys_dlist_append ; 0x18236
        0x00017f38:    462a        *F      MOV      r2,r5
        0x00017f3a:    2100        .!      MOVS     r1,#0
        0x00017f3c:    4620         F      MOV      r0,r4
        0x00017f3e:    f000f987    ....    BL       set_free_bit ; 0x18250
        0x00017f42:    1c6d        m.      ADDS     r5,r5,#1
        0x00017f44:    8920         .      LDRH     r0,[r4,#8]
        0x00017f46:    42a8        .B      CMP      r0,r5
        0x00017f48:    dcee        ..      BGT      0x17f28 ; _sys_mem_pool_base_init + 96
        0x00017f4a:    e8bd81f0    ....    POP      {r4-r8,pc}
    block_free
        0x00017f4e:    e92d4ff8    -..O    PUSH     {r3-r11,lr}
        0x00017f52:    4693        .F      MOV      r11,r2
        0x00017f54:    460e        .F      MOV      r6,r1
        0x00017f56:    4680        .F      MOV      r8,r0
        0x00017f58:    f85b9026    [.&.    LDR      r9,[r11,r6,LSL #2]
        0x00017f5c:    f8d81000    ....    LDR      r1,[r8,#0]
        0x00017f60:    461c        .F      MOV      r4,r3
        0x00017f62:    fb091504    ....    MLA      r5,r9,r4,r1
        0x00017f66:    461a        .F      MOV      r2,r3
        0x00017f68:    4631        1F      MOV      r1,r6
        0x00017f6a:    4640        @F      MOV      r0,r8
        0x00017f6c:    f000f970    ..p.    BL       set_free_bit ; 0x18250
        0x00017f70:    b18e        ..      CBZ      r6,0x17f96 ; block_free + 72
        0x00017f72:    4640        @F      MOV      r0,r8
        0x00017f74:    4631        1F      MOV      r1,r6
        0x00017f76:    4622        "F      MOV      r2,r4
        0x00017f78:    466b        kF      MOV      r3,sp
        0x00017f7a:    f7ffff8f    ....    BL       get_bit_ptr ; 0x17e9c
        0x00017f7e:    9900        ..      LDR      r1,[sp,#0]
        0x00017f80:    17c2        ..      ASRS     r2,r0,#31
        0x00017f82:    eb007092    ...p    ADD      r0,r0,r2,LSR #30
        0x00017f86:    6809        .h      LDR      r1,[r1,#0]
        0x00017f88:    f0200003     ...    BIC      r0,r0,#3
        0x00017f8c:    40c1        .@      LSRS     r1,r1,r0
        0x00017f8e:    f001000f    ....    AND      r0,r1,#0xf
        0x00017f92:    280f        .(      CMP      r0,#0xf
        0x00017f94:    d013        ..      BEQ      0x17fbe ; block_free + 112
        0x00017f96:    464a        JF      MOV      r2,r9
        0x00017f98:    4629        )F      MOV      r1,r5
        0x00017f9a:    4640        @F      MOV      r0,r8
        0x00017f9c:    f000f96e    ..n.    BL       block_fits ; 0x1827c
        0x00017fa0:    2800        .(      CMP      r0,#0
        0x00017fa2:    d030        0.      BEQ      0x18006 ; block_free + 184
        0x00017fa4:    eb060146    ..F.    ADD      r1,r6,r6,LSL #1
        0x00017fa8:    2204        ."      MOVS     r2,#4
        0x00017faa:    f8d8000c    ....    LDR      r0,[r8,#0xc]
        0x00017fae:    eb020181    ....    ADD      r1,r2,r1,LSL #2
        0x00017fb2:    4408        .D      ADD      r0,r0,r1
        0x00017fb4:    4629        )F      MOV      r1,r5
        0x00017fb6:    e8bd4ff8    ...O    POP      {r3-r11,lr}
        0x00017fba:    f000b93c    ..<.    B.W      sys_dlist_append ; 0x18236
        0x00017fbe:    2700        .'      MOVS     r7,#0
        0x00017fc0:    f0240a03    $...    BIC      r10,r4,#3
        0x00017fc4:    eb0a0507    ....    ADD      r5,r10,r7
        0x00017fc8:    462a        *F      MOV      r2,r5
        0x00017fca:    4631        1F      MOV      r1,r6
        0x00017fcc:    4640        @F      MOV      r0,r8
        0x00017fce:    f000f94a    ..J.    BL       clear_free_bit ; 0x18266
        0x00017fd2:    42a5        .B      CMP      r5,r4
        0x00017fd4:    d00e        ..      BEQ      0x17ff4 ; block_free + 166
        0x00017fd6:    f8d81000    ....    LDR      r1,[r8,#0]
        0x00017fda:    464a        JF      MOV      r2,r9
        0x00017fdc:    fb091105    ....    MLA      r1,r9,r5,r1
        0x00017fe0:    4640        @F      MOV      r0,r8
        0x00017fe2:    f000f94b    ..K.    BL       block_fits ; 0x1827c
        0x00017fe6:    b128        (.      CBZ      r0,0x17ff4 ; block_free + 166
        0x00017fe8:    f8d81000    ....    LDR      r1,[r8,#0]
        0x00017fec:    fb091005    ....    MLA      r0,r9,r5,r1
        0x00017ff0:    f000f928    ..(.    BL       sys_dlist_remove ; 0x18244
        0x00017ff4:    1c7f        ..      ADDS     r7,r7,#1
        0x00017ff6:    2f04        ./      CMP      r7,#4
        0x00017ff8:    dbe4        ..      BLT      0x17fc4 ; block_free + 118
        0x00017ffa:    17e0        ..      ASRS     r0,r4,#31
        0x00017ffc:    eb047090    ...p    ADD      r0,r4,r0,LSR #30
        0x00018000:    1083        ..      ASRS     r3,r0,#2
        0x00018002:    1e76        v.      SUBS     r6,r6,#1
        0x00018004:    e7a8        ..      B        0x17f58 ; block_free + 10
        0x00018006:    e8bd8ff8    ....    POP      {r3-r11,pc}
    _sys_mem_pool_block_alloc
        0x0001800a:    e92d4fff    -..O    PUSH     {r0-r11,lr}
        0x0001800e:    4680        .F      MOV      r8,r0
        0x00018010:    7a80        .z      LDRB     r0,[r0,#0xa]
        0x00018012:    f04f34ff    O..4    MOV      r4,#0xffffffff
        0x00018016:    b083        ..      SUB      sp,sp,#0xc
        0x00018018:    468a        .F      MOV      r10,r1
        0x0001801a:    46a1        .F      MOV      r9,r4
        0x0001801c:    0080        ..      LSLS     r0,r0,#2
        0x0001801e:    f001fcd5    ....    BL       malloc ; 0x199cc
        0x00018022:    4605        .F      MOV      r5,r0
        0x00018024:    f8d80004    ....    LDR      r0,[r8,#4]
        0x00018028:    2700        .'      MOVS     r7,#0
        0x0001802a:    1cc0        ..      ADDS     r0,r0,#3
        0x0001802c:    f0200103     ...    BIC      r1,r0,#3
        0x00018030:    2304        .#      MOVS     r3,#4
        0x00018032:    4638        8F      MOV      r0,r7
        0x00018034:    6029        )`      STR      r1,[r5,#0]
        0x00018036:    e01d        ..      B        0x18074 ; _sys_mem_pool_block_alloc + 106
        0x00018038:    2f00        ./      CMP      r7,#0
        0x0001803a:    dd0a        ..      BLE      0x18052 ; _sys_mem_pool_block_alloc + 72
        0x0001803c:    eb050187    ....    ADD      r1,r5,r7,LSL #2
        0x00018040:    2203        ."      MOVS     r2,#3
        0x00018042:    f8511c04    Q...    LDR      r1,[r1,#-4]
        0x00018046:    eb020191    ....    ADD      r1,r2,r1,LSR #2
        0x0001804a:    f0210103    !...    BIC      r1,r1,#3
        0x0001804e:    f8451027    E.'.    STR      r1,[r5,r7,LSL #2]
        0x00018052:    f8552027    U.'     LDR      r2,[r5,r7,LSL #2]
        0x00018056:    4552        RE      CMP      r2,r10
        0x00018058:    d310        ..      BCC      0x1807c ; _sys_mem_pool_block_alloc + 114
        0x0001805a:    eb070247    ..G.    ADD      r2,r7,r7,LSL #1
        0x0001805e:    f8d8100c    ....    LDR      r1,[r8,#0xc]
        0x00018062:    eb030282    ....    ADD      r2,r3,r2,LSL #2
        0x00018066:    46b9        .F      MOV      r9,r7
        0x00018068:    588e        .X      LDR      r6,[r1,r2]
        0x0001806a:    4411        .D      ADD      r1,r1,r2
        0x0001806c:    428e        .B      CMP      r6,r1
        0x0001806e:    d000        ..      BEQ      0x18072 ; _sys_mem_pool_block_alloc + 104
        0x00018070:    464c        LF      MOV      r4,r9
        0x00018072:    1c7f        ..      ADDS     r7,r7,#1
        0x00018074:    f898100a    ....    LDRB     r1,[r8,#0xa]
        0x00018078:    42b9        .B      CMP      r1,r7
        0x0001807a:    dcdd        ..      BGT      0x18038 ; _sys_mem_pool_block_alloc + 46
        0x0001807c:    f1b90f00    ....    CMP      r9,#0
        0x00018080:    db01        ..      BLT      0x18086 ; _sys_mem_pool_block_alloc + 124
        0x00018082:    2c00        .,      CMP      r4,#0
        0x00018084:    da09        ..      BGE      0x1809a ; _sys_mem_pool_block_alloc + 144
        0x00018086:    9910        ..      LDR      r1,[sp,#0x40]
        0x00018088:    6008        .`      STR      r0,[r1,#0]
        0x0001808a:    4628        (F      MOV      r0,r5
        0x0001808c:    f001fc76    ..v.    BL       free ; 0x1997c
        0x00018090:    f06f000b    o...    MVN      r0,#0xb
        0x00018094:    b007        ..      ADD      sp,sp,#0x1c
        0x00018096:    e8bd8ff0    ....    POP      {r4-r11,pc}
        0x0001809a:    4621        !F      MOV      r1,r4
        0x0001809c:    eb040741    ..A.    ADD      r7,r4,r1,LSL #1
        0x000180a0:    f8d8600c    ...`    LDR      r6,[r8,#0xc]
        0x000180a4:    eb030387    ....    ADD      r3,r3,r7,LSL #2
        0x000180a8:    4433        3D      ADD      r3,r3,r6
        0x000180aa:    f8552021    U.!     LDR      r2,[r5,r1,LSL #2]
        0x000180ae:    681e        .h      LDR      r6,[r3,#0]
        0x000180b0:    4640        @F      MOV      r0,r8
        0x000180b2:    429e        .B      CMP      r6,r3
        0x000180b4:    d00d        ..      BEQ      0x180d2 ; _sys_mem_pool_block_alloc + 200
        0x000180b6:    e9d63700    ...7    LDRD     r3,r7,[r6,#0]
        0x000180ba:    603b        ;`      STR      r3,[r7,#0]
        0x000180bc:    e9d63700    ...7    LDRD     r3,r7,[r6,#0]
        0x000180c0:    605f        _`      STR      r7,[r3,#4]
        0x000180c2:    b136        6.      CBZ      r6,0x180d2 ; _sys_mem_pool_block_alloc + 200
        0x000180c4:    6803        .h      LDR      r3,[r0,#0]
        0x000180c6:    1af3        ..      SUBS     r3,r6,r3
        0x000180c8:    fb93f2f2    ....    SDIV     r2,r3,r2
        0x000180cc:    f000f8cb    ....    BL       clear_free_bit ; 0x18266
        0x000180d0:    e033        3.      B        0x1813a ; _sys_mem_pool_block_alloc + 304
        0x000180d2:    4628        (F      MOV      r0,r5
        0x000180d4:    f001fc52    ..R.    BL       free ; 0x1997c
        0x000180d8:    f06f000a    o...    MVN      r0,#0xa
        0x000180dc:    e7da        ..      B        0x18094 ; _sys_mem_pool_block_alloc + 138
        0x000180de:    f8d81000    ....    LDR      r1,[r8,#0]
        0x000180e2:    f8550024    U.$.    LDR      r0,[r5,r4,LSL #2]
        0x000180e6:    1a71        q.      SUBS     r1,r6,r1
        0x000180e8:    fb91fbf0    ....    SDIV     r11,r1,r0
        0x000180ec:    46b2        .F      MOV      r10,r6
        0x000180ee:    eb050084    ....    ADD      r0,r5,r4,LSL #2
        0x000180f2:    2601        .&      MOVS     r6,#1
        0x000180f4:    f8cd0004    ....    STR.W    r0,[sp,#4]
        0x000180f8:    9801        ..      LDR      r0,[sp,#4]
        0x000180fa:    eb06028b    ....    ADD      r2,r6,r11,LSL #2
        0x000180fe:    1c61        a.      ADDS     r1,r4,#1
        0x00018100:    6847        Gh      LDR      r7,[r0,#4]
        0x00018102:    fb07a006    ....    MLA      r0,r7,r6,r10
        0x00018106:    9000        ..      STR      r0,[sp,#0]
        0x00018108:    4640        @F      MOV      r0,r8
        0x0001810a:    f000f8a1    ....    BL       set_free_bit ; 0x18250
        0x0001810e:    463a        :F      MOV      r2,r7
        0x00018110:    4640        @F      MOV      r0,r8
        0x00018112:    9900        ..      LDR      r1,[sp,#0]
        0x00018114:    f000f8b2    ....    BL       block_fits ; 0x1827c
        0x00018118:    b150        P.      CBZ      r0,0x18130 ; _sys_mem_pool_block_alloc + 294
        0x0001811a:    eb040044    ..D.    ADD      r0,r4,r4,LSL #1
        0x0001811e:    2210        ."      MOVS     r2,#0x10
        0x00018120:    f8d8100c    ....    LDR      r1,[r8,#0xc]
        0x00018124:    eb020080    ....    ADD      r0,r2,r0,LSL #2
        0x00018128:    4408        .D      ADD      r0,r0,r1
        0x0001812a:    9900        ..      LDR      r1,[sp,#0]
        0x0001812c:    f000f883    ....    BL       sys_dlist_append ; 0x18236
        0x00018130:    1c76        v.      ADDS     r6,r6,#1
        0x00018132:    2e04        ..      CMP      r6,#4
        0x00018134:    dbe0        ..      BLT      0x180f8 ; _sys_mem_pool_block_alloc + 238
        0x00018136:    4656        VF      MOV      r6,r10
        0x00018138:    1c64        d.      ADDS     r4,r4,#1
        0x0001813a:    454c        LE      CMP      r4,r9
        0x0001813c:    dbcf        ..      BLT      0x180de ; _sys_mem_pool_block_alloc + 212
        0x0001813e:    9905        ..      LDR      r1,[sp,#0x14]
        0x00018140:    f8c19000    ....    STR      r9,[r1,#0]
        0x00018144:    f8d81000    ....    LDR      r1,[r8,#0]
        0x00018148:    f8550029    U.).    LDR      r0,[r5,r9,LSL #2]
        0x0001814c:    1a71        q.      SUBS     r1,r6,r1
        0x0001814e:    fb91f0f0    ....    SDIV     r0,r1,r0
        0x00018152:    9906        ..      LDR      r1,[sp,#0x18]
        0x00018154:    6008        .`      STR      r0,[r1,#0]
        0x00018156:    9810        ..      LDR      r0,[sp,#0x40]
        0x00018158:    6006        .`      STR      r6,[r0,#0]
        0x0001815a:    4628        (F      MOV      r0,r5
        0x0001815c:    f001fc0e    ....    BL       free ; 0x1997c
        0x00018160:    2000        .       MOVS     r0,#0
        0x00018162:    e797        ..      B        0x18094 ; _sys_mem_pool_block_alloc + 138
    _sys_mem_pool_block_free
        0x00018164:    e92d41f0    -..A    PUSH     {r4-r8,lr}
        0x00018168:    4605        .F      MOV      r5,r0
        0x0001816a:    7a80        .z      LDRB     r0,[r0,#0xa]
        0x0001816c:    4617        .F      MOV      r7,r2
        0x0001816e:    460e        .F      MOV      r6,r1
        0x00018170:    0080        ..      LSLS     r0,r0,#2
        0x00018172:    f001fc2b    ..+.    BL       malloc ; 0x199cc
        0x00018176:    4604        .F      MOV      r4,r0
        0x00018178:    6868        hh      LDR      r0,[r5,#4]
        0x0001817a:    1cc0        ..      ADDS     r0,r0,#3
        0x0001817c:    f0200103     ...    BIC      r1,r0,#3
        0x00018180:    2001        .       MOVS     r0,#1
        0x00018182:    6021        !`      STR      r1,[r4,#0]
        0x00018184:    2103        .!      MOVS     r1,#3
        0x00018186:    e00a        ..      B        0x1819e ; _sys_mem_pool_block_free + 58
        0x00018188:    eb040280    ....    ADD      r2,r4,r0,LSL #2
        0x0001818c:    f8522c04    R..,    LDR      r2,[r2,#-4]
        0x00018190:    eb010292    ....    ADD      r2,r1,r2,LSR #2
        0x00018194:    f0220203    "...    BIC      r2,r2,#3
        0x00018198:    f8442020    D.      STR      r2,[r4,r0,LSL #2]
        0x0001819c:    1c40        @.      ADDS     r0,r0,#1
        0x0001819e:    42b0        .B      CMP      r0,r6
        0x000181a0:    d9f2        ..      BLS      0x18188 ; _sys_mem_pool_block_free + 36
        0x000181a2:    463b        ;F      MOV      r3,r7
        0x000181a4:    4622        "F      MOV      r2,r4
        0x000181a6:    4631        1F      MOV      r1,r6
        0x000181a8:    4628        (F      MOV      r0,r5
        0x000181aa:    f7fffed0    ....    BL       block_free ; 0x17f4e
        0x000181ae:    4620         F      MOV      r0,r4
        0x000181b0:    e8bd41f0    ...A    POP      {r4-r8,lr}
        0x000181b4:    f001bbe2    ....    B.W      free ; 0x1997c
    sys_mem_pool_alloc
        0x000181b8:    b57f        ..      PUSH     {r0-r6,lr}
        0x000181ba:    460d        .F      MOV      r5,r1
        0x000181bc:    4604        .F      MOV      r4,r0
        0x000181be:    6940        @i      LDR      r0,[r0,#0x14]
        0x000181c0:    f04f31ff    O..1    MOV      r1,#0xffffffff
        0x000181c4:    f7fcfd0a    ....    BL       _impl_k_mutex_lock ; 0x14bdc
        0x000181c8:    a803        ..      ADD      r0,sp,#0xc
        0x000181ca:    9000        ..      STR      r0,[sp,#0]
        0x000181cc:    f1050108    ....    ADD      r1,r5,#8
        0x000181d0:    ab02        ..      ADD      r3,sp,#8
        0x000181d2:    aa01        ..      ADD      r2,sp,#4
        0x000181d4:    4620         F      MOV      r0,r4
        0x000181d6:    f7ffff18    ....    BL       _sys_mem_pool_block_alloc ; 0x1800a
        0x000181da:    b108        ..      CBZ      r0,0x181e0 ; sys_mem_pool_alloc + 40
        0x000181dc:    2000        .       MOVS     r0,#0
        0x000181de:    e00b        ..      B        0x181f8 ; sys_mem_pool_alloc + 64
        0x000181e0:    9803        ..      LDR      r0,[sp,#0xc]
        0x000181e2:    9a01        ..      LDR      r2,[sp,#4]
        0x000181e4:    6841        Ah      LDR      r1,[r0,#4]
        0x000181e6:    f3620103    b...    BFI      r1,r2,#0,#4
        0x000181ea:    9a02        ..      LDR      r2,[sp,#8]
        0x000181ec:    f362111f    b...    BFI      r1,r2,#4,#28
        0x000181f0:    e9c04100    ...A    STRD     r4,r1,[r0,#0]
        0x000181f4:    9803        ..      LDR      r0,[sp,#0xc]
        0x000181f6:    3008        .0      ADDS     r0,r0,#8
        0x000181f8:    9003        ..      STR      r0,[sp,#0xc]
        0x000181fa:    6960        `i      LDR      r0,[r4,#0x14]
        0x000181fc:    f7fcfd5f    .._.    BL       _impl_k_mutex_unlock ; 0x14cbe
        0x00018200:    9803        ..      LDR      r0,[sp,#0xc]
        0x00018202:    b004        ..      ADD      sp,sp,#0x10
        0x00018204:    bd70        p.      POP      {r4-r6,pc}
    sys_mem_pool_free
        0x00018206:    b570        p.      PUSH     {r4-r6,lr}
        0x00018208:    2800        .(      CMP      r0,#0
        0x0001820a:    d013        ..      BEQ      0x18234 ; sys_mem_pool_free + 46
        0x0001820c:    f1a00408    ....    SUB      r4,r0,#8
        0x00018210:    f04f31ff    O..1    MOV      r1,#0xffffffff
        0x00018214:    6825        %h      LDR      r5,[r4,#0]
        0x00018216:    6968        hi      LDR      r0,[r5,#0x14]
        0x00018218:    f7fcfce0    ....    BL       _impl_k_mutex_lock ; 0x14bdc
        0x0001821c:    6860        `h      LDR      r0,[r4,#4]
        0x0001821e:    0902        ..      LSRS     r2,r0,#4
        0x00018220:    f000010f    ....    AND      r1,r0,#0xf
        0x00018224:    4628        (F      MOV      r0,r5
        0x00018226:    f7ffff9d    ....    BL       _sys_mem_pool_block_free ; 0x18164
        0x0001822a:    6968        hi      LDR      r0,[r5,#0x14]
        0x0001822c:    e8bd4070    ..p@    POP      {r4-r6,lr}
        0x00018230:    f7fcbd45    ..E.    B        _impl_k_mutex_unlock ; 0x14cbe
        0x00018234:    bd70        p.      POP      {r4-r6,pc}
    sys_dlist_append
        0x00018236:    6008        .`      STR      r0,[r1,#0]
        0x00018238:    6842        Bh      LDR      r2,[r0,#4]
        0x0001823a:    604a        J`      STR      r2,[r1,#4]
        0x0001823c:    6842        Bh      LDR      r2,[r0,#4]
        0x0001823e:    6011        .`      STR      r1,[r2,#0]
        0x00018240:    6041        A`      STR      r1,[r0,#4]
        0x00018242:    4770        pG      BX       lr
    sys_dlist_remove
        0x00018244:    e9d01200    ....    LDRD     r1,r2,[r0,#0]
        0x00018248:    6011        .`      STR      r1,[r2,#0]
        0x0001824a:    c803        ..      LDM      r0,{r0,r1}
        0x0001824c:    6041        A`      STR      r1,[r0,#4]
        0x0001824e:    4770        pG      BX       lr
    set_free_bit
        0x00018250:    b508        ..      PUSH     {r3,lr}
        0x00018252:    466b        kF      MOV      r3,sp
        0x00018254:    f7fffe22    ..".    BL       get_bit_ptr ; 0x17e9c
        0x00018258:    9900        ..      LDR      r1,[sp,#0]
        0x0001825a:    2301        .#      MOVS     r3,#1
        0x0001825c:    4083        .@      LSLS     r3,r3,r0
        0x0001825e:    680a        .h      LDR      r2,[r1,#0]
        0x00018260:    431a        .C      ORRS     r2,r2,r3
        0x00018262:    600a        .`      STR      r2,[r1,#0]
        0x00018264:    bd08        ..      POP      {r3,pc}
    clear_free_bit
        0x00018266:    b508        ..      PUSH     {r3,lr}
        0x00018268:    466b        kF      MOV      r3,sp
        0x0001826a:    f7fffe17    ....    BL       get_bit_ptr ; 0x17e9c
        0x0001826e:    9900        ..      LDR      r1,[sp,#0]
        0x00018270:    2301        .#      MOVS     r3,#1
        0x00018272:    4083        .@      LSLS     r3,r3,r0
        0x00018274:    680a        .h      LDR      r2,[r1,#0]
        0x00018276:    439a        .C      BICS     r2,r2,r3
        0x00018278:    600a        .`      STR      r2,[r1,#0]
        0x0001827a:    bd08        ..      POP      {r3,pc}
    block_fits
        0x0001827c:    4411        .D      ADD      r1,r1,r2
        0x0001827e:    6802        .h      LDR      r2,[r0,#0]
        0x00018280:    1a89        ..      SUBS     r1,r1,r2
        0x00018282:    8902        ..      LDRH     r2,[r0,#8]
        0x00018284:    6840        @h      LDR      r0,[r0,#4]
        0x00018286:    1e49        I.      SUBS     r1,r1,#1
        0x00018288:    4342        BC      MULS     r2,r0,r2
        0x0001828a:    4291        .B      CMP      r1,r2
        0x0001828c:    d201        ..      BCS      0x18292 ; block_fits + 22
        0x0001828e:    2001        .       MOVS     r0,#1
        0x00018290:    4770        pG      BX       lr
        0x00018292:    2000        .       MOVS     r0,#0
        0x00018294:    4770        pG      BX       lr
        0x00018296:    0000        ..      MOVS     r0,r0
    .text
    find_and_stack
        0x00018298:    e92d41f0    -..A    PUSH     {r4-r8,lr}
        0x0001829c:    4606        .F      MOV      r6,r0
        0x0001829e:    6800        .h      LDR      r0,[r0,#0]
        0x000182a0:    4615        .F      MOV      r5,r2
        0x000182a2:    4688        .F      MOV      r8,r1
        0x000182a4:    2401        .$      MOVS     r4,#1
        0x000182a6:    6010        .`      STR      r0,[r2,#0]
        0x000182a8:    e00c        ..      B        0x182c4 ; find_and_stack + 44
        0x000182aa:    6872        rh      LDR      r2,[r6,#4]
        0x000182ac:    4790        .G      BLX      r2
        0x000182ae:    b198        ..      CBZ      r0,0x182d8 ; find_and_stack + 64
        0x000182b0:    f05f0100    _...    MOVS.W   r1,#0
        0x000182b4:    f8570c04    W...    LDR      r0,[r7,#-4]
        0x000182b8:    f000fae3    ....    BL       get_child ; 0x18882
        0x000182bc:    b148        H.      CBZ      r0,0x182d2 ; find_and_stack + 58
        0x000182be:    f8450024    E.$.    STR      r0,[r5,r4,LSL #2]
        0x000182c2:    1c64        d.      ADDS     r4,r4,#1
        0x000182c4:    eb050784    ....    ADD      r7,r5,r4,LSL #2
        0x000182c8:    4640        @F      MOV      r0,r8
        0x000182ca:    f8571c04    W...    LDR      r1,[r7,#-4]
        0x000182ce:    4541        AE      CMP      r1,r8
        0x000182d0:    d1eb        ..      BNE      0x182aa ; find_and_stack + 18
        0x000182d2:    4620         F      MOV      r0,r4
        0x000182d4:    e8bd81f0    ....    POP      {r4-r8,pc}
        0x000182d8:    2101        .!      MOVS     r1,#1
        0x000182da:    e7eb        ..      B        0x182b4 ; find_and_stack + 28
    _rb_get_minmax
        0x000182dc:    b570        p.      PUSH     {r4-r6,lr}
        0x000182de:    460d        .F      MOV      r5,r1
        0x000182e0:    6804        .h      LDR      r4,[r0,#0]
        0x000182e2:    e004        ..      B        0x182ee ; _rb_get_minmax + 18
        0x000182e4:    4629        )F      MOV      r1,r5
        0x000182e6:    4620         F      MOV      r0,r4
        0x000182e8:    f000facb    ....    BL       get_child ; 0x18882
        0x000182ec:    4604        .F      MOV      r4,r0
        0x000182ee:    b12c        ,.      CBZ      r4,0x182fc ; _rb_get_minmax + 32
        0x000182f0:    4629        )F      MOV      r1,r5
        0x000182f2:    4620         F      MOV      r0,r4
        0x000182f4:    f000fac5    ....    BL       get_child ; 0x18882
        0x000182f8:    2800        .(      CMP      r0,#0
        0x000182fa:    d1f3        ..      BNE      0x182e4 ; _rb_get_minmax + 8
        0x000182fc:    4620         F      MOV      r0,r4
        0x000182fe:    bd70        p.      POP      {r4-r6,pc}
    rotate
        0x00018300:    e92d47f0    -..G    PUSH     {r4-r10,lr}
        0x00018304:    4688        .F      MOV      r8,r1
        0x00018306:    eb000488    ....    ADD      r4,r0,r8,LSL #2
        0x0001830a:    e9547602    T..v    LDRD     r7,r6,[r4,#-8]
        0x0001830e:    4631        1F      MOV      r1,r6
        0x00018310:    4638        8F      MOV      r0,r7
        0x00018312:    f000facc    ....    BL       get_side ; 0x188ae
        0x00018316:    4605        .F      MOV      r5,r0
        0x00018318:    4601        .F      MOV      r1,r0
        0x0001831a:    4630        0F      MOV      r0,r6
        0x0001831c:    f000fab1    ....    BL       get_child ; 0x18882
        0x00018320:    4682        .F      MOV      r10,r0
        0x00018322:    b335        5.      CBZ      r5,0x18372 ; rotate + 114
        0x00018324:    2100        .!      MOVS     r1,#0
        0x00018326:    4630        0F      MOV      r0,r6
        0x00018328:    f000faab    ....    BL       get_child ; 0x18882
        0x0001832c:    4681        .F      MOV      r9,r0
        0x0001832e:    f1b80f03    ....    CMP      r8,#3
        0x00018332:    db0a        ..      BLT      0x1834a ; rotate + 74
        0x00018334:    f8548c0c    T...    LDR      r8,[r4,#-0xc]
        0x00018338:    4639        9F      MOV      r1,r7
        0x0001833a:    4640        @F      MOV      r0,r8
        0x0001833c:    f000fab7    ....    BL       get_side ; 0x188ae
        0x00018340:    4601        .F      MOV      r1,r0
        0x00018342:    4632        2F      MOV      r2,r6
        0x00018344:    4640        @F      MOV      r0,r8
        0x00018346:    f000faa3    ....    BL       set_child ; 0x18890
        0x0001834a:    4652        RF      MOV      r2,r10
        0x0001834c:    4629        )F      MOV      r1,r5
        0x0001834e:    4630        0F      MOV      r0,r6
        0x00018350:    f000fa9e    ....    BL       set_child ; 0x18890
        0x00018354:    b17d        }.      CBZ      r5,0x18376 ; rotate + 118
        0x00018356:    2100        .!      MOVS     r1,#0
        0x00018358:    463a        :F      MOV      r2,r7
        0x0001835a:    4630        0F      MOV      r0,r6
        0x0001835c:    f000fa98    ....    BL       set_child ; 0x18890
        0x00018360:    464a        JF      MOV      r2,r9
        0x00018362:    4629        )F      MOV      r1,r5
        0x00018364:    4638        8F      MOV      r0,r7
        0x00018366:    f000fa93    ....    BL       set_child ; 0x18890
        0x0001836a:    e9446702    D..g    STRD     r6,r7,[r4,#-8]
        0x0001836e:    e8bd87f0    ....    POP      {r4-r10,pc}
        0x00018372:    2101        .!      MOVS     r1,#1
        0x00018374:    e7d7        ..      B        0x18326 ; rotate + 38
        0x00018376:    2101        .!      MOVS     r1,#1
        0x00018378:    e7ee        ..      B        0x18358 ; rotate + 88
    rb_insert
        0x0001837a:    e92d41f0    -..A    PUSH     {r4-r8,lr}
        0x0001837e:    460f        .F      MOV      r7,r1
        0x00018380:    4605        .F      MOV      r5,r0
        0x00018382:    2200        ."      MOVS     r2,#0
        0x00018384:    4611        .F      MOV      r1,r2
        0x00018386:    4638        8F      MOV      r0,r7
        0x00018388:    f000fa82    ....    BL       set_child ; 0x18890
        0x0001838c:    2200        ."      MOVS     r2,#0
        0x0001838e:    2101        .!      MOVS     r1,#1
        0x00018390:    4638        8F      MOV      r0,r7
        0x00018392:    f000fa7d    ..}.    BL       set_child ; 0x18890
        0x00018396:    6828        (h      LDR      r0,[r5,#0]
        0x00018398:    b380        ..      CBZ      r0,0x183fc ; rb_insert + 130
        0x0001839a:    68a8        .h      LDR      r0,[r5,#8]
        0x0001839c:    1c40        @.      ADDS     r0,r0,#1
        0x0001839e:    0080        ..      LSLS     r0,r0,#2
        0x000183a0:    f001fb14    ....    BL       malloc ; 0x199cc
        0x000183a4:    4606        .F      MOV      r6,r0
        0x000183a6:    4602        .F      MOV      r2,r0
        0x000183a8:    4639        9F      MOV      r1,r7
        0x000183aa:    4628        (F      MOV      r0,r5
        0x000183ac:    f7ffff74    ..t.    BL       find_and_stack ; 0x18298
        0x000183b0:    4604        .F      MOV      r4,r0
        0x000183b2:    eb060084    ....    ADD      r0,r6,r4,LSL #2
        0x000183b6:    686a        jh      LDR      r2,[r5,#4]
        0x000183b8:    f8500c04    P...    LDR      r0,[r0,#-4]
        0x000183bc:    4680        .F      MOV      r8,r0
        0x000183be:    4601        .F      MOV      r1,r0
        0x000183c0:    4638        8F      MOV      r0,r7
        0x000183c2:    4790        .G      BLX      r2
        0x000183c4:    b318        ..      CBZ      r0,0x1840e ; rb_insert + 148
        0x000183c6:    2100        .!      MOVS     r1,#0
        0x000183c8:    463a        :F      MOV      r2,r7
        0x000183ca:    4640        @F      MOV      r0,r8
        0x000183cc:    f000fa60    ..`.    BL       set_child ; 0x18890
        0x000183d0:    2100        .!      MOVS     r1,#0
        0x000183d2:    4638        8F      MOV      r0,r7
        0x000183d4:    f000fa65    ..e.    BL       set_color ; 0x188a2
        0x000183d8:    f8467024    F.$p    STR      r7,[r6,r4,LSL #2]
        0x000183dc:    1c64        d.      ADDS     r4,r4,#1
        0x000183de:    4621        !F      MOV      r1,r4
        0x000183e0:    4630        0F      MOV      r0,r6
        0x000183e2:    f000fa6f    ..o.    BL       fix_extra_red ; 0x188c4
        0x000183e6:    68a8        .h      LDR      r0,[r5,#8]
        0x000183e8:    42a0        .B      CMP      r0,r4
        0x000183ea:    da00        ..      BGE      0x183ee ; rb_insert + 116
        0x000183ec:    60ac        .`      STR      r4,[r5,#8]
        0x000183ee:    6830        0h      LDR      r0,[r6,#0]
        0x000183f0:    6028        (`      STR      r0,[r5,#0]
        0x000183f2:    4630        0F      MOV      r0,r6
        0x000183f4:    e8bd41f0    ...A    POP      {r4-r8,lr}
        0x000183f8:    f001bac0    ....    B.W      free ; 0x1997c
        0x000183fc:    2001        .       MOVS     r0,#1
        0x000183fe:    602f        /`      STR      r7,[r5,#0]
        0x00018400:    4601        .F      MOV      r1,r0
        0x00018402:    60a8        .`      STR      r0,[r5,#8]
        0x00018404:    4638        8F      MOV      r0,r7
        0x00018406:    e8bd41f0    ...A    POP      {r4-r8,lr}
        0x0001840a:    f000ba4a    ..J.    B.W      set_color ; 0x188a2
        0x0001840e:    2101        .!      MOVS     r1,#1
        0x00018410:    e7da        ..      B        0x183c8 ; rb_insert + 78
    fix_missing_black
        0x00018412:    e92d4ff7    -..O    PUSH     {r0-r2,r4-r11,lr}
        0x00018416:    460c        .F      MOV      r4,r1
        0x00018418:    4606        .F      MOV      r6,r0
        0x0001841a:    e058        X.      B        0x184ce ; fix_missing_black + 188
        0x0001841c:    eb060784    ....    ADD      r7,r6,r4,LSL #2
        0x00018420:    f8579c04    W...    LDR      r9,[r7,#-4]
        0x00018424:    f857ac08    W...    LDR      r10,[r7,#-8]
        0x00018428:    4649        IF      MOV      r1,r9
        0x0001842a:    4650        PF      MOV      r0,r10
        0x0001842c:    f000fa3f    ..?.    BL       get_side ; 0x188ae
        0x00018430:    ea5f0800    _...    MOVS     r8,r0
        0x00018434:    d008        ..      BEQ      0x18448 ; fix_missing_black + 54
        0x00018436:    2100        .!      MOVS     r1,#0
        0x00018438:    4650        PF      MOV      r0,r10
        0x0001843a:    f000fa22    ..".    BL       get_child ; 0x18882
        0x0001843e:    4605        .F      MOV      r5,r0
        0x00018440:    7800        .x      LDRB     r0,[r0,#0]
        0x00018442:    07c0        ..      LSLS     r0,r0,#31
        0x00018444:    d002        ..      BEQ      0x1844c ; fix_missing_black + 58
        0x00018446:    e01e        ..      B        0x18486 ; fix_missing_black + 116
        0x00018448:    2101        .!      MOVS     r1,#1
        0x0001844a:    e7f5        ..      B        0x18438 ; fix_missing_black + 38
        0x0001844c:    f8475c04    G..\    STR      r5,[r7,#-4]
        0x00018450:    4621        !F      MOV      r1,r4
        0x00018452:    4630        0F      MOV      r0,r6
        0x00018454:    f7ffff54    ..T.    BL       rotate ; 0x18300
        0x00018458:    2100        .!      MOVS     r1,#0
        0x0001845a:    4650        PF      MOV      r0,r10
        0x0001845c:    f000fa21    ..!.    BL       set_color ; 0x188a2
        0x00018460:    2101        .!      MOVS     r1,#1
        0x00018462:    4628        (F      MOV      r0,r5
        0x00018464:    f000fa1d    ....    BL       set_color ; 0x188a2
        0x00018468:    f8469024    F.$.    STR      r9,[r6,r4,LSL #2]
        0x0001846c:    1c64        d.      ADDS     r4,r4,#1
        0x0001846e:    eb060084    ....    ADD      r0,r6,r4,LSL #2
        0x00018472:    f1b80f00    ....    CMP      r8,#0
        0x00018476:    f850ac08    P...    LDR      r10,[r0,#-8]
        0x0001847a:    d02c        ,.      BEQ      0x184d6 ; fix_missing_black + 196
        0x0001847c:    2100        .!      MOVS     r1,#0
        0x0001847e:    4650        PF      MOV      r0,r10
        0x00018480:    f000f9ff    ....    BL       get_child ; 0x18882
        0x00018484:    4605        .F      MOV      r5,r0
        0x00018486:    2100        .!      MOVS     r1,#0
        0x00018488:    4628        (F      MOV      r0,r5
        0x0001848a:    f000f9fa    ....    BL       get_child ; 0x18882
        0x0001848e:    4607        .F      MOV      r7,r0
        0x00018490:    2101        .!      MOVS     r1,#1
        0x00018492:    4628        (F      MOV      r0,r5
        0x00018494:    f000f9f5    ....    BL       get_child ; 0x18882
        0x00018498:    b11f        ..      CBZ      r7,0x184a2 ; fix_missing_black + 144
        0x0001849a:    7839        9x      LDRB     r1,[r7,#0]
        0x0001849c:    f0110f01    ....    TST      r1,#1
        0x000184a0:    d022        ".      BEQ      0x184e8 ; fix_missing_black + 214
        0x000184a2:    b118        ..      CBZ      r0,0x184ac ; fix_missing_black + 154
        0x000184a4:    7800        .x      LDRB     r0,[r0,#0]
        0x000184a6:    f0100f01    ....    TST      r0,#1
        0x000184aa:    d01d        ..      BEQ      0x184e8 ; fix_missing_black + 214
        0x000184ac:    9902        ..      LDR      r1,[sp,#8]
        0x000184ae:    4589        .E      CMP      r9,r1
        0x000184b0:    d104        ..      BNE      0x184bc ; fix_missing_black + 170
        0x000184b2:    2200        ."      MOVS     r2,#0
        0x000184b4:    4641        AF      MOV      r1,r8
        0x000184b6:    4650        PF      MOV      r0,r10
        0x000184b8:    f000f9ea    ....    BL       set_child ; 0x18890
        0x000184bc:    2100        .!      MOVS     r1,#0
        0x000184be:    4628        (F      MOV      r0,r5
        0x000184c0:    f000f9ef    ....    BL       set_color ; 0x188a2
        0x000184c4:    f89a0000    ....    LDRB     r0,[r10,#0]
        0x000184c8:    07c0        ..      LSLS     r0,r0,#31
        0x000184ca:    d006        ..      BEQ      0x184da ; fix_missing_black + 200
        0x000184cc:    1e64        d.      SUBS     r4,r4,#1
        0x000184ce:    2c01        .,      CMP      r4,#1
        0x000184d0:    dca4        ..      BGT      0x1841c ; fix_missing_black + 10
        0x000184d2:    e8bd8ffe    ....    POP      {r1-r11,pc}
        0x000184d6:    2101        .!      MOVS     r1,#1
        0x000184d8:    e7d1        ..      B        0x1847e ; fix_missing_black + 108
        0x000184da:    b003        ..      ADD      sp,sp,#0xc
        0x000184dc:    4650        PF      MOV      r0,r10
        0x000184de:    e8bd4ff0    ...O    POP      {r4-r11,lr}
        0x000184e2:    2101        .!      MOVS     r1,#1
        0x000184e4:    f000b9dd    ....    B.W      set_color ; 0x188a2
        0x000184e8:    f1b80f00    ....    CMP      r8,#0
        0x000184ec:    d051        Q.      BEQ      0x18592 ; fix_missing_black + 384
        0x000184ee:    2100        .!      MOVS     r1,#0
        0x000184f0:    4628        (F      MOV      r0,r5
        0x000184f2:    f000f9c6    ....    BL       get_child ; 0x18882
        0x000184f6:    0007        ..      MOVS     r7,r0
        0x000184f8:    d002        ..      BEQ      0x18500 ; fix_missing_black + 238
        0x000184fa:    7838        8x      LDRB     r0,[r7,#0]
        0x000184fc:    07c0        ..      LSLS     r0,r0,#31
        0x000184fe:    d026        &.      BEQ      0x1854e ; fix_missing_black + 316
        0x00018500:    4641        AF      MOV      r1,r8
        0x00018502:    4628        (F      MOV      r0,r5
        0x00018504:    f000f9bd    ....    BL       get_child ; 0x18882
        0x00018508:    4607        .F      MOV      r7,r0
        0x0001850a:    eb060084    ....    ADD      r0,r6,r4,LSL #2
        0x0001850e:    f8405c04    @..\    STR      r5,[r0,#-4]
        0x00018512:    f8467024    F.$p    STR      r7,[r6,r4,LSL #2]
        0x00018516:    1c64        d.      ADDS     r4,r4,#1
        0x00018518:    4621        !F      MOV      r1,r4
        0x0001851a:    4630        0F      MOV      r0,r6
        0x0001851c:    f7fffef0    ....    BL       rotate ; 0x18300
        0x00018520:    2100        .!      MOVS     r1,#0
        0x00018522:    4628        (F      MOV      r0,r5
        0x00018524:    f000f9bd    ....    BL       set_color ; 0x188a2
        0x00018528:    2101        .!      MOVS     r1,#1
        0x0001852a:    4638        8F      MOV      r0,r7
        0x0001852c:    f000f9b9    ....    BL       set_color ; 0x188a2
        0x00018530:    eb060b84    ....    ADD      r11,r6,r4,LSL #2
        0x00018534:    f1b80f00    ....    CMP      r8,#0
        0x00018538:    f85b5c08    [..\    LDR      r5,[r11,#-8]
        0x0001853c:    d02b        +.      BEQ      0x18596 ; fix_missing_black + 388
        0x0001853e:    2100        .!      MOVS     r1,#0
        0x00018540:    4628        (F      MOV      r0,r5
        0x00018542:    f000f99e    ....    BL       get_child ; 0x18882
        0x00018546:    4607        .F      MOV      r7,r0
        0x00018548:    f84b9c08    K...    STR      r9,[r11,#-8]
        0x0001854c:    1e64        d.      SUBS     r4,r4,#1
        0x0001854e:    f89a0000    ....    LDRB     r0,[r10,#0]
        0x00018552:    f0000101    ....    AND      r1,r0,#1
        0x00018556:    4628        (F      MOV      r0,r5
        0x00018558:    f000f9a3    ....    BL       set_color ; 0x188a2
        0x0001855c:    2101        .!      MOVS     r1,#1
        0x0001855e:    4650        PF      MOV      r0,r10
        0x00018560:    f000f99f    ....    BL       set_color ; 0x188a2
        0x00018564:    2101        .!      MOVS     r1,#1
        0x00018566:    4638        8F      MOV      r0,r7
        0x00018568:    f000f99b    ....    BL       set_color ; 0x188a2
        0x0001856c:    eb060084    ....    ADD      r0,r6,r4,LSL #2
        0x00018570:    4621        !F      MOV      r1,r4
        0x00018572:    f8405c04    @..\    STR      r5,[r0,#-4]
        0x00018576:    4630        0F      MOV      r0,r6
        0x00018578:    f7fffec2    ....    BL       rotate ; 0x18300
        0x0001857c:    9902        ..      LDR      r1,[sp,#8]
        0x0001857e:    4589        .E      CMP      r9,r1
        0x00018580:    d1a7        ..      BNE      0x184d2 ; fix_missing_black + 192
        0x00018582:    b003        ..      ADD      sp,sp,#0xc
        0x00018584:    4641        AF      MOV      r1,r8
        0x00018586:    4650        PF      MOV      r0,r10
        0x00018588:    e8bd4ff0    ...O    POP      {r4-r11,lr}
        0x0001858c:    2200        ."      MOVS     r2,#0
        0x0001858e:    f000b97f    ....    B.W      set_child ; 0x18890
        0x00018592:    2101        .!      MOVS     r1,#1
        0x00018594:    e7ac        ..      B        0x184f0 ; fix_missing_black + 222
        0x00018596:    2101        .!      MOVS     r1,#1
        0x00018598:    e7d2        ..      B        0x18540 ; fix_missing_black + 302
    rb_remove
        0x0001859a:    e92d4ff8    -..O    PUSH     {r3-r11,lr}
        0x0001859e:    4680        .F      MOV      r8,r0
        0x000185a0:    6880        .h      LDR      r0,[r0,#8]
        0x000185a2:    460f        .F      MOV      r7,r1
        0x000185a4:    1c40        @.      ADDS     r0,r0,#1
        0x000185a6:    0080        ..      LSLS     r0,r0,#2
        0x000185a8:    f001fa10    ....    BL       malloc ; 0x199cc
        0x000185ac:    4606        .F      MOV      r6,r0
        0x000185ae:    4602        .F      MOV      r2,r0
        0x000185b0:    4639        9F      MOV      r1,r7
        0x000185b2:    4640        @F      MOV      r0,r8
        0x000185b4:    f7fffe70    ..p.    BL       find_and_stack ; 0x18298
        0x000185b8:    4604        .F      MOV      r4,r0
        0x000185ba:    eb060984    ....    ADD      r9,r6,r4,LSL #2
        0x000185be:    f8590c04    Y...    LDR      r0,[r9,#-4]
        0x000185c2:    42b8        .B      CMP      r0,r7
        0x000185c4:    d17e        ~.      BNE      0x186c4 ; rb_remove + 298
        0x000185c6:    2100        .!      MOVS     r1,#0
        0x000185c8:    4638        8F      MOV      r0,r7
        0x000185ca:    f000f95a    ..Z.    BL       get_child ; 0x18882
        0x000185ce:    2800        .(      CMP      r0,#0
        0x000185d0:    d079        y.      BEQ      0x186c6 ; rb_remove + 300
        0x000185d2:    2101        .!      MOVS     r1,#1
        0x000185d4:    4638        8F      MOV      r0,r7
        0x000185d6:    f000f954    ..T.    BL       get_child ; 0x18882
        0x000185da:    2800        .(      CMP      r0,#0
        0x000185dc:    d07e        ~.      BEQ      0x186dc ; rb_remove + 322
        0x000185de:    46a3        .F      MOV      r11,r4
        0x000185e0:    2100        .!      MOVS     r1,#0
        0x000185e2:    4638        8F      MOV      r0,r7
        0x000185e4:    f000f94d    ..M.    BL       get_child ; 0x18882
        0x000185e8:    4605        .F      MOV      r5,r0
        0x000185ea:    2c01        .,      CMP      r4,#1
        0x000185ec:    dd02        ..      BLE      0x185f4 ; rb_remove + 90
        0x000185ee:    f8590c08    Y...    LDR      r0,[r9,#-8]
        0x000185f2:    e000        ..      B        0x185f6 ; rb_remove + 92
        0x000185f4:    2000        .       MOVS     r0,#0
        0x000185f6:    4682        .F      MOV      r10,r0
        0x000185f8:    e004        ..      B        0x18604 ; rb_remove + 106
        0x000185fa:    2101        .!      MOVS     r1,#1
        0x000185fc:    4628        (F      MOV      r0,r5
        0x000185fe:    f000f940    ..@.    BL       get_child ; 0x18882
        0x00018602:    4605        .F      MOV      r5,r0
        0x00018604:    f8465024    F.$P    STR      r5,[r6,r4,LSL #2]
        0x00018608:    1c64        d.      ADDS     r4,r4,#1
        0x0001860a:    2101        .!      MOVS     r1,#1
        0x0001860c:    4628        (F      MOV      r0,r5
        0x0001860e:    f000f938    ..8.    BL       get_child ; 0x18882
        0x00018612:    2800        .(      CMP      r0,#0
        0x00018614:    d1f1        ..      BNE      0x185fa ; rb_remove + 96
        0x00018616:    eb060984    ....    ADD      r9,r6,r4,LSL #2
        0x0001861a:    f8590c08    Y...    LDR      r0,[r9,#-8]
        0x0001861e:    9000        ..      STR      r0,[sp,#0]
        0x00018620:    ea5f000a    _...    MOVS     r0,r10
        0x00018624:    d008        ..      BEQ      0x18638 ; rb_remove + 158
        0x00018626:    4639        9F      MOV      r1,r7
        0x00018628:    f000f941    ..A.    BL       get_side ; 0x188ae
        0x0001862c:    4601        .F      MOV      r1,r0
        0x0001862e:    462a        *F      MOV      r2,r5
        0x00018630:    4650        PF      MOV      r0,r10
        0x00018632:    f000f92d    ..-.    BL       set_child ; 0x18890
        0x00018636:    e001        ..      B        0x1863c ; rb_remove + 162
        0x00018638:    f8c85000    ...P    STR      r5,[r8,#0]
        0x0001863c:    9800        ..      LDR      r0,[sp,#0]
        0x0001863e:    42b8        .B      CMP      r0,r7
        0x00018640:    d10a        ..      BNE      0x18658 ; rb_remove + 190
        0x00018642:    2100        .!      MOVS     r1,#0
        0x00018644:    4628        (F      MOV      r0,r5
        0x00018646:    f000f91c    ....    BL       get_child ; 0x18882
        0x0001864a:    4602        .F      MOV      r2,r0
        0x0001864c:    2100        .!      MOVS     r1,#0
        0x0001864e:    4638        8F      MOV      r0,r7
        0x00018650:    f000f91e    ....    BL       set_child ; 0x18890
        0x00018654:    463a        :F      MOV      r2,r7
        0x00018656:    e016        ..      B        0x18686 ; rb_remove + 236
        0x00018658:    4629        )F      MOV      r1,r5
        0x0001865a:    f000f928    ..(.    BL       get_side ; 0x188ae
        0x0001865e:    4601        .F      MOV      r1,r0
        0x00018660:    463a        :F      MOV      r2,r7
        0x00018662:    9800        ..      LDR      r0,[sp,#0]
        0x00018664:    f000f914    ....    BL       set_child ; 0x18890
        0x00018668:    2100        .!      MOVS     r1,#0
        0x0001866a:    4638        8F      MOV      r0,r7
        0x0001866c:    f000f909    ....    BL       get_child ; 0x18882
        0x00018670:    4682        .F      MOV      r10,r0
        0x00018672:    2100        .!      MOVS     r1,#0
        0x00018674:    4628        (F      MOV      r0,r5
        0x00018676:    f000f904    ....    BL       get_child ; 0x18882
        0x0001867a:    4602        .F      MOV      r2,r0
        0x0001867c:    2100        .!      MOVS     r1,#0
        0x0001867e:    4638        8F      MOV      r0,r7
        0x00018680:    f000f906    ....    BL       set_child ; 0x18890
        0x00018684:    4652        RF      MOV      r2,r10
        0x00018686:    2100        .!      MOVS     r1,#0
        0x00018688:    4628        (F      MOV      r0,r5
        0x0001868a:    f000f901    ....    BL       set_child ; 0x18890
        0x0001868e:    2101        .!      MOVS     r1,#1
        0x00018690:    4638        8F      MOV      r0,r7
        0x00018692:    f000f8f6    ....    BL       get_child ; 0x18882
        0x00018696:    4602        .F      MOV      r2,r0
        0x00018698:    2101        .!      MOVS     r1,#1
        0x0001869a:    4628        (F      MOV      r0,r5
        0x0001869c:    f000f8f8    ....    BL       set_child ; 0x18890
        0x000186a0:    2200        ."      MOVS     r2,#0
        0x000186a2:    2101        .!      MOVS     r1,#1
        0x000186a4:    4638        8F      MOV      r0,r7
        0x000186a6:    f000f8f3    ....    BL       set_child ; 0x18890
        0x000186aa:    eb06008b    ....    ADD      r0,r6,r11,LSL #2
        0x000186ae:    f8592c04    Y..,    LDR      r2,[r9,#-4]
        0x000186b2:    f8501d04    P...    LDR      r1,[r0,#-4]!
        0x000186b6:    6002        .`      STR      r2,[r0,#0]
        0x000186b8:    f8491c04    I...    STR      r1,[r9,#-4]
        0x000186bc:    7838        8x      LDRB     r0,[r7,#0]
        0x000186be:    f0000901    ....    AND      r9,r0,#1
        0x000186c2:    e001        ..      B        0x186c8 ; rb_remove + 302
        0x000186c4:    e022        ".      B        0x1870c ; rb_remove + 370
        0x000186c6:    e009        ..      B        0x186dc ; rb_remove + 322
        0x000186c8:    7828        (x      LDRB     r0,[r5,#0]
        0x000186ca:    f0000101    ....    AND      r1,r0,#1
        0x000186ce:    4638        8F      MOV      r0,r7
        0x000186d0:    f000f8e7    ....    BL       set_color ; 0x188a2
        0x000186d4:    4649        IF      MOV      r1,r9
        0x000186d6:    4628        (F      MOV      r0,r5
        0x000186d8:    f000f8e3    ....    BL       set_color ; 0x188a2
        0x000186dc:    2100        .!      MOVS     r1,#0
        0x000186de:    4638        8F      MOV      r0,r7
        0x000186e0:    f000f8cf    ....    BL       get_child ; 0x18882
        0x000186e4:    0005        ..      MOVS     r5,r0
        0x000186e6:    d104        ..      BNE      0x186f2 ; rb_remove + 344
        0x000186e8:    2101        .!      MOVS     r1,#1
        0x000186ea:    4638        8F      MOV      r0,r7
        0x000186ec:    f000f8c9    ....    BL       get_child ; 0x18882
        0x000186f0:    4605        .F      MOV      r5,r0
        0x000186f2:    2c02        .,      CMP      r4,#2
        0x000186f4:    da0f        ..      BGE      0x18716 ; rb_remove + 380
        0x000186f6:    f8c85000    ...P    STR      r5,[r8,#0]
        0x000186fa:    b125        %.      CBZ      r5,0x18706 ; rb_remove + 364
        0x000186fc:    2101        .!      MOVS     r1,#1
        0x000186fe:    4628        (F      MOV      r0,r5
        0x00018700:    f000f8cf    ....    BL       set_color ; 0x188a2
        0x00018704:    e002        ..      B        0x1870c ; rb_remove + 370
        0x00018706:    2100        .!      MOVS     r1,#0
        0x00018708:    f8c81008    ....    STR      r1,[r8,#8]
        0x0001870c:    4630        0F      MOV      r0,r6
        0x0001870e:    e8bd4ff8    ...O    POP      {r3-r11,lr}
        0x00018712:    f001b933    ..3.    B.W      free ; 0x1997c
        0x00018716:    eb060a84    ....    ADD      r10,r6,r4,LSL #2
        0x0001871a:    f85a0c08    Z...    LDR      r0,[r10,#-8]
        0x0001871e:    4681        .F      MOV      r9,r0
        0x00018720:    b16d        m.      CBZ      r5,0x1873e ; rb_remove + 420
        0x00018722:    4639        9F      MOV      r1,r7
        0x00018724:    f000f8c3    ....    BL       get_side ; 0x188ae
        0x00018728:    4601        .F      MOV      r1,r0
        0x0001872a:    462a        *F      MOV      r2,r5
        0x0001872c:    4648        HF      MOV      r0,r9
        0x0001872e:    f000f8af    ....    BL       set_child ; 0x18890
        0x00018732:    7838        8x      LDRB     r0,[r7,#0]
        0x00018734:    f3400000    @...    SBFX     r0,r0,#0,#1
        0x00018738:    1c40        @.      ADDS     r0,r0,#1
        0x0001873a:    d114        ..      BNE      0x18766 ; rb_remove + 460
        0x0001873c:    e00e        ..      B        0x1875c ; rb_remove + 450
        0x0001873e:    7838        8x      LDRB     r0,[r7,#0]
        0x00018740:    07c0        ..      LSLS     r0,r0,#31
        0x00018742:    d001        ..      BEQ      0x18748 ; rb_remove + 430
        0x00018744:    463a        :F      MOV      r2,r7
        0x00018746:    e016        ..      B        0x18776 ; rb_remove + 476
        0x00018748:    4639        9F      MOV      r1,r7
        0x0001874a:    4648        HF      MOV      r0,r9
        0x0001874c:    f000f8af    ....    BL       get_side ; 0x188ae
        0x00018750:    4601        .F      MOV      r1,r0
        0x00018752:    2200        ."      MOVS     r2,#0
        0x00018754:    4648        HF      MOV      r0,r9
        0x00018756:    f000f89b    ....    BL       set_child ; 0x18890
        0x0001875a:    e010        ..      B        0x1877e ; rb_remove + 484
        0x0001875c:    7828        (x      LDRB     r0,[r5,#0]
        0x0001875e:    f3400000    @...    SBFX     r0,r0,#0,#1
        0x00018762:    1c40        @.      ADDS     r0,r0,#1
        0x00018764:    d004        ..      BEQ      0x18770 ; rb_remove + 470
        0x00018766:    2101        .!      MOVS     r1,#1
        0x00018768:    4628        (F      MOV      r0,r5
        0x0001876a:    f000f89a    ....    BL       set_color ; 0x188a2
        0x0001876e:    e006        ..      B        0x1877e ; rb_remove + 484
        0x00018770:    f84a5c04    J..\    STR      r5,[r10,#-4]
        0x00018774:    2200        ."      MOVS     r2,#0
        0x00018776:    4621        !F      MOV      r1,r4
        0x00018778:    4630        0F      MOV      r0,r6
        0x0001877a:    f7fffe4a    ..J.    BL       fix_missing_black ; 0x18412
        0x0001877e:    6831        1h      LDR      r1,[r6,#0]
        0x00018780:    f8c81000    ....    STR      r1,[r8,#0]
        0x00018784:    e7c2        ..      B        0x1870c ; rb_remove + 370
    _rb_walk
        0x00018786:    b570        p.      PUSH     {r4-r6,lr}
        0x00018788:    4616        .F      MOV      r6,r2
        0x0001878a:    460c        .F      MOV      r4,r1
        0x0001878c:    0005        ..      MOVS     r5,r0
        0x0001878e:    d00e        ..      BEQ      0x187ae ; _rb_walk + 40
        0x00018790:    2100        .!      MOVS     r1,#0
        0x00018792:    f000f876    ..v.    BL       get_child ; 0x18882
        0x00018796:    4632        2F      MOV      r2,r6
        0x00018798:    4621        !F      MOV      r1,r4
        0x0001879a:    f7fffff4    ....    BL       _rb_walk ; 0x18786
        0x0001879e:    4631        1F      MOV      r1,r6
        0x000187a0:    4628        (F      MOV      r0,r5
        0x000187a2:    47a0        .G      BLX      r4
        0x000187a4:    2101        .!      MOVS     r1,#1
        0x000187a6:    4628        (F      MOV      r0,r5
        0x000187a8:    f000f86b    ..k.    BL       get_child ; 0x18882
        0x000187ac:    e7ee        ..      B        0x1878c ; _rb_walk + 6
        0x000187ae:    bd70        p.      POP      {r4-r6,pc}
    _rb_child
        0x000187b0:    f000b867    ..g.    B.W      get_child ; 0x18882
    _rb_is_black
        0x000187b4:    7800        .x      LDRB     r0,[r0,#0]
        0x000187b6:    f0000001    ....    AND      r0,r0,#1
        0x000187ba:    4770        pG      BX       lr
    rb_contains
        0x000187bc:    b570        p.      PUSH     {r4-r6,lr}
        0x000187be:    460d        .F      MOV      r5,r1
        0x000187c0:    4606        .F      MOV      r6,r0
        0x000187c2:    6804        .h      LDR      r4,[r0,#0]
        0x000187c4:    e008        ..      B        0x187d8 ; rb_contains + 28
        0x000187c6:    6872        rh      LDR      r2,[r6,#4]
        0x000187c8:    4629        )F      MOV      r1,r5
        0x000187ca:    4620         F      MOV      r0,r4
        0x000187cc:    4790        .G      BLX      r2
        0x000187ce:    4601        .F      MOV      r1,r0
        0x000187d0:    4620         F      MOV      r0,r4
        0x000187d2:    f000f856    ..V.    BL       get_child ; 0x18882
        0x000187d6:    4604        .F      MOV      r4,r0
        0x000187d8:    b10c        ..      CBZ      r4,0x187de ; rb_contains + 34
        0x000187da:    42ac        .B      CMP      r4,r5
        0x000187dc:    d1f3        ..      BNE      0x187c6 ; rb_contains + 10
        0x000187de:    42ac        .B      CMP      r4,r5
        0x000187e0:    d101        ..      BNE      0x187e6 ; rb_contains + 42
        0x000187e2:    2001        .       MOVS     r0,#1
        0x000187e4:    bd70        p.      POP      {r4-r6,pc}
        0x000187e6:    2000        .       MOVS     r0,#0
        0x000187e8:    bd70        p.      POP      {r4-r6,pc}
    stack_left_limb
        0x000187ea:    b570        p.      PUSH     {r4-r6,lr}
        0x000187ec:    460c        .F      MOV      r4,r1
        0x000187ee:    6889        .h      LDR      r1,[r1,#8]
        0x000187f0:    1c49        I.      ADDS     r1,r1,#1
        0x000187f2:    60a1        .`      STR      r1,[r4,#8]
        0x000187f4:    6822        "h      LDR      r2,[r4,#0]
        0x000187f6:    f8420021    B.!.    STR      r0,[r2,r1,LSL #2]
        0x000187fa:    e9d42301    ...#    LDRD     r2,r3,[r4,#4]
        0x000187fe:    2100        .!      MOVS     r1,#0
        0x00018800:    54d1        .T      STRB     r1,[r2,r3]
        0x00018802:    2501        .%      MOVS     r5,#1
        0x00018804:    e008        ..      B        0x18818 ; stack_left_limb + 46
        0x00018806:    68a1        .h      LDR      r1,[r4,#8]
        0x00018808:    1c49        I.      ADDS     r1,r1,#1
        0x0001880a:    60a1        .`      STR      r1,[r4,#8]
        0x0001880c:    6822        "h      LDR      r2,[r4,#0]
        0x0001880e:    f8420021    B.!.    STR      r0,[r2,r1,LSL #2]
        0x00018812:    e9d41201    ....    LDRD     r1,r2,[r4,#4]
        0x00018816:    548d        .T      STRB     r5,[r1,r2]
        0x00018818:    2100        .!      MOVS     r1,#0
        0x0001881a:    f000f832    ..2.    BL       get_child ; 0x18882
        0x0001881e:    2800        .(      CMP      r0,#0
        0x00018820:    d1f1        ..      BNE      0x18806 ; stack_left_limb + 28
        0x00018822:    68a1        .h      LDR      r1,[r4,#8]
        0x00018824:    6820         h      LDR      r0,[r4,#0]
        0x00018826:    f8500021    P.!.    LDR      r0,[r0,r1,LSL #2]
        0x0001882a:    bd70        p.      POP      {r4-r6,pc}
    _rb_foreach_next
        0x0001882c:    b510        ..      PUSH     {r4,lr}
        0x0001882e:    6800        .h      LDR      r0,[r0,#0]
        0x00018830:    460c        .F      MOV      r4,r1
        0x00018832:    2800        .(      CMP      r0,#0
        0x00018834:    d022        ".      BEQ      0x1887c ; _rb_foreach_next + 80
        0x00018836:    68a1        .h      LDR      r1,[r4,#8]
        0x00018838:    1c4a        J.      ADDS     r2,r1,#1
        0x0001883a:    d006        ..      BEQ      0x1884a ; _rb_foreach_next + 30
        0x0001883c:    6820         h      LDR      r0,[r4,#0]
        0x0001883e:    f8500021    P.!.    LDR      r0,[r0,r1,LSL #2]
        0x00018842:    2101        .!      MOVS     r1,#1
        0x00018844:    f000f81d    ....    BL       get_child ; 0x18882
        0x00018848:    b118        ..      CBZ      r0,0x18852 ; _rb_foreach_next + 38
        0x0001884a:    4621        !F      MOV      r1,r4
        0x0001884c:    e8bd4010    ...@    POP      {r4,lr}
        0x00018850:    e7cb        ..      B        stack_left_limb ; 0x187ea
        0x00018852:    e9d41001    ....    LDRD     r1,r0,[r4,#4]
        0x00018856:    5c0a        .\      LDRB     r2,[r1,r0]
        0x00018858:    b12a        *.      CBZ      r2,0x18866 ; _rb_foreach_next + 58
        0x0001885a:    1e40        @.      SUBS     r0,r0,#1
        0x0001885c:    6821        !h      LDR      r1,[r4,#0]
        0x0001885e:    60a0        .`      STR      r0,[r4,#8]
        0x00018860:    e00a        ..      B        0x18878 ; _rb_foreach_next + 76
        0x00018862:    1e40        @.      SUBS     r0,r0,#1
        0x00018864:    60a0        .`      STR      r0,[r4,#8]
        0x00018866:    2800        .(      CMP      r0,#0
        0x00018868:    dd02        ..      BLE      0x18870 ; _rb_foreach_next + 68
        0x0001886a:    5c0a        .\      LDRB     r2,[r1,r0]
        0x0001886c:    2a00        .*      CMP      r2,#0
        0x0001886e:    d0f8        ..      BEQ      0x18862 ; _rb_foreach_next + 54
        0x00018870:    1e40        @.      SUBS     r0,r0,#1
        0x00018872:    60a0        .`      STR      r0,[r4,#8]
        0x00018874:    d403        ..      BMI      0x1887e ; _rb_foreach_next + 82
        0x00018876:    6821        !h      LDR      r1,[r4,#0]
        0x00018878:    f8510020    Q. .    LDR      r0,[r1,r0,LSL #2]
        0x0001887c:    bd10        ..      POP      {r4,pc}
        0x0001887e:    2000        .       MOVS     r0,#0
        0x00018880:    bd10        ..      POP      {r4,pc}
    get_child
        0x00018882:    b109        ..      CBZ      r1,0x18888 ; get_child + 6
        0x00018884:    6840        @h      LDR      r0,[r0,#4]
        0x00018886:    4770        pG      BX       lr
        0x00018888:    6800        .h      LDR      r0,[r0,#0]
        0x0001888a:    f0200001     ...    BIC      r0,r0,#1
        0x0001888e:    4770        pG      BX       lr
    set_child
        0x00018890:    b109        ..      CBZ      r1,0x18896 ; set_child + 6
        0x00018892:    6042        B`      STR      r2,[r0,#4]
        0x00018894:    4770        pG      BX       lr
        0x00018896:    7801        .x      LDRB     r1,[r0,#0]
        0x00018898:    f0010101    ....    AND      r1,r1,#1
        0x0001889c:    4311        .C      ORRS     r1,r1,r2
        0x0001889e:    6001        .`      STR      r1,[r0,#0]
        0x000188a0:    4770        pG      BX       lr
    set_color
        0x000188a2:    6802        .h      LDR      r2,[r0,#0]
        0x000188a4:    f0220201    "...    BIC      r2,r2,#1
        0x000188a8:    430a        .C      ORRS     r2,r2,r1
        0x000188aa:    6002        .`      STR      r2,[r0,#0]
        0x000188ac:    4770        pG      BX       lr
    get_side
        0x000188ae:    b510        ..      PUSH     {r4,lr}
        0x000188b0:    460c        .F      MOV      r4,r1
        0x000188b2:    2101        .!      MOVS     r1,#1
        0x000188b4:    f7ffffe5    ....    BL       get_child ; 0x18882
        0x000188b8:    42a0        .B      CMP      r0,r4
        0x000188ba:    d101        ..      BNE      0x188c0 ; get_side + 18
        0x000188bc:    2001        .       MOVS     r0,#1
        0x000188be:    bd10        ..      POP      {r4,pc}
        0x000188c0:    2000        .       MOVS     r0,#0
        0x000188c2:    bd10        ..      POP      {r4,pc}
    fix_extra_red
        0x000188c4:    e92d5ff0    -.._    PUSH     {r4-r12,lr}
        0x000188c8:    460c        .F      MOV      r4,r1
        0x000188ca:    4606        .F      MOV      r6,r0
        0x000188cc:    e045        E.      B        0x1895a ; fix_extra_red + 150
        0x000188ce:    bf00        ..      NOP      
        0x000188d0:    eb060584    ....    ADD      r5,r6,r4,LSL #2
        0x000188d4:    f8558c08    U...    LDR      r8,[r5,#-8]
        0x000188d8:    f855ac04    U...    LDR      r10,[r5,#-4]
        0x000188dc:    f8980000    ....    LDRB     r0,[r8,#0]
        0x000188e0:    07c0        ..      LSLS     r0,r0,#31
        0x000188e2:    d141        A.      BNE      0x18968 ; fix_extra_red + 164
        0x000188e4:    f855bc0c    U...    LDR      r11,[r5,#-0xc]
        0x000188e8:    4641        AF      MOV      r1,r8
        0x000188ea:    4658        XF      MOV      r0,r11
        0x000188ec:    f7ffffdf    ....    BL       get_side ; 0x188ae
        0x000188f0:    0007        ..      MOVS     r7,r0
        0x000188f2:    d023        #.      BEQ      0x1893c ; fix_extra_red + 120
        0x000188f4:    2100        .!      MOVS     r1,#0
        0x000188f6:    4658        XF      MOV      r0,r11
        0x000188f8:    f7ffffc3    ....    BL       get_child ; 0x18882
        0x000188fc:    ea5f0900    _...    MOVS     r9,r0
        0x00018900:    d003        ..      BEQ      0x1890a ; fix_extra_red + 70
        0x00018902:    f8990000    ....    LDRB     r0,[r9,#0]
        0x00018906:    07c0        ..      LSLS     r0,r0,#31
        0x00018908:    d01a        ..      BEQ      0x18940 ; fix_extra_red + 124
        0x0001890a:    4651        QF      MOV      r1,r10
        0x0001890c:    4640        @F      MOV      r0,r8
        0x0001890e:    f7ffffce    ....    BL       get_side ; 0x188ae
        0x00018912:    42b8        .B      CMP      r0,r7
        0x00018914:    d003        ..      BEQ      0x1891e ; fix_extra_red + 90
        0x00018916:    4621        !F      MOV      r1,r4
        0x00018918:    4630        0F      MOV      r0,r6
        0x0001891a:    f7fffcf1    ....    BL       rotate ; 0x18300
        0x0001891e:    1e61        a.      SUBS     r1,r4,#1
        0x00018920:    4630        0F      MOV      r0,r6
        0x00018922:    f7fffced    ....    BL       rotate ; 0x18300
        0x00018926:    eb060084    ....    ADD      r0,r6,r4,LSL #2
        0x0001892a:    2101        .!      MOVS     r1,#1
        0x0001892c:    f8500c0c    P...    LDR      r0,[r0,#-0xc]
        0x00018930:    f7ffffb7    ....    BL       set_color ; 0x188a2
        0x00018934:    f8550c08    U...    LDR      r0,[r5,#-8]
        0x00018938:    2100        .!      MOVS     r1,#0
        0x0001893a:    e012        ..      B        0x18962 ; fix_extra_red + 158
        0x0001893c:    2101        .!      MOVS     r1,#1
        0x0001893e:    e7da        ..      B        0x188f6 ; fix_extra_red + 50
        0x00018940:    2100        .!      MOVS     r1,#0
        0x00018942:    4658        XF      MOV      r0,r11
        0x00018944:    f7ffffad    ....    BL       set_color ; 0x188a2
        0x00018948:    2101        .!      MOVS     r1,#1
        0x0001894a:    4640        @F      MOV      r0,r8
        0x0001894c:    f7ffffa9    ....    BL       set_color ; 0x188a2
        0x00018950:    2101        .!      MOVS     r1,#1
        0x00018952:    4648        HF      MOV      r0,r9
        0x00018954:    f7ffffa5    ....    BL       set_color ; 0x188a2
        0x00018958:    1ea4        ..      SUBS     r4,r4,#2
        0x0001895a:    2c01        .,      CMP      r4,#1
        0x0001895c:    dcb8        ..      BGT      0x188d0 ; fix_extra_red + 12
        0x0001895e:    6830        0h      LDR      r0,[r6,#0]
        0x00018960:    2101        .!      MOVS     r1,#1
        0x00018962:    e8bd5ff0    ..._    POP      {r4-r12,lr}
        0x00018966:    e79c        ..      B        set_color ; 0x188a2
        0x00018968:    e8bd9ff0    ....    POP      {r4-r12,pc}
    .text
    _stdout_hook_default
        0x0001896c:    f04f30ff    O..0    MOV      r0,#0xffffffff
        0x00018970:    4770        pG      BX       lr
    __stdout_hook_install
        0x00018972:    492a        *I      LDR      r1,[pc,#168] ; [0x18a1c] = 0xc0019fc8
        0x00018974:    6008        .`      STR      r0,[r1,#0]
        0x00018976:    4770        pG      BX       lr
    _impl__ugelis_fputc
        0x00018978:    4a29        )J      LDR      r2,[pc,#164] ; [0x18a20] = 0xc001a25c
        0x0001897a:    428a        .B      CMP      r2,r1
        0x0001897c:    d102        ..      BNE      0x18984 ; _impl__ugelis_fputc + 12
        0x0001897e:    4927        'I      LDR      r1,[pc,#156] ; [0x18a1c] = 0xc0019fc8
        0x00018980:    6809        .h      LDR      r1,[r1,#0]
        0x00018982:    4708        .G      BX       r1
        0x00018984:    f04f30ff    O..0    MOV      r0,#0xffffffff
        0x00018988:    4770        pG      BX       lr
    fputc
        0x0001898a:    e7f5        ..      B        _impl__ugelis_fputc ; 0x18978
    _impl__ugelis_fwrite
        0x0001898c:    e92d47f0    -..G    PUSH     {r4-r10,lr}
        0x00018990:    4604        .F      MOV      r4,r0
        0x00018992:    4823        #H      LDR      r0,[pc,#140] ; [0x18a20] = 0xc001a25c
        0x00018994:    4690        .F      MOV      r8,r2
        0x00018996:    4689        .F      MOV      r9,r1
        0x00018998:    4283        .B      CMP      r3,r0
        0x0001899a:    d117        ..      BNE      0x189cc ; _impl__ugelis_fwrite + 64
        0x0001899c:    f1b80f00    ....    CMP      r8,#0
        0x000189a0:    d014        ..      BEQ      0x189cc ; _impl__ugelis_fwrite + 64
        0x000189a2:    f1b90f00    ....    CMP      r9,#0
        0x000189a6:    d011        ..      BEQ      0x189cc ; _impl__ugelis_fwrite + 64
        0x000189a8:    4f1c        .O      LDR      r7,[pc,#112] ; [0x18a1c] = 0xc0019fc8
        0x000189aa:    4645        EF      MOV      r5,r8
        0x000189ac:    ea4f0609    O...    MOV.W    r6,r9
        0x000189b0:    6839        9h      LDR      r1,[r7,#0]
        0x000189b2:    f8140b01    ....    LDRB     r0,[r4],#1
        0x000189b6:    4788        .G      BLX      r1
        0x000189b8:    1c40        @.      ADDS     r0,r0,#1
        0x000189ba:    d003        ..      BEQ      0x189c4 ; _impl__ugelis_fwrite + 56
        0x000189bc:    1e76        v.      SUBS     r6,r6,#1
        0x000189be:    d1f7        ..      BNE      0x189b0 ; _impl__ugelis_fwrite + 36
        0x000189c0:    1e6d        m.      SUBS     r5,r5,#1
        0x000189c2:    d1f3        ..      BNE      0x189ac ; _impl__ugelis_fwrite + 32
        0x000189c4:    eba80005    ....    SUB      r0,r8,r5
        0x000189c8:    e8bd87f0    ....    POP      {r4-r10,pc}
        0x000189cc:    2000        .       MOVS     r0,#0
        0x000189ce:    e7fb        ..      B        0x189c8 ; _impl__ugelis_fwrite + 60
    fwrite
        0x000189d0:    e7dc        ..      B        _impl__ugelis_fwrite ; 0x1898c
    fputs
        0x000189d2:    b570        p.      PUSH     {r4-r6,lr}
        0x000189d4:    460d        .F      MOV      r5,r1
        0x000189d6:    4606        .F      MOV      r6,r0
        0x000189d8:    f000fdab    ....    BL       strlen ; 0x19532
        0x000189dc:    4604        .F      MOV      r4,r0
        0x000189de:    4601        .F      MOV      r1,r0
        0x000189e0:    462b        +F      MOV      r3,r5
        0x000189e2:    2201        ."      MOVS     r2,#1
        0x000189e4:    4630        0F      MOV      r0,r6
        0x000189e6:    f7fffff3    ....    BL       fwrite ; 0x189d0
        0x000189ea:    4284        .B      CMP      r4,r0
        0x000189ec:    d101        ..      BNE      0x189f2 ; fputs + 32
        0x000189ee:    2000        .       MOVS     r0,#0
        0x000189f0:    bd70        p.      POP      {r4-r6,pc}
        0x000189f2:    f04f30ff    O..0    MOV      r0,#0xffffffff
        0x000189f6:    bd70        p.      POP      {r4-r6,pc}
    puts
        0x000189f8:    b510        ..      PUSH     {r4,lr}
        0x000189fa:    4909        .I      LDR      r1,[pc,#36] ; [0x18a20] = 0xc001a25c
        0x000189fc:    f7ffffe9    ....    BL       fputs ; 0x189d2
        0x00018a00:    f04f34ff    O..4    MOV      r4,#0xffffffff
        0x00018a04:    1c40        @.      ADDS     r0,r0,#1
        0x00018a06:    d007        ..      BEQ      0x18a18 ; puts + 32
        0x00018a08:    4905        .I      LDR      r1,[pc,#20] ; [0x18a20] = 0xc001a25c
        0x00018a0a:    200a        .       MOVS     r0,#0xa
        0x00018a0c:    f7ffffbd    ....    BL       fputc ; 0x1898a
        0x00018a10:    1c40        @.      ADDS     r0,r0,#1
        0x00018a12:    d001        ..      BEQ      0x18a18 ; puts + 32
        0x00018a14:    2000        .       MOVS     r0,#0
        0x00018a16:    bd10        ..      POP      {r4,pc}
        0x00018a18:    4620         F      MOV      r0,r4
        0x00018a1a:    bd10        ..      POP      {r4,pc}
    $d
        0x00018a1c:    c0019fc8    ....    DCD    3221331912
        0x00018a20:    c001a25c    \...    DCD    3221332572
        0x00018a24:    00000000    ....    DCD    0
        0x00018a28:    00000000    ....    DCD    0
        0x00018a2c:    00000000    ....    DCD    0
    $t
    .text
    $v0
    fp_register_touch
        0x00018a30:    f3bf8f6f    ..o.    ISB      
        0x00018a34:    ee000a10    ....    VMOV     s0,r0
        0x00018a38:    f3bf8f6f    ..o.    ISB      
        0x00018a3c:    4770        pG      BX       lr
    __pendsv
        0x00018a3e:    2020                MOVS     r0,#0x20
        0x00018a40:    f3808811    ....    MSR      BASEPRI,r0
        0x00018a44:    491d        .I      LDR      r1,[pc,#116] ; [0x18abc] = 0xc001d458
        0x00018a46:    688a        .h      LDR      r2,[r1,#8]
        0x00018a48:    f04f002c    O.,.    MOV      r0,#0x2c
        0x00018a4c:    4410        .D      ADD      r0,r0,r2
        0x00018a4e:    f3ef8c09    ....    MRS      r12,PSP
        0x00018a52:    e8801ff0    ....    STM      r0,{r4-r12}
        0x00018a56:    f1020068    ..h.    ADD      r0,r2,#0x68
        0x00018a5a:    ec808a10    ....    VSTM     r0,{s16-s31}
        0x00018a5e:    4f18        .O      LDR      r7,[pc,#96] ; [0x18ac0] = 0xe000ed04
        0x00018a60:    f04f6600    O..f    MOV      r6,#0x8000000
        0x00018a64:    69ca        .i      LDR      r2,[r1,#0x1c]
        0x00018a66:    608a        .`      STR      r2,[r1,#8]
        0x00018a68:    603e        >`      STR      r6,[r7,#0]
        0x00018a6a:    6e10        .n      LDR      r0,[r2,#0x60]
        0x00018a6c:    2300        .#      MOVS     r3,#0
        0x00018a6e:    6613        .f      STR      r3,[r2,#0x60]
        0x00018a70:    f3808811    ....    MSR      BASEPRI,r0
        0x00018a74:    f1020068    ..h.    ADD      r0,r2,#0x68
        0x00018a78:    ec908a10    ....    VLDM     r0,{s16-s31}
        0x00018a7c:    f102002c    ..,.    ADD      r0,r2,#0x2c
        0x00018a80:    e8901ff0    ....    LDM      r0,{r4-r12}
        0x00018a84:    f38c8809    ....    MSR      PSP,r12
        0x00018a88:    4770        pG      BX       lr
    __svc
        0x00018a8a:    f01e0f04    ....    TST      lr,#4
        0x00018a8e:    bf0c        ..      ITE      EQ
        0x00018a90:    f3ef8008    ....    MRSEQ    r0,MSP
        0x00018a94:    f3ef8009    ....    MRSNE    r0,PSP
        0x00018a98:    6981        .i      LDR      r1,[r0,#0x18]
        0x00018a9a:    f8311c02    1...    LDRH     r1,[r1,#-2]
        0x00018a9e:    f01101ff    ....    ANDS     r1,r1,#0xff
        0x00018aa2:    2902        .)      CMP      r1,#2
        0x00018aa4:    d006        ..      BEQ      0x18ab4 ; __svc + 42
        0x00018aa6:    b500        ..      PUSH     {lr}
        0x00018aa8:    4806        .H      LDR      r0,[pc,#24] ; [0x18ac4] = 0x18c89
        0x00018aaa:    4780        .G      BLX      r0
        0x00018aac:    f85deb04    ]...    POP      {lr}
        0x00018ab0:    f000bd86    ....    B.W      _ExcExit ; 0x195c0
        0x00018ab4:    b500        ..      PUSH     {lr}
        0x00018ab6:    4804        .H      LDR      r0,[pc,#16] ; [0x18ac8] = 0x1925f
        0x00018ab8:    4780        .G      BLX      r0
        0x00018aba:    bd00        ..      POP      {pc}
    $d
        0x00018abc:    c001d458    X...    DCD    3221345368
        0x00018ac0:    e000ed04    ....    DCD    3758157060
        0x00018ac4:    00018c89    ....    DCD    101513
        0x00018ac8:    0001925f    _...    DCD    103007
    $t
    .text
    __swap
        0x00018acc:    490a        .I      LDR      r1,[pc,#40] ; [0x18af8] = 0xc001d458
        0x00018ace:    688a        .h      LDR      r2,[r1,#8]
        0x00018ad0:    6610        .f      STR      r0,[r2,#0x60]
        0x00018ad2:    480a        .H      LDR      r0,[pc,#40] ; [0x18afc] = 0x19b88
        0x00018ad4:    688a        .h      LDR      r2,[r1,#8]
        0x00018ad6:    6800        .h      LDR      r0,[r0,#0]
        0x00018ad8:    6650        Pf      STR      r0,[r2,#0x64]
        0x00018ada:    4809        .H      LDR      r0,[pc,#36] ; [0x18b00] = 0xe000ed04
        0x00018adc:    6802        .h      LDR      r2,[r0,#0]
        0x00018ade:    f0425280    B..R    ORR      r2,r2,#0x10000000
        0x00018ae2:    6002        .`      STR      r2,[r0,#0]
        0x00018ae4:    2000        .       MOVS     r0,#0
        0x00018ae6:    f3808811    ....    MSR      BASEPRI,r0
        0x00018aea:    f3bf8f4f    ..O.    DSB      
        0x00018aee:    f3bf8f6f    ..o.    ISB      
        0x00018af2:    6888        .h      LDR      r0,[r1,#8]
        0x00018af4:    6e40        @n      LDR      r0,[r0,#0x64]
        0x00018af6:    4770        pG      BX       lr
    $d
        0x00018af8:    c001d458    X...    DCD    3221345368
        0x00018afc:    00019b88    ....    DCD    105352
        0x00018b00:    e000ed04    ....    DCD    3758157060
    $t
    .text
    $v0
    _isr_wrapper
        0x00018b04:    b500        ..      PUSH     {lr}
        0x00018b06:    f3ef8005    ....    MRS      r0,IPSR
        0x00018b0a:    f1a00010    ....    SUB      r0,r0,#0x10
        0x00018b0e:    ea4f00c0    O...    LSL      r0,r0,#3
        0x00018b12:    4904        .I      LDR      r1,[pc,#16] ; [0x18b24] = 0xc0019fd0
        0x00018b14:    4401        .D      ADD      r1,r1,r0
        0x00018b16:    c909        ..      LDM      r1!,{r0,r3}
        0x00018b18:    4798        .G      BLX      r3
        0x00018b1a:    f85deb04    ]...    POP      {lr}
        0x00018b1e:    f000bd4f    ..O.    B.W      _ExcExit ; 0x195c0
    $d
        0x00018b22:    0000        ..      DCW    0
        0x00018b24:    c0019fd0    ....    DCD    3221331920
    $t
    .text
    _arch_irq_enable
        0x00018b28:    b240        @.      SXTB     r0,r0
        0x00018b2a:    2800        .(      CMP      r0,#0
        0x00018b2c:    db09        ..      BLT      0x18b42 ; _arch_irq_enable + 26
        0x00018b2e:    f000021f    ....    AND      r2,r0,#0x1f
        0x00018b32:    2101        .!      MOVS     r1,#1
        0x00018b34:    4091        .@      LSLS     r1,r1,r2
        0x00018b36:    0940        @.      LSRS     r0,r0,#5
        0x00018b38:    0080        ..      LSLS     r0,r0,#2
        0x00018b3a:    f10020e0    ...     ADD      r0,r0,#0xe000e000
        0x00018b3e:    f8c01100    ....    STR      r1,[r0,#0x100]
        0x00018b42:    4770        pG      BX       lr
    _arch_irq_disable
        0x00018b44:    b240        @.      SXTB     r0,r0
        0x00018b46:    2800        .(      CMP      r0,#0
        0x00018b48:    db0d        ..      BLT      0x18b66 ; _arch_irq_disable + 34
        0x00018b4a:    f000021f    ....    AND      r2,r0,#0x1f
        0x00018b4e:    2101        .!      MOVS     r1,#1
        0x00018b50:    4091        .@      LSLS     r1,r1,r2
        0x00018b52:    0940        @.      LSRS     r0,r0,#5
        0x00018b54:    0080        ..      LSLS     r0,r0,#2
        0x00018b56:    f10020e0    ...     ADD      r0,r0,#0xe000e000
        0x00018b5a:    f8c01180    ....    STR      r1,[r0,#0x180]
        0x00018b5e:    f3bf8f4f    ..O.    DSB      
        0x00018b62:    f3bf8f6f    ..o.    ISB      
        0x00018b66:    4770        pG      BX       lr
    _arch_irq_is_enabled
        0x00018b68:    0941        A.      LSRS     r1,r0,#5
        0x00018b6a:    0089        ..      LSLS     r1,r1,#2
        0x00018b6c:    f10121e0    ...!    ADD      r1,r1,#0xe000e000
        0x00018b70:    f8d11100    ....    LDR      r1,[r1,#0x100]
        0x00018b74:    f000021f    ....    AND      r2,r0,#0x1f
        0x00018b78:    2001        .       MOVS     r0,#1
        0x00018b7a:    4090        .@      LSLS     r0,r0,r2
        0x00018b7c:    4008        .@      ANDS     r0,r0,r1
        0x00018b7e:    4770        pG      BX       lr
    _irq_priority_set
        0x00018b80:    1c49        I.      ADDS     r1,r1,#1
        0x00018b82:    b240        @.      SXTB     r0,r0
        0x00018b84:    2800        .(      CMP      r0,#0
        0x00018b86:    ea4f1141    O.A.    LSL      r1,r1,#5
        0x00018b8a:    db04        ..      BLT      0x18b96 ; _irq_priority_set + 22
        0x00018b8c:    f10020e0    ...     ADD      r0,r0,#0xe000e000
        0x00018b90:    f8801400    ....    STRB     r1,[r0,#0x400]
        0x00018b94:    4770        pG      BX       lr
        0x00018b96:    f000000f    ....    AND      r0,r0,#0xf
        0x00018b9a:    f10020e0    ...     ADD      r0,r0,#0xe000e000
        0x00018b9e:    f8801d14    ....    STRB     r1,[r0,#0xd14]
        0x00018ba2:    4770        pG      BX       lr
    _irq_spurious
        0x00018ba4:    f000bd24    ..$.    B.W      __bus_fault ; 0x195f0
    .text
    _PrepC
        0x00018ba8:    480c        .H      LDR      r0,[pc,#48] ; [0x18bdc] = 0xc0019fcc
        0x00018baa:    490d        .I      LDR      r1,[pc,#52] ; [0x18be0] = 0xe000ed08
        0x00018bac:    6800        .h      LDR      r0,[r0,#0]
        0x00018bae:    f020007f     ...    BIC      r0,r0,#0x7f
        0x00018bb2:    6008        .`      STR      r0,[r1,#0]
        0x00018bb4:    f3bf8f4f    ..O.    DSB      
        0x00018bb8:    f3bf8f6f    ..o.    ISB      
        0x00018bbc:    4808        .H      LDR      r0,[pc,#32] ; [0x18be0] = 0xe000ed08
        0x00018bbe:    3080        .0      ADDS     r0,r0,#0x80
        0x00018bc0:    6801        .h      LDR      r1,[r0,#0]
        0x00018bc2:    f4410170    A.p.    ORR      r1,r1,#0xf00000
        0x00018bc6:    6001        .`      STR      r1,[r0,#0]
        0x00018bc8:    4906        .I      LDR      r1,[pc,#24] ; [0x18be4] = 0xe000ef34
        0x00018bca:    0700        ..      LSLS     r0,r0,#28
        0x00018bcc:    6008        .`      STR      r0,[r1,#0]
        0x00018bce:    f7ffff2f    ../.    BL       fp_register_touch ; 0x18a30
        0x00018bd2:    f7fef930    ..0.    BL       _bss_zero ; 0x16e36
        0x00018bd6:    f7fef999    ....    BL       _Cstart ; 0x16f0c
    $d
        0x00018bda:    0000        ..      DCW    0
        0x00018bdc:    c0019fcc    ....    DCD    3221331916
        0x00018be0:    e000ed08    ....    DCD    3758157064
        0x00018be4:    e000ef34    4...    DCD    3758157620
    $t
    .text
    __nmi
        0x00018be8:    b510        ..      PUSH     {r4,lr}
        0x00018bea:    f000fbc1    ....    BL       _SysNmiOnReset ; 0x19370
        0x00018bee:    e8bd4010    ...@    POP      {r4,lr}
        0x00018bf2:    f000bce5    ....    B.W      _ExcExit ; 0x195c0
        0x00018bf6:    0000        ..      MOVS     r0,r0
    .text
    _sw_isr_table_set
        0x00018bf8:    4903        .I      LDR      r1,[pc,#12] ; [0x18c08] = 0xc0019fd0
        0x00018bfa:    f8413030    A.00    STR      r3,[r1,r0,LSL #3]
        0x00018bfe:    eb0100c0    ....    ADD      r0,r1,r0,LSL #3
        0x00018c02:    6042        B`      STR      r2,[r0,#4]
        0x00018c04:    4770        pG      BX       lr
    $d
        0x00018c06:    0000        ..      DCW    0
        0x00018c08:    c0019fd0    ....    DCD    3221331920
    $t
    .text
    _sys_power_save_idle_exit
        0x00018c0c:    4770        pG      BX       lr
    idle
        0x00018c0e:    4c05        .L      LDR      r4,[pc,#20] ; [0x18c24] = 0xc001d46c
        0x00018c10:    2020                MOVS     r0,#0x20
        0x00018c12:    f3808811    ....    MSR      BASEPRI,r0
        0x00018c16:    f3bf8f4f    ..O.    DSB      
        0x00018c1a:    f3bf8f6f    ..o.    ISB      
        0x00018c1e:    f000fb91    ....    BL       k_cpu_idle ; 0x19344
        0x00018c22:    e7f5        ..      B        0x18c10 ; idle + 2
    $d
        0x00018c24:    c001d46c    l...    DCD    3221345388
    $t
    .text
    _thread_entry
        0x00018c28:    4615        .F      MOV      r5,r2
        0x00018c2a:    460e        .F      MOV      r6,r1
        0x00018c2c:    4604        .F      MOV      r4,r0
        0x00018c2e:    461a        .F      MOV      r2,r3
        0x00018c30:    4629        )F      MOV      r1,r5
        0x00018c32:    4630        0F      MOV      r0,r6
        0x00018c34:    47a0        .G      BLX      r4
        0x00018c36:    f7fdfc00    ....    BL       _impl_k_current_get ; 0x1643a
        0x00018c3a:    f000fba9    ....    BL       _impl_k_thread_abort ; 0x19390
        0x00018c3e:    0000        ..      MOVS     r0,r0
    .text
    _new_thread
        0x00018c40:    e92d47f0    -..G    PUSH     {r4-r10,lr}
        0x00018c44:    af08        ..      ADD      r7,sp,#0x20
        0x00018c46:    461d        .F      MOV      r5,r3
        0x00018c48:    e8970340    ..@.    LDM      r7,{r6,r8,r9}
        0x00018c4c:    4604        .F      MOV      r4,r0
        0x00018c4e:    e9dd030b    ....    LDRD     r0,r3,[sp,#0x2c]
        0x00018c52:    188f        ..      ADDS     r7,r1,r2
        0x00018c54:    4601        .F      MOV      r1,r0
        0x00018c56:    2204        ."      MOVS     r2,#4
        0x00018c58:    4620         F      MOV      r0,r4
        0x00018c5a:    f7fefce4    ....    BL       _init_thread_base ; 0x17626
        0x00018c5e:    2000        .       MOVS     r0,#0
        0x00018c60:    3f68        h?      SUBS     r7,r7,#0x68
        0x00018c62:    4a08        .J      LDR      r2,[pc,#32] ; [0x18c84] = 0x18c29
        0x00018c64:    6520         e      STR      r0,[r4,#0x50]
        0x00018c66:    f0270107    '...    BIC      r1,r7,#7
        0x00018c6a:    f0220201    "...    BIC      r2,r2,#1
        0x00018c6e:    6560        `e      STR      r0,[r4,#0x54]
        0x00018c70:    618a        .a      STR      r2,[r1,#0x18]
        0x00018c72:    f04f7280    O..r    MOV      r2,#0x1000000
        0x00018c76:    61ca        .a      STR      r2,[r1,#0x1c]
        0x00018c78:    e8810360    ..`.    STM      r1,{r5,r6,r8,r9}
        0x00018c7c:    64e1        .d      STR      r1,[r4,#0x4c]
        0x00018c7e:    6620         f      STR      r0,[r4,#0x60]
        0x00018c80:    e8bd87f0    ....    POP      {r4-r10,pc}
    $d
        0x00018c84:    00018c29    )...    DCD    101417
    $t
    .text
    _irq_do_offload
        0x00018c88:    490b        .I      LDR      r1,[pc,#44] ; [0x18cb8] = 0xc001a250
        0x00018c8a:    6848        Hh      LDR      r0,[r1,#4]
        0x00018c8c:    6809        .h      LDR      r1,[r1,#0]
        0x00018c8e:    4708        .G      BX       r1
    irq_offload
        0x00018c90:    b570        p.      PUSH     {r4-r6,lr}
        0x00018c92:    460d        .F      MOV      r5,r1
        0x00018c94:    4606        .F      MOV      r6,r0
        0x00018c96:    f7fdf8ec    ....    BL       k_sched_lock ; 0x15e72
        0x00018c9a:    4c07        .L      LDR      r4,[pc,#28] ; [0x18cb8] = 0xc001a250
        0x00018c9c:    6026        &`      STR      r6,[r4,#0]
        0x00018c9e:    6065        e`      STR      r5,[r4,#4]
        0x00018ca0:    df01        ..      SVC      #0x1 ; formerly SWI
        0x00018ca2:    f3bf8f4f    ..O.    DSB      
        0x00018ca6:    f3bf8f6f    ..o.    ISB      
        0x00018caa:    2000        .       MOVS     r0,#0
        0x00018cac:    6020         `      STR      r0,[r4,#0]
        0x00018cae:    e8bd4070    ..p@    POP      {r4-r6,lr}
        0x00018cb2:    f7fdb8f5    ....    B        k_sched_unlock ; 0x15ea0
    $d
        0x00018cb6:    0000        ..      DCW    0
        0x00018cb8:    c001a250    P...    DCD    3221332560
    $t
    .text
    _IntLibInit
        0x00018cbc:    2000        .       MOVS     r0,#0
        0x00018cbe:    2120         !      MOVS     r1,#0x20
        0x00018cc0:    b242        B.      SXTB     r2,r0
        0x00018cc2:    2a00        .*      CMP      r2,#0
        0x00018cc4:    db04        ..      BLT      0x18cd0 ; _IntLibInit + 20
        0x00018cc6:    f10222e0    ..."    ADD      r2,r2,#0xe000e000
        0x00018cca:    f8821400    ....    STRB     r1,[r2,#0x400]
        0x00018cce:    e005        ..      B        0x18cdc ; _IntLibInit + 32
        0x00018cd0:    f002020f    ....    AND      r2,r2,#0xf
        0x00018cd4:    f10222e0    ..."    ADD      r2,r2,#0xe000e000
        0x00018cd8:    f8821d14    ....    STRB     r1,[r2,#0xd14]
        0x00018cdc:    1c40        @.      ADDS     r0,r0,#1
        0x00018cde:    2850        P(      CMP      r0,#0x50
        0x00018ce0:    dbee        ..      BLT      0x18cc0 ; _IntLibInit + 4
        0x00018ce2:    4770        pG      BX       lr
    .text
    _MpuFault
        0x00018ce4:    b570        p.      PUSH     {r4-r6,lr}
        0x00018ce6:    460e        .F      MOV      r6,r1
        0x00018ce8:    2500        .%      MOVS     r5,#0
        0x00018cea:    a089        ..      ADR      r0,{pc}+0x226 ; 0x18f10
        0x00018cec:    f7fff846    ..F.    BL       printk ; 0x17d7c
        0x00018cf0:    4c8d        .L      LDR      r4,[pc,#564] ; [0x18f28] = 0xe000ed28
        0x00018cf2:    6820         h      LDR      r0,[r4,#0]
        0x00018cf4:    06c0        ..      LSLS     r0,r0,#27
        0x00018cf6:    d502        ..      BPL      0x18cfe ; _MpuFault + 26
        0x00018cf8:    a08c        ..      ADR      r0,{pc}+0x234 ; 0x18f2c
        0x00018cfa:    f7fff83f    ..?.    BL       printk ; 0x17d7c
        0x00018cfe:    6820         h      LDR      r0,[r4,#0]
        0x00018d00:    0700        ..      LSLS     r0,r0,#28
        0x00018d02:    d502        ..      BPL      0x18d0a ; _MpuFault + 38
        0x00018d04:    a08e        ..      ADR      r0,{pc}+0x23c ; 0x18f40
        0x00018d06:    f7fff839    ..9.    BL       printk ; 0x17d7c
        0x00018d0a:    6820         h      LDR      r0,[r4,#0]
        0x00018d0c:    0780        ..      LSLS     r0,r0,#30
        0x00018d0e:    d510        ..      BPL      0x18d32 ; _MpuFault + 78
        0x00018d10:    a090        ..      ADR      r0,{pc}+0x244 ; 0x18f54
        0x00018d12:    f7fff833    ..3.    BL       printk ; 0x17d7c
        0x00018d16:    4884        .H      LDR      r0,[pc,#528] ; [0x18f28] = 0xe000ed28
        0x00018d18:    300c        .0      ADDS     r0,r0,#0xc
        0x00018d1a:    6801        .h      LDR      r1,[r0,#0]
        0x00018d1c:    6820         h      LDR      r0,[r4,#0]
        0x00018d1e:    0600        ..      LSLS     r0,r0,#24
        0x00018d20:    d507        ..      BPL      0x18d32 ; _MpuFault + 78
        0x00018d22:    a093        ..      ADR      r0,{pc}+0x24e ; 0x18f70
        0x00018d24:    f7fff82a    ..*.    BL       printk ; 0x17d7c
        0x00018d28:    b11e        ..      CBZ      r6,0x18d32 ; _MpuFault + 78
        0x00018d2a:    6820         h      LDR      r0,[r4,#0]
        0x00018d2c:    f0200080     ...    BIC      r0,r0,#0x80
        0x00018d30:    6020         `      STR      r0,[r4,#0]
        0x00018d32:    6820         h      LDR      r0,[r4,#0]
        0x00018d34:    07c0        ..      LSLS     r0,r0,#31
        0x00018d36:    d002        ..      BEQ      0x18d3e ; _MpuFault + 90
        0x00018d38:    a093        ..      ADR      r0,{pc}+0x250 ; 0x18f88
        0x00018d3a:    f7fff81f    ....    BL       printk ; 0x17d7c
        0x00018d3e:    6820         h      LDR      r0,[r4,#0]
        0x00018d40:    0680        ..      LSLS     r0,r0,#26
        0x00018d42:    d502        ..      BPL      0x18d4a ; _MpuFault + 102
        0x00018d44:    a098        ..      ADR      r0,{pc}+0x264 ; 0x18fa8
        0x00018d46:    f7fff819    ....    BL       printk ; 0x17d7c
        0x00018d4a:    4628        (F      MOV      r0,r5
        0x00018d4c:    bd70        p.      POP      {r4-r6,pc}
    _BusFault
        0x00018d4e:    b570        p.      PUSH     {r4-r6,lr}
        0x00018d50:    460d        .F      MOV      r5,r1
        0x00018d52:    a0a1        ..      ADR      r0,{pc}+0x286 ; 0x18fd8
        0x00018d54:    f7fff812    ....    BL       printk ; 0x17d7c
        0x00018d58:    4c73        sL      LDR      r4,[pc,#460] ; [0x18f28] = 0xe000ed28
        0x00018d5a:    6820         h      LDR      r0,[r4,#0]
        0x00018d5c:    04c0        ..      LSLS     r0,r0,#19
        0x00018d5e:    d501        ..      BPL      0x18d64 ; _BusFault + 22
        0x00018d60:    a072        r.      ADR      r0,{pc}+0x1cc ; 0x18f2c
        0x00018d62:    e029        ).      B        0x18db8 ; _BusFault + 106
        0x00018d64:    6820         h      LDR      r0,[r4,#0]
        0x00018d66:    0500        ..      LSLS     r0,r0,#20
        0x00018d68:    d501        ..      BPL      0x18d6e ; _BusFault + 32
        0x00018d6a:    a075        u.      ADR      r0,{pc}+0x1d6 ; 0x18f40
        0x00018d6c:    e024        $.      B        0x18db8 ; _BusFault + 106
        0x00018d6e:    6820         h      LDR      r0,[r4,#0]
        0x00018d70:    0580        ..      LSLS     r0,r0,#22
        0x00018d72:    d515        ..      BPL      0x18da0 ; _BusFault + 82
        0x00018d74:    a09e        ..      ADR      r0,{pc}+0x27c ; 0x18ff0
        0x00018d76:    f7fff801    ....    BL       printk ; 0x17d7c
        0x00018d7a:    486b        kH      LDR      r0,[pc,#428] ; [0x18f28] = 0xe000ed28
        0x00018d7c:    3010        .0      ADDS     r0,r0,#0x10
        0x00018d7e:    6801        .h      LDR      r1,[r0,#0]
        0x00018d80:    6820         h      LDR      r0,[r4,#0]
        0x00018d82:    0400        ..      LSLS     r0,r0,#16
        0x00018d84:    d507        ..      BPL      0x18d96 ; _BusFault + 72
        0x00018d86:    a0a1        ..      ADR      r0,{pc}+0x286 ; 0x1900c
        0x00018d88:    f7fefff8    ....    BL       printk ; 0x17d7c
        0x00018d8c:    b11d        ..      CBZ      r5,0x18d96 ; _BusFault + 72
        0x00018d8e:    6820         h      LDR      r0,[r4,#0]
        0x00018d90:    f4204000     ..@    BIC      r0,r0,#0x8000
        0x00018d94:    6020         `      STR      r0,[r4,#0]
        0x00018d96:    6820         h      LDR      r0,[r4,#0]
        0x00018d98:    0540        @.      LSLS     r0,r0,#21
        0x00018d9a:    d511        ..      BPL      0x18dc0 ; _BusFault + 114
        0x00018d9c:    a0a1        ..      ADR      r0,{pc}+0x288 ; 0x19024
        0x00018d9e:    e00b        ..      B        0x18db8 ; _BusFault + 106
        0x00018da0:    6820         h      LDR      r0,[r4,#0]
        0x00018da2:    0540        @.      LSLS     r0,r0,#21
        0x00018da4:    d4fa        ..      BMI      0x18d9c ; _BusFault + 78
        0x00018da6:    6820         h      LDR      r0,[r4,#0]
        0x00018da8:    05c0        ..      LSLS     r0,r0,#23
        0x00018daa:    d501        ..      BPL      0x18db0 ; _BusFault + 98
        0x00018dac:    a0a4        ..      ADR      r0,{pc}+0x294 ; 0x19040
        0x00018dae:    e003        ..      B        0x18db8 ; _BusFault + 106
        0x00018db0:    6820         h      LDR      r0,[r4,#0]
        0x00018db2:    0480        ..      LSLS     r0,r0,#18
        0x00018db4:    d504        ..      BPL      0x18dc0 ; _BusFault + 114
        0x00018db6:    a07c        |.      ADR      r0,{pc}+0x1f2 ; 0x18fa8
        0x00018db8:    e8bd4070    ..p@    POP      {r4-r6,lr}
        0x00018dbc:    f7febfde    ....    B        printk ; 0x17d7c
        0x00018dc0:    bd70        p.      POP      {r4-r6,pc}
    _UsageFault
        0x00018dc2:    b570        p.      PUSH     {r4-r6,lr}
        0x00018dc4:    2500        .%      MOVS     r5,#0
        0x00018dc6:    a0a5        ..      ADR      r0,{pc}+0x296 ; 0x1905c
        0x00018dc8:    f7feffd8    ....    BL       printk ; 0x17d7c
        0x00018dcc:    4c56        VL      LDR      r4,[pc,#344] ; [0x18f28] = 0xe000ed28
        0x00018dce:    6820         h      LDR      r0,[r4,#0]
        0x00018dd0:    0180        ..      LSLS     r0,r0,#6
        0x00018dd2:    d502        ..      BPL      0x18dda ; _UsageFault + 24
        0x00018dd4:    a0a8        ..      ADR      r0,{pc}+0x2a4 ; 0x19078
        0x00018dd6:    f7feffd1    ....    BL       printk ; 0x17d7c
        0x00018dda:    6820         h      LDR      r0,[r4,#0]
        0x00018ddc:    01c0        ..      LSLS     r0,r0,#7
        0x00018dde:    d502        ..      BPL      0x18de6 ; _UsageFault + 36
        0x00018de0:    a0aa        ..      ADR      r0,{pc}+0x2ac ; 0x1908c
        0x00018de2:    f7feffcb    ....    BL       printk ; 0x17d7c
        0x00018de6:    6820         h      LDR      r0,[r4,#0]
        0x00018de8:    0300        ..      LSLS     r0,r0,#12
        0x00018dea:    d502        ..      BPL      0x18df2 ; _UsageFault + 48
        0x00018dec:    a0ae        ..      ADR      r0,{pc}+0x2bc ; 0x190a8
        0x00018dee:    f7feffc5    ....    BL       printk ; 0x17d7c
        0x00018df2:    6820         h      LDR      r0,[r4,#0]
        0x00018df4:    0340        @.      LSLS     r0,r0,#13
        0x00018df6:    d502        ..      BPL      0x18dfe ; _UsageFault + 60
        0x00018df8:    a0b3        ..      ADR      r0,{pc}+0x2d0 ; 0x190c8
        0x00018dfa:    f7feffbf    ....    BL       printk ; 0x17d7c
        0x00018dfe:    6820         h      LDR      r0,[r4,#0]
        0x00018e00:    0380        ..      LSLS     r0,r0,#14
        0x00018e02:    d502        ..      BPL      0x18e0a ; _UsageFault + 72
        0x00018e04:    a0ba        ..      ADR      r0,{pc}+0x2ec ; 0x190f0
        0x00018e06:    f7feffb9    ....    BL       printk ; 0x17d7c
        0x00018e0a:    6820         h      LDR      r0,[r4,#0]
        0x00018e0c:    03c0        ..      LSLS     r0,r0,#15
        0x00018e0e:    d502        ..      BPL      0x18e16 ; _UsageFault + 84
        0x00018e10:    a0be        ..      ADR      r0,{pc}+0x2fc ; 0x1910c
        0x00018e12:    f7feffb3    ....    BL       printk ; 0x17d7c
        0x00018e16:    6820         h      LDR      r0,[r4,#0]
        0x00018e18:    49c7        .I      LDR      r1,[pc,#796] ; [0x19138] = 0xffff0000
        0x00018e1a:    4308        .C      ORRS     r0,r0,r1
        0x00018e1c:    6020         `      STR      r0,[r4,#0]
        0x00018e1e:    4628        (F      MOV      r0,r5
        0x00018e20:    bd70        p.      POP      {r4-r6,pc}
    _Fault
        0x00018e22:    b510        ..      PUSH     {r4,lr}
        0x00018e24:    4604        .F      MOV      r4,r0
        0x00018e26:    4840        @H      LDR      r0,[pc,#256] ; [0x18f28] = 0xe000ed28
        0x00018e28:    3824        $8      SUBS     r0,r0,#0x24
        0x00018e2a:    6800        .h      LDR      r0,[r0,#0]
        0x00018e2c:    f3c00108    ....    UBFX     r1,r0,#0,#9
        0x00018e30:    4620         F      MOV      r0,r4
        0x00018e32:    f000f80f    ....    BL       _FaultHandle ; 0x18e54
        0x00018e36:    2806        .(      CMP      r0,#6
        0x00018e38:    d004        ..      BEQ      0x18e44 ; _Fault + 34
        0x00018e3a:    4621        !F      MOV      r1,r4
        0x00018e3c:    e8bd4010    ...@    POP      {r4,lr}
        0x00018e40:    f000b9ea    ....    B.W      _NanoFatalErrorHandler ; 0x19218
        0x00018e44:    bd10        ..      POP      {r4,pc}
    _FaultInit
        0x00018e46:    4838        8H      LDR      r0,[pc,#224] ; [0x18f28] = 0xe000ed28
        0x00018e48:    3814        .8      SUBS     r0,r0,#0x14
        0x00018e4a:    6801        .h      LDR      r1,[r0,#0]
        0x00018e4c:    f0410110    A...    ORR      r1,r1,#0x10
        0x00018e50:    6001        .`      STR      r1,[r0,#0]
        0x00018e52:    4770        pG      BX       lr
    _FaultHandle
        0x00018e54:    b510        ..      PUSH     {r4,lr}
        0x00018e56:    2400        .$      MOVS     r4,#0
        0x00018e58:    2905        .)      CMP      r1,#5
        0x00018e5a:    d016        ..      BEQ      0x18e8a ; _FaultHandle + 54
        0x00018e5c:    dc04        ..      BGT      0x18e68 ; _FaultHandle + 20
        0x00018e5e:    2903        .)      CMP      r1,#3
        0x00018e60:    d00b        ..      BEQ      0x18e7a ; _FaultHandle + 38
        0x00018e62:    2904        .)      CMP      r1,#4
        0x00018e64:    d104        ..      BNE      0x18e70 ; _FaultHandle + 28
        0x00018e66:    e00b        ..      B        0x18e80 ; _FaultHandle + 44
        0x00018e68:    2906        .)      CMP      r1,#6
        0x00018e6a:    d012        ..      BEQ      0x18e92 ; _FaultHandle + 62
        0x00018e6c:    290c        .)      CMP      r1,#0xc
        0x00018e6e:    d013        ..      BEQ      0x18e98 ; _FaultHandle + 68
        0x00018e70:    460a        .F      MOV      r2,r1
        0x00018e72:    2910        .)      CMP      r1,#0x10
        0x00018e74:    da14        ..      BGE      0x18ea0 ; _FaultHandle + 76
        0x00018e76:    a1b1        ..      ADR      r1,{pc}+0x2c6 ; 0x1913c
        0x00018e78:    e013        ..      B        0x18ea2 ; _FaultHandle + 78
        0x00018e7a:    f000f818    ....    BL       _HardFault ; 0x18eae
        0x00018e7e:    e002        ..      B        0x18e86 ; _FaultHandle + 50
        0x00018e80:    2100        .!      MOVS     r1,#0
        0x00018e82:    f7ffff2f    ../.    BL       _MpuFault ; 0x18ce4
        0x00018e86:    4604        .F      MOV      r4,r0
        0x00018e88:    e00f        ..      B        0x18eaa ; _FaultHandle + 86
        0x00018e8a:    2100        .!      MOVS     r1,#0
        0x00018e8c:    f7ffff5f    .._.    BL       _BusFault ; 0x18d4e
        0x00018e90:    e00b        ..      B        0x18eaa ; _FaultHandle + 86
        0x00018e92:    f7ffff96    ....    BL       _UsageFault ; 0x18dc2
        0x00018e96:    e7f6        ..      B        0x18e86 ; _FaultHandle + 50
        0x00018e98:    a0ae        ..      ADR      r0,{pc}+0x2bc ; 0x19154
        0x00018e9a:    f7feff6f    ..o.    BL       printk ; 0x17d7c
        0x00018e9e:    e004        ..      B        0x18eaa ; _FaultHandle + 86
        0x00018ea0:    a1ba        ..      ADR      r1,{pc}+0x2ec ; 0x1918c
        0x00018ea2:    a0c1        ..      ADR      r0,{pc}+0x306 ; 0x191a8
        0x00018ea4:    3a10        .:      SUBS     r2,r2,#0x10
        0x00018ea6:    f7feff69    ..i.    BL       printk ; 0x17d7c
        0x00018eaa:    4620         F      MOV      r0,r4
        0x00018eac:    bd10        ..      POP      {r4,pc}
    _HardFault
        0x00018eae:    b570        p.      PUSH     {r4-r6,lr}
        0x00018eb0:    4605        .F      MOV      r5,r0
        0x00018eb2:    2400        .$      MOVS     r4,#0
        0x00018eb4:    a0c1        ..      ADR      r0,{pc}+0x308 ; 0x191bc
        0x00018eb6:    f7feff61    ..a.    BL       printk ; 0x17d7c
        0x00018eba:    481b        .H      LDR      r0,[pc,#108] ; [0x18f28] = 0xe000ed28
        0x00018ebc:    1d00        ..      ADDS     r0,r0,#4
        0x00018ebe:    6801        .h      LDR      r1,[r0,#0]
        0x00018ec0:    0789        ..      LSLS     r1,r1,#30
        0x00018ec2:    d503        ..      BPL      0x18ecc ; _HardFault + 30
        0x00018ec4:    a0c3        ..      ADR      r0,{pc}+0x310 ; 0x191d4
        0x00018ec6:    f7feff59    ..Y.    BL       printk ; 0x17d7c
        0x00018eca:    e01e        ..      B        0x18f0a ; _HardFault + 92
        0x00018ecc:    6800        .h      LDR      r0,[r0,#0]
        0x00018ece:    0040        @.      LSLS     r0,r0,#1
        0x00018ed0:    d51b        ..      BPL      0x18f0a ; _HardFault + 92
        0x00018ed2:    a0c9        ..      ADR      r0,{pc}+0x326 ; 0x191f8
        0x00018ed4:    f7feff52    ..R.    BL       printk ; 0x17d7c
        0x00018ed8:    4813        .H      LDR      r0,[pc,#76] ; [0x18f28] = 0xe000ed28
        0x00018eda:    7800        .x      LDRB     r0,[r0,#0]
        0x00018edc:    b120         .      CBZ      r0,0x18ee8 ; _HardFault + 58
        0x00018ede:    2101        .!      MOVS     r1,#1
        0x00018ee0:    4628        (F      MOV      r0,r5
        0x00018ee2:    f7fffeff    ....    BL       _MpuFault ; 0x18ce4
        0x00018ee6:    e00f        ..      B        0x18f08 ; _HardFault + 90
        0x00018ee8:    480f        .H      LDR      r0,[pc,#60] ; [0x18f28] = 0xe000ed28
        0x00018eea:    1c40        @.      ADDS     r0,r0,#1
        0x00018eec:    7800        .x      LDRB     r0,[r0,#0]
        0x00018eee:    b120         .      CBZ      r0,0x18efa ; _HardFault + 76
        0x00018ef0:    2101        .!      MOVS     r1,#1
        0x00018ef2:    4628        (F      MOV      r0,r5
        0x00018ef4:    f7ffff2b    ..+.    BL       _BusFault ; 0x18d4e
        0x00018ef8:    e007        ..      B        0x18f0a ; _HardFault + 92
        0x00018efa:    480b        .H      LDR      r0,[pc,#44] ; [0x18f28] = 0xe000ed28
        0x00018efc:    1c80        ..      ADDS     r0,r0,#2
        0x00018efe:    8800        ..      LDRH     r0,[r0,#0]
        0x00018f00:    b118        ..      CBZ      r0,0x18f0a ; _HardFault + 92
        0x00018f02:    4628        (F      MOV      r0,r5
        0x00018f04:    f7ffff5d    ..].    BL       _UsageFault ; 0x18dc2
        0x00018f08:    4604        .F      MOV      r4,r0
        0x00018f0a:    4620         F      MOV      r0,r4
        0x00018f0c:    bd70        p.      POP      {r4-r6,pc}
    $d
        0x00018f0e:    0000        ..      DCW    0
        0x00018f10:    2a2a2a2a    ****    DCD    707406378
        0x00018f14:    504d202a    * MP    DCD    1347231786
        0x00018f18:    41462055    U FA    DCD    1095114837
        0x00018f1c:    20544c55    ULT     DCD    542395477
        0x00018f20:    2a2a2a2a    ****    DCD    707406378
        0x00018f24:    00000a2a    *...    DCD    2602
        0x00018f28:    e000ed28    (...    DCD    3758157096
        0x00018f2c:    74532020      St    DCD    1951604768
        0x00018f30:    696b6361    acki    DCD    1768645473
        0x00018f34:    6520676e    ng e    DCD    1696622446
        0x00018f38:    726f7272    rror    DCD    1919906418
        0x00018f3c:    0000000a    ....    DCD    10
        0x00018f40:    6e552020      Un    DCD    1851072544
        0x00018f44:    63617473    stac    DCD    1667331187
        0x00018f48:    676e696b    king    DCD    1735289195
        0x00018f4c:    72726520     err    DCD    1920099616
        0x00018f50:    000a726f    or..    DCD    684655
        0x00018f54:    61442020      Da    DCD    1631854624
        0x00018f58:    41206174    ta A    DCD    1092641140
        0x00018f5c:    73656363    cces    DCD    1936024419
        0x00018f60:    69562073    s Vi    DCD    1767252083
        0x00018f64:    74616c6f    olat    DCD    1952541807
        0x00018f68:    0a6e6f69    ion.    DCD    175009641
        0x00018f6c:    00000000    ....    DCD    0
        0x00018f70:    4d4d2020      MM    DCD    1296900128
        0x00018f74:    20524146    FAR     DCD    542261574
        0x00018f78:    72646441    Addr    DCD    1919181889
        0x00018f7c:    3a737365    ess:    DCD    980644709
        0x00018f80:    25783020     0x%    DCD    628633632
        0x00018f84:    00000a78    x...    DCD    2680
        0x00018f88:    6e492020      In    DCD    1850286112
        0x00018f8c:    75727473    stru    DCD    1970435187
        0x00018f90:    6f697463    ctio    DCD    1869182051
        0x00018f94:    6341206e    n Ac    DCD    1665212526
        0x00018f98:    73736563    cess    DCD    1936942435
        0x00018f9c:    6f695620     Vio    DCD    1869174304
        0x00018fa0:    6974616c    lati    DCD    1769234796
        0x00018fa4:    000a6e6f    on..    DCD    683631
        0x00018fa8:    6c462020      Fl    DCD    1816535072
        0x00018fac:    6974616f    oati    DCD    1769234799
        0x00018fb0:    702d676e    ng-p    DCD    1882023790
        0x00018fb4:    746e696f    oint    DCD    1953393007
        0x00018fb8:    7a616c20     laz    DCD    2053205024
        0x00018fbc:    74732079    y st    DCD    1953702009
        0x00018fc0:    20657461    ate     DCD    543519841
        0x00018fc4:    73657270    pres    DCD    1936028272
        0x00018fc8:    61767265    erva    DCD    1635152485
        0x00018fcc:    6e6f6974    tion    DCD    1852795252
        0x00018fd0:    72726520     err    DCD    1920099616
        0x00018fd4:    000a726f    or..    DCD    684655
        0x00018fd8:    2a2a2a2a    ****    DCD    707406378
        0x00018fdc:    5542202a    * BU    DCD    1430396970
        0x00018fe0:    41462053    S FA    DCD    1095114835
        0x00018fe4:    20544c55    ULT     DCD    542395477
        0x00018fe8:    2a2a2a2a    ****    DCD    707406378
        0x00018fec:    00000a2a    *...    DCD    2602
        0x00018ff0:    72502020      Pr    DCD    1917853728
        0x00018ff4:    73696365    ecis    DCD    1936286565
        0x00018ff8:    61642065    e da    DCD    1633951845
        0x00018ffc:    62206174    ta b    DCD    1646289268
        0x00019000:    65207375    us e    DCD    1696625525
        0x00019004:    726f7272    rror    DCD    1919906418
        0x00019008:    0000000a    ....    DCD    10
        0x0001900c:    46422020      BF    DCD    1178738720
        0x00019010:    41205241    AR A    DCD    1092637249
        0x00019014:    65726464    ddre    DCD    1701995620
        0x00019018:    203a7373    ss:     DCD    540701555
        0x0001901c:    78257830    0x%x    DCD    2015721520
        0x00019020:    0000000a    ....    DCD    10
        0x00019024:    6d492020      Im    DCD    1833508896
        0x00019028:    63657270    prec    DCD    1667592816
        0x0001902c:    20657369    ise     DCD    543519593
        0x00019030:    61746164    data    DCD    1635017060
        0x00019034:    73756220     bus    DCD    1937072672
        0x00019038:    72726520     err    DCD    1920099616
        0x0001903c:    000a726f    or..    DCD    684655
        0x00019040:    6e492020      In    DCD    1850286112
        0x00019044:    75727473    stru    DCD    1970435187
        0x00019048:    6f697463    ctio    DCD    1869182051
        0x0001904c:    7562206e    n bu    DCD    1969365102
        0x00019050:    72652073    s er    DCD    1919230067
        0x00019054:    0a726f72    ror.    DCD    175271794
        0x00019058:    00000000    ....    DCD    0
        0x0001905c:    2a2a2a2a    ****    DCD    707406378
        0x00019060:    5355202a    * US    DCD    1398087722
        0x00019064:    20454741    AGE     DCD    541411137
        0x00019068:    4c554146    FAUL    DCD    1280655686
        0x0001906c:    2a2a2054    T **    DCD    707403860
        0x00019070:    0a2a2a2a    ***.    DCD    170535466
        0x00019074:    00000000    ....    DCD    0
        0x00019078:    69442020      Di    DCD    1766072352
        0x0001907c:    69736976    visi    DCD    1769171318
        0x00019080:    62206e6f    on b    DCD    1646292591
        0x00019084:    657a2079    y ze    DCD    1702502521
        0x00019088:    000a6f72    ro..    DCD    683890
        0x0001908c:    6e552020      Un    DCD    1851072544
        0x00019090:    67696c61    alig    DCD    1734962273
        0x00019094:    2064656e    ned     DCD    543450478
        0x00019098:    6f6d656d    memo    DCD    1869440365
        0x0001909c:    61207972    ry a    DCD    1629518194
        0x000190a0:    73656363    cces    DCD    1936024419
        0x000190a4:    00000a73    s...    DCD    2675
        0x000190a8:    6f4e2020      No    DCD    1867391008
        0x000190ac:    706f6320     cop    DCD    1886348064
        0x000190b0:    65636f72    roce    DCD    1701015410
        0x000190b4:    726f7373    ssor    DCD    1919906675
        0x000190b8:    736e6920     ins    DCD    1936615712
        0x000190bc:    63757274    truc    DCD    1668641396
        0x000190c0:    6e6f6974    tion    DCD    1852795252
        0x000190c4:    00000a73    s...    DCD    2675
        0x000190c8:    6c492020      Il    DCD    1816731680
        0x000190cc:    6167656c    lega    DCD    1634166124
        0x000190d0:    6f6c206c    l lo    DCD    1869357164
        0x000190d4:    6f206461    ad o    DCD    1864393825
        0x000190d8:    58452066    f EX    DCD    1480925286
        0x000190dc:    45525f43    C_RE    DCD    1163026243
        0x000190e0:    4e525554    TURN    DCD    1314018644
        0x000190e4:    746e6920     int    DCD    1953392928
        0x000190e8:    4350206f    o PC    DCD    1129324655
        0x000190ec:    0000000a    ....    DCD    10
        0x000190f0:    6c492020      Il    DCD    1816731680
        0x000190f4:    6167656c    lega    DCD    1634166124
        0x000190f8:    7375206c    l us    DCD    1937055852
        0x000190fc:    666f2065    e of    DCD    1718558821
        0x00019100:    65687420     the    DCD    1701344288
        0x00019104:    53504520     EPS    DCD    1397769504
        0x00019108:    00000a52    R...    DCD    2642
        0x0001910c:    74412020      At    DCD    1950425120
        0x00019110:    706d6574    temp    DCD    1886217588
        0x00019114:    6f742074    t to    DCD    1869881460
        0x00019118:    65786520     exe    DCD    1702389024
        0x0001911c:    65747563    cute    DCD    1702131043
        0x00019120:    646e7520     und    DCD    1684960544
        0x00019124:    6e696665    efin    DCD    1852401253
        0x00019128:    69206465    ed i    DCD    1763730533
        0x0001912c:    7274736e    nstr    DCD    1920234350
        0x00019130:    69746375    ucti    DCD    1769235317
        0x00019134:    000a6e6f    on..    DCD    683631
        0x00019138:    ffff0000    ....    DCD    4294901760
        0x0001913c:    65736552    Rese    DCD    1702061394
        0x00019140:    64657672    rved    DCD    1684371058
        0x00019144:    63784520     Exc    DCD    1668826400
        0x00019148:    69747065    epti    DCD    1769238629
        0x0001914c:    28206e6f    on (    DCD    673214063
        0x00019150:    00000000    ....    DCD    0
        0x00019154:    2a2a2a2a    ****    DCD    707406378
        0x00019158:    6544202a    * De    DCD    1698963498
        0x0001915c:    20677562    bug     DCD    543651170
        0x00019160:    696e6f6d    moni    DCD    1768845165
        0x00019164:    20726f74    tor     DCD    544370548
        0x00019168:    65637865    exce    DCD    1701017701
        0x0001916c:    6f697470    ptio    DCD    1869182064
        0x00019170:    6e28206e    n (n    DCD    1848123502
        0x00019174:    6920746f    ot i    DCD    1763734639
        0x00019178:    656c706d    mple    DCD    1701605485
        0x0001917c:    746e656d    ment    DCD    1953391981
        0x00019180:    20296465    ed)     DCD    539583589
        0x00019184:    2a2a2a2a    ****    DCD    707406378
        0x00019188:    00000a2a    *...    DCD    2602
        0x0001918c:    72757053    Spur    DCD    1920299091
        0x00019190:    73756f69    ious    DCD    1937076073
        0x00019194:    746e6920     int    DCD    1953392928
        0x00019198:    75727265    erru    DCD    1970434661
        0x0001919c:    28207470    pt (    DCD    673215600
        0x000191a0:    20515249    IRQ     DCD    542200393
        0x000191a4:    00000000    ....    DCD    0
        0x000191a8:    2a2a2a2a    ****    DCD    707406378
        0x000191ac:    7325202a    * %s    DCD    1931812906
        0x000191b0:    29642520     %d)    DCD    694428960
        0x000191b4:    2a2a2a20     ***    DCD    707406368
        0x000191b8:    000a2a2a    **..    DCD    666154
        0x000191bc:    2a2a2a2a    ****    DCD    707406378
        0x000191c0:    4148202a    * HA    DCD    1095245866
        0x000191c4:    46204452    RD F    DCD    1176519762
        0x000191c8:    544c5541    AULT    DCD    1414288705
        0x000191cc:    2a2a2a20     ***    DCD    707406368
        0x000191d0:    000a2a2a    **..    DCD    666154
        0x000191d4:    75422020      Bu    DCD    1967267872
        0x000191d8:    61662073    s fa    DCD    1634082931
        0x000191dc:    20746c75    ult     DCD    544500853
        0x000191e0:    76206e6f    on v    DCD    1981836911
        0x000191e4:    6f746365    ecto    DCD    1869898597
        0x000191e8:    61742072    r ta    DCD    1635000434
        0x000191ec:    20656c62    ble     DCD    543517794
        0x000191f0:    64616572    read    DCD    1684104562
        0x000191f4:    0000000a    ....    DCD    10
        0x000191f8:    61462020      Fa    DCD    1631985696
        0x000191fc:    20746c75    ult     DCD    544500853
        0x00019200:    61637365    esca    DCD    1633907557
        0x00019204:    6974616c    lati    DCD    1769234796
        0x00019208:    28206e6f    on (    DCD    673214063
        0x0001920c:    20656573    see     DCD    543516019
        0x00019210:    6f6c6562    belo    DCD    1869374818
        0x00019214:    000a2977    w)..    DCD    665975
    $t
    .text
    _NanoFatalErrorHandler
        0x00019218:    b570        p.      PUSH     {r4-r6,lr}
        0x0001921a:    460d        .F      MOV      r5,r1
        0x0001921c:    4604        .F      MOV      r4,r0
        0x0001921e:    2803        .(      CMP      r0,#3
        0x00019220:    d015        ..      BEQ      0x1924e ; _NanoFatalErrorHandler + 54
        0x00019222:    2c04        .,      CMP      r4,#4
        0x00019224:    d015        ..      BEQ      0x19252 ; _NanoFatalErrorHandler + 58
        0x00019226:    2c05        .,      CMP      r4,#5
        0x00019228:    d017        ..      BEQ      0x1925a ; _NanoFatalErrorHandler + 66
        0x0001922a:    4601        .F      MOV      r1,r0
        0x0001922c:    a013        ..      ADR      r0,{pc}+0x50 ; 0x1927c
        0x0001922e:    f7fefda5    ....    BL       printk ; 0x17d7c
        0x00019232:    bf00        ..      NOP      
        0x00019234:    f7fdf901    ....    BL       _impl_k_current_get ; 0x1643a
        0x00019238:    4601        .F      MOV      r1,r0
        0x0001923a:    a019        ..      ADR      r0,{pc}+0x66 ; 0x192a0
        0x0001923c:    69aa        .i      LDR      r2,[r5,#0x18]
        0x0001923e:    f7fefd9d    ....    BL       printk ; 0x17d7c
        0x00019242:    4629        )F      MOV      r1,r5
        0x00019244:    4620         F      MOV      r0,r4
        0x00019246:    e8bd4070    ..p@    POP      {r4-r6,lr}
        0x0001924a:    f000b8cb    ....    B.W      _SysFatalErrorHandler ; 0x193e4
        0x0001924e:    a023        #.      ADR      r0,{pc}+0x8e ; 0x192dc
        0x00019250:    e000        ..      B        0x19254 ; _NanoFatalErrorHandler + 60
        0x00019252:    a02c        ,.      ADR      r0,{pc}+0xb2 ; 0x19304
        0x00019254:    f7fefd92    ....    BL       printk ; 0x17d7c
        0x00019258:    e7ec        ..      B        0x19234 ; _NanoFatalErrorHandler + 28
        0x0001925a:    a031        1.      ADR      r0,{pc}+0xc6 ; 0x19320
        0x0001925c:    e7fa        ..      B        0x19254 ; _NanoFatalErrorHandler + 60
    _do_kernel_oops
        0x0001925e:    6802        .h      LDR      r2,[r0,#0]
        0x00019260:    4601        .F      MOV      r1,r0
        0x00019262:    4610        .F      MOV      r0,r2
        0x00019264:    e7d8        ..      B        _NanoFatalErrorHandler ; 0x19218
    _arch_syscall_oops
        0x00019266:    b09a        ..      SUB      sp,sp,#0x68
        0x00019268:    4604        .F      MOV      r4,r0
        0x0001926a:    2168        h!      MOVS     r1,#0x68
        0x0001926c:    4668        hF      MOV      r0,sp
        0x0001926e:    f000f955    ..U.    BL       __aeabi_memclr ; 0x1951c
        0x00019272:    68e0        .h      LDR      r0,[r4,#0xc]
        0x00019274:    9006        ..      STR      r0,[sp,#0x18]
        0x00019276:    4668        hF      MOV      r0,sp
        0x00019278:    f7fffff1    ....    BL       _do_kernel_oops ; 0x1925e
    $d
        0x0001927c:    2a2a2a2a    ****    DCD    707406378
        0x00019280:    6b6e5520     Unk    DCD    1802392864
        0x00019284:    6e776f6e    nown    DCD    1853321070
        0x00019288:    74614620     Fat    DCD    1952532000
        0x0001928c:    45206c61    al E    DCD    1159752801
        0x00019290:    726f7272    rror    DCD    1919906418
        0x00019294:    21642520     %d!    DCD    560211232
        0x00019298:    2a2a2a20     ***    DCD    707406368
        0x0001929c:    00000a2a    *...    DCD    2602
        0x000192a0:    72727543    Curr    DCD    1920103747
        0x000192a4:    20746e65    ent     DCD    544501349
        0x000192a8:    65726874    thre    DCD    1701996660
        0x000192ac:    49206461    ad I    DCD    1226859617
        0x000192b0:    203d2044    D =     DCD    540876868
        0x000192b4:    460a7025    %p.F    DCD    1175089189
        0x000192b8:    746c7561    ault    DCD    1953264993
        0x000192bc:    20676e69    ing     DCD    543649385
        0x000192c0:    74736e69    inst    DCD    1953721961
        0x000192c4:    74637572    ruct    DCD    1952675186
        0x000192c8:    206e6f69    ion     DCD    544108393
        0x000192cc:    72646461    addr    DCD    1919181921
        0x000192d0:    20737365    ess     DCD    544437093
        0x000192d4:    7830203d    = 0x    DCD    2016419901
        0x000192d8:    000a7825    %x..    DCD    686117
        0x000192dc:    2a2a2a2a    ****    DCD    707406378
        0x000192e0:    72654b20     Ker    DCD    1919240992
        0x000192e4:    206c656e    nel     DCD    543974766
        0x000192e8:    6f6c6c41    Allo    DCD    1869376577
        0x000192ec:    69746163    cati    DCD    1769234787
        0x000192f0:    46206e6f    on F    DCD    1176530543
        0x000192f4:    756c6961    ailu    DCD    1970039137
        0x000192f8:    20216572    re!     DCD    539059570
        0x000192fc:    2a2a2a2a    ****    DCD    707406378
        0x00019300:    0000000a    ....    DCD    10
        0x00019304:    2a2a2a2a    ****    DCD    707406378
        0x00019308:    654b202a    * Ke    DCD    1699422250
        0x0001930c:    6c656e72    rnel    DCD    1818586738
        0x00019310:    504f4f20     OOP    DCD    1347374880
        0x00019314:    2a202153    S! *    DCD    706748755
        0x00019318:    2a2a2a2a    ****    DCD    707406378
        0x0001931c:    0000000a    ....    DCD    10
        0x00019320:    2a2a2a2a    ****    DCD    707406378
        0x00019324:    654b202a    * Ke    DCD    1699422250
        0x00019328:    6c656e72    rnel    DCD    1818586738
        0x0001932c:    6e615020     Pan    DCD    1851871264
        0x00019330:    20216369    ic!     DCD    539059049
        0x00019334:    2a2a2a2a    ****    DCD    707406378
        0x00019338:    00000a2a    *...    DCD    2602
    $t
    .text
    $v0
    _CpuIdleInit
        0x0001933c:    4908        .I      LDR      r1,[pc,#32] ; [0x19360] = 0xe000ed10
        0x0001933e:    2210        ."      MOVS     r2,#0x10
        0x00019340:    600a        .`      STR      r2,[r1,#0]
        0x00019342:    4770        pG      BX       lr
    k_cpu_idle
        0x00019344:    4040        @@      EORS     r0,r0,r0
        0x00019346:    f3808811    ....    MSR      BASEPRI,r0
        0x0001934a:    bf30        0.      WFI      
        0x0001934c:    4770        pG      BX       lr
    k_cpu_atomic_idle
        0x0001934e:    b672        r.      CPSID    i
        0x00019350:    4049        I@      EORS     r1,r1,r1
        0x00019352:    f3818811    ....    MSR      BASEPRI,r1
        0x00019356:    bf20         .      WFE      
        0x00019358:    f3808811    ....    MSR      BASEPRI,r0
        0x0001935c:    b662        b.      CPSIE    i
        0x0001935e:    4770        pG      BX       lr
    $d
        0x00019360:    e000ed10    ....    DCD    3758157072
        0x00019364:    00000000    ....    DCD    0
        0x00019368:    00000000    ....    DCD    0
        0x0001936c:    00000000    ....    DCD    0
    $t
    .text
    $v0
    _SysNmiOnReset
        0x00019370:    bf30        0.      WFI      
        0x00019372:    e7fd        ..      B        _SysNmiOnReset ; 0x19370
    .text
    sys_rand32_get
        0x00019374:    b510        ..      PUSH     {r4,lr}
        0x00019376:    f7f7f99f    ....    BL       _timer_cycle_get_32 ; 0x106b8
        0x0001937a:    4604        .F      MOV      r4,r0
        0x0001937c:    4902        .I      LDR      r1,[pc,#8] ; [0x19388] = 0x3b9aca0d
        0x0001937e:    4803        .H      LDR      r0,[pc,#12] ; [0x1938c] = 0xc001a258
        0x00019380:    f7fdfc8e    ....    BL       atomic_add ; 0x16ca0
        0x00019384:    4420         D      ADD      r0,r0,r4
        0x00019386:    bd10        ..      POP      {r4,pc}
    $d
        0x00019388:    3b9aca0d    ...;    DCD    1000000013
        0x0001938c:    c001a258    X...    DCD    3221332568
    $t
    .text
    _impl_k_thread_abort
        0x00019390:    b570        p.      PUSH     {r4-r6,lr}
        0x00019392:    4605        .F      MOV      r5,r0
        0x00019394:    2020                MOVS     r0,#0x20
        0x00019396:    f3ef8411    ....    MRS      r4,BASEPRI
        0x0001939a:    f3808811    ....    MSR      BASEPRI,r0
        0x0001939e:    f3bf8f4f    ..O.    DSB      
        0x000193a2:    f3bf8f6f    ..o.    ISB      
        0x000193a6:    4628        (F      MOV      r0,r5
        0x000193a8:    f7fef8dd    ....    BL       _k_thread_single_abort ; 0x17566
        0x000193ac:    480b        .H      LDR      r0,[pc,#44] ; [0x193dc] = 0xc001d458
        0x000193ae:    6880        .h      LDR      r0,[r0,#8]
        0x000193b0:    42a8        .B      CMP      r0,r5
        0x000193b2:    d107        ..      BNE      0x193c4 ; _impl_k_thread_abort + 52
        0x000193b4:    480a        .H      LDR      r0,[pc,#40] ; [0x193e0] = 0xe000ed04
        0x000193b6:    6801        .h      LDR      r1,[r0,#0]
        0x000193b8:    05c9        ..      LSLS     r1,r1,#23
        0x000193ba:    d008        ..      BEQ      0x193ce ; _impl_k_thread_abort + 62
        0x000193bc:    6801        .h      LDR      r1,[r0,#0]
        0x000193be:    f0415180    A..Q    ORR      r1,r1,#0x10000000
        0x000193c2:    6001        .`      STR      r1,[r0,#0]
        0x000193c4:    4620         F      MOV      r0,r4
        0x000193c6:    e8bd4070    ..p@    POP      {r4-r6,lr}
        0x000193ca:    f7fcbcb8    ....    B        _reschedule ; 0x15d3e
        0x000193ce:    f7fcfb4f    ..O.    BL       _update_time_slice_before_swap ; 0x15a70
        0x000193d2:    4620         F      MOV      r0,r4
        0x000193d4:    f7fffb7a    ..z.    BL       __swap ; 0x18acc
        0x000193d8:    e7f4        ..      B        0x193c4 ; _impl_k_thread_abort + 52
    $d
        0x000193da:    0000        ..      DCW    0
        0x000193dc:    c001d458    X...    DCD    3221345368
        0x000193e0:    e000ed04    ....    DCD    3758157060
    $t
    .text
    _SysFatalErrorHandler
        0x000193e4:    b510        ..      PUSH     {r4,lr}
        0x000193e6:    2805        .(      CMP      r0,#5
        0x000193e8:    d00e        ..      BEQ      0x19408 ; _SysFatalErrorHandler + 36
        0x000193ea:    f7fdffd4    ....    BL       k_is_in_isr ; 0x17396
        0x000193ee:    b910        ..      CBNZ     r0,0x193f6 ; _SysFatalErrorHandler + 18
        0x000193f0:    f7fdffec    ....    BL       _is_thread_essential ; 0x173cc
        0x000193f4:    b158        X.      CBZ      r0,0x1940e ; _SysFatalErrorHandler + 42
        0x000193f6:    f7fdffce    ....    BL       k_is_in_isr ; 0x17396
        0x000193fa:    b108        ..      CBZ      r0,0x19400 ; _SysFatalErrorHandler + 28
        0x000193fc:    a109        ..      ADR      r1,{pc}+0x28 ; 0x19424
        0x000193fe:    e000        ..      B        0x19402 ; _SysFatalErrorHandler + 30
        0x00019400:    a109        ..      ADR      r1,{pc}+0x28 ; 0x19428
        0x00019402:    a00e        ..      ADR      r0,{pc}+0x3a ; 0x1943c
        0x00019404:    f7fefcba    ....    BL       printk ; 0x17d7c
        0x00019408:    f7ffff9c    ....    BL       k_cpu_idle ; 0x19344
        0x0001940c:    e7fc        ..      B        0x19408 ; _SysFatalErrorHandler + 36
        0x0001940e:    4c13        .L      LDR      r4,[pc,#76] ; [0x1945c] = 0xc001d458
        0x00019410:    a013        ..      ADR      r0,{pc}+0x50 ; 0x19460
        0x00019412:    68a1        .h      LDR      r1,[r4,#8]
        0x00019414:    f7fefcb2    ....    BL       printk ; 0x17d7c
        0x00019418:    68a0        .h      LDR      r0,[r4,#8]
        0x0001941a:    e8bd4010    ...@    POP      {r4,lr}
        0x0001941e:    f7ffbfb7    ....    B.W      _impl_k_thread_abort ; 0x19390
    $d
        0x00019422:    0000        ..      DCW    0
        0x00019424:    00525349    ISR.    DCD    5395273
        0x00019428:    65737365    esse    DCD    1702064997
        0x0001942c:    6169746e    ntia    DCD    1634301038
        0x00019430:    6874206c    l th    DCD    1752440940
        0x00019434:    64616572    read    DCD    1684104562
        0x00019438:    00000000    ....    DCD    0
        0x0001943c:    61746146    Fata    DCD    1635017030
        0x00019440:    6166206c    l fa    DCD    1634082924
        0x00019444:    20746c75    ult     DCD    544500853
        0x00019448:    25206e69    in %    DCD    622882409
        0x0001944c:    53202173    s! S    DCD    1394614643
        0x00019450:    6e6e6970    pinn    DCD    1852729712
        0x00019454:    2e676e69    ing.    DCD    778530409
        0x00019458:    000a2e2e    ....    DCD    667182
        0x0001945c:    c001d458    X...    DCD    3221345368
        0x00019460:    61746146    Fata    DCD    1635017030
        0x00019464:    6166206c    l fa    DCD    1634082924
        0x00019468:    20746c75    ult     DCD    544500853
        0x0001946c:    74206e69    in t    DCD    1948282473
        0x00019470:    61657268    hrea    DCD    1634038376
        0x00019474:    70252064    d %p    DCD    1881481316
        0x00019478:    62412021    ! Ab    DCD    1648435233
        0x0001947c:    6974726f    orti    DCD    1769239151
        0x00019480:    0a2e676e    ng..    DCD    170813294
        0x00019484:    00000000    ....    DCD    0
    $t
    .text
    __aeabi_uldivmod
        0x00019488:    e92d5ff0    -.._    PUSH     {r4-r12,lr}
        0x0001948c:    4605        .F      MOV      r5,r0
        0x0001948e:    2000        .       MOVS     r0,#0
        0x00019490:    4692        .F      MOV      r10,r2
        0x00019492:    469b        .F      MOV      r11,r3
        0x00019494:    4688        .F      MOV      r8,r1
        0x00019496:    4606        .F      MOV      r6,r0
        0x00019498:    4681        .F      MOV      r9,r0
        0x0001949a:    2440        @$      MOVS     r4,#0x40
        0x0001949c:    e01b        ..      B        0x194d6 ; __aeabi_uldivmod + 78
        0x0001949e:    4628        (F      MOV      r0,r5
        0x000194a0:    4641        AF      MOV      r1,r8
        0x000194a2:    4647        GF      MOV      r7,r8
        0x000194a4:    4622        "F      MOV      r2,r4
        0x000194a6:    f000f868    ..h.    BL       __aeabi_llsr ; 0x1957a
        0x000194aa:    4653        SF      MOV      r3,r10
        0x000194ac:    465a        ZF      MOV      r2,r11
        0x000194ae:    1ac0        ..      SUBS     r0,r0,r3
        0x000194b0:    4191        .A      SBCS     r1,r1,r2
        0x000194b2:    d310        ..      BCC      0x194d6 ; __aeabi_uldivmod + 78
        0x000194b4:    4611        .F      MOV      r1,r2
        0x000194b6:    4618        .F      MOV      r0,r3
        0x000194b8:    4622        "F      MOV      r2,r4
        0x000194ba:    f000f84f    ..O.    BL       __aeabi_llsl ; 0x1955c
        0x000194be:    1a2d        -.      SUBS     r5,r5,r0
        0x000194c0:    eb670801    g...    SBC      r8,r7,r1
        0x000194c4:    464f        OF      MOV      r7,r9
        0x000194c6:    4622        "F      MOV      r2,r4
        0x000194c8:    2001        .       MOVS     r0,#1
        0x000194ca:    2100        .!      MOVS     r1,#0
        0x000194cc:    f000f846    ..F.    BL       __aeabi_llsl ; 0x1955c
        0x000194d0:    eb170900    ....    ADDS     r9,r7,r0
        0x000194d4:    414e        NA      ADCS     r6,r6,r1
        0x000194d6:    1e20         .      SUBS     r0,r4,#0
        0x000194d8:    f1a40401    ....    SUB      r4,r4,#1
        0x000194dc:    dcdf        ..      BGT      0x1949e ; __aeabi_uldivmod + 22
        0x000194de:    4648        HF      MOV      r0,r9
        0x000194e0:    4631        1F      MOV      r1,r6
        0x000194e2:    462a        *F      MOV      r2,r5
        0x000194e4:    4643        CF      MOV      r3,r8
        0x000194e6:    e8bd9ff0    ....    POP      {r4-r12,pc}
    .text
    __aeabi_memcpy
    __aeabi_memcpy4
    __aeabi_memcpy8
        0x000194ea:    ea400301    @...    ORR      r3,r0,r1
        0x000194ee:    079b        ..      LSLS     r3,r3,#30
        0x000194f0:    d003        ..      BEQ      0x194fa ; __aeabi_memcpy + 16
        0x000194f2:    e009        ..      B        0x19508 ; __aeabi_memcpy + 30
        0x000194f4:    c908        ..      LDM      r1!,{r3}
        0x000194f6:    1f12        ..      SUBS     r2,r2,#4
        0x000194f8:    c008        ..      STM      r0!,{r3}
        0x000194fa:    2a04        .*      CMP      r2,#4
        0x000194fc:    d2fa        ..      BCS      0x194f4 ; __aeabi_memcpy + 10
        0x000194fe:    e003        ..      B        0x19508 ; __aeabi_memcpy + 30
        0x00019500:    f8113b01    ...;    LDRB     r3,[r1],#1
        0x00019504:    f8003b01    ...;    STRB     r3,[r0],#1
        0x00019508:    1e52        R.      SUBS     r2,r2,#1
        0x0001950a:    d2f9        ..      BCS      0x19500 ; __aeabi_memcpy + 22
        0x0001950c:    4770        pG      BX       lr
    .text
    __aeabi_memset
    __aeabi_memset4
    __aeabi_memset8
        0x0001950e:    b2d2        ..      UXTB     r2,r2
        0x00019510:    e001        ..      B        0x19516 ; __aeabi_memset + 8
        0x00019512:    f8002b01    ...+    STRB     r2,[r0],#1
        0x00019516:    1e49        I.      SUBS     r1,r1,#1
        0x00019518:    d2fb        ..      BCS      0x19512 ; __aeabi_memset + 4
        0x0001951a:    4770        pG      BX       lr
    __aeabi_memclr
    __aeabi_memclr4
    __aeabi_memclr8
        0x0001951c:    2200        ."      MOVS     r2,#0
        0x0001951e:    e7f6        ..      B        __aeabi_memset ; 0x1950e
    _memset$wrapper
        0x00019520:    b510        ..      PUSH     {r4,lr}
        0x00019522:    4613        .F      MOV      r3,r2
        0x00019524:    460a        .F      MOV      r2,r1
        0x00019526:    4604        .F      MOV      r4,r0
        0x00019528:    4619        .F      MOV      r1,r3
        0x0001952a:    f7fffff0    ....    BL       __aeabi_memset ; 0x1950e
        0x0001952e:    4620         F      MOV      r0,r4
        0x00019530:    bd10        ..      POP      {r4,pc}
    .text
    strlen
        0x00019532:    1c42        B.      ADDS     r2,r0,#1
        0x00019534:    f8101b01    ....    LDRB     r1,[r0],#1
        0x00019538:    2900        .)      CMP      r1,#0
        0x0001953a:    d1fb        ..      BNE      0x19534 ; strlen + 2
        0x0001953c:    1a80        ..      SUBS     r0,r0,r2
        0x0001953e:    4770        pG      BX       lr
    .text
    strcmp
        0x00019540:    b510        ..      PUSH     {r4,lr}
        0x00019542:    2200        ."      MOVS     r2,#0
        0x00019544:    e000        ..      B        0x19548 ; strcmp + 8
        0x00019546:    1c52        R.      ADDS     r2,r2,#1
        0x00019548:    5c83        .\      LDRB     r3,[r0,r2]
        0x0001954a:    5c8c        .\      LDRB     r4,[r1,r2]
        0x0001954c:    42a3        .B      CMP      r3,r4
        0x0001954e:    d101        ..      BNE      0x19554 ; strcmp + 20
        0x00019550:    2b00        .+      CMP      r3,#0
        0x00019552:    d1f8        ..      BNE      0x19546 ; strcmp + 6
        0x00019554:    b2d8        ..      UXTB     r0,r3
        0x00019556:    b2e1        ..      UXTB     r1,r4
        0x00019558:    1a40        @.      SUBS     r0,r0,r1
        0x0001955a:    bd10        ..      POP      {r4,pc}
    .text
    __aeabi_llsl
    _ll_shift_l
        0x0001955c:    2a20         *      CMP      r2,#0x20
        0x0001955e:    db04        ..      BLT      0x1956a ; __aeabi_llsl + 14
        0x00019560:    3a20         :      SUBS     r2,r2,#0x20
        0x00019562:    fa00f102    ....    LSL      r1,r0,r2
        0x00019566:    2000        .       MOVS     r0,#0
        0x00019568:    4770        pG      BX       lr
        0x0001956a:    4091        .@      LSLS     r1,r1,r2
        0x0001956c:    f1c20320    .. .    RSB      r3,r2,#0x20
        0x00019570:    fa20f303     ...    LSR      r3,r0,r3
        0x00019574:    4319        .C      ORRS     r1,r1,r3
        0x00019576:    4090        .@      LSLS     r0,r0,r2
        0x00019578:    4770        pG      BX       lr
    .text
    __aeabi_llsr
    _ll_ushift_r
        0x0001957a:    2a20         *      CMP      r2,#0x20
        0x0001957c:    db04        ..      BLT      0x19588 ; __aeabi_llsr + 14
        0x0001957e:    3a20         :      SUBS     r2,r2,#0x20
        0x00019580:    fa21f002    !...    LSR      r0,r1,r2
        0x00019584:    2100        .!      MOVS     r1,#0
        0x00019586:    4770        pG      BX       lr
        0x00019588:    fa21f302    !...    LSR      r3,r1,r2
        0x0001958c:    40d0        .@      LSRS     r0,r0,r2
        0x0001958e:    f1c20220    .. .    RSB      r2,r2,#0x20
        0x00019592:    4091        .@      LSLS     r1,r1,r2
        0x00019594:    4308        .C      ORRS     r0,r0,r1
        0x00019596:    4619        .F      MOV      r1,r3
        0x00019598:    4770        pG      BX       lr
        0x0001959a:    0000        ..      MOVS     r0,r0
    .text
    __scatterload
    __scatterload_rt2
        0x0001959c:    4c06        .L      LDR      r4,[pc,#24] ; [0x195b8] = 0x19c98
        0x0001959e:    4d07        .M      LDR      r5,[pc,#28] ; [0x195bc] = 0x19d38
        0x000195a0:    e006        ..      B        0x195b0 ; __scatterload + 20
        0x000195a2:    68e0        .h      LDR      r0,[r4,#0xc]
        0x000195a4:    f0400301    @...    ORR      r3,r0,#1
        0x000195a8:    e8940007    ....    LDM      r4,{r0-r2}
        0x000195ac:    4798        .G      BLX      r3
        0x000195ae:    3410        .4      ADDS     r4,r4,#0x10
        0x000195b0:    42ac        .B      CMP      r4,r5
        0x000195b2:    d3f6        ..      BCC      0x195a2 ; __scatterload + 6
        0x000195b4:    f7f6fde8    ....    BL       __main_after_scatterload ; 0x10188
    $d
        0x000195b8:    00019c98    ....    DCD    105624
        0x000195bc:    00019d38    8...    DCD    105784
    $t
    .text._HandlerModeExit
    $v0
    _ExcExit
    _IntExit
        0x000195c0:    4807        .H      LDR      r0,[pc,#28] ; [0x195e0] = 0xc001d458
        0x000195c2:    6881        .h      LDR      r1,[r0,#8]
        0x000195c4:    69c0        .i      LDR      r0,[r0,#0x1c]
        0x000195c6:    4288        .B      CMP      r0,r1
        0x000195c8:    d008        ..      BEQ      0x195dc ; _ExcExit + 28
        0x000195ca:    b500        ..      PUSH     {lr}
        0x000195cc:    f7fcfa50    ..P.    BL       _update_time_slice_before_swap ; 0x15a70
        0x000195d0:    f85deb04    ]...    POP      {lr}
        0x000195d4:    4903        .I      LDR      r1,[pc,#12] ; [0x195e4] = 0xe000ed04
        0x000195d6:    f04f5280    O..R    MOV      r2,#0x10000000
        0x000195da:    600a        .`      STR      r2,[r1,#0]
        0x000195dc:    4770        pG      BX       lr
    $d
        0x000195de:    0000        ..      DCW    0
        0x000195e0:    c001d458    X...    DCD    3221345368
        0x000195e4:    e000ed04    ....    DCD    3758157060
        0x000195e8:    00000000    ....    DCD    0
        0x000195ec:    00000000    ....    DCD    0
    $t
    .text.__fault
    $v0
    __bus_fault
    __debug_monitor
    __hard_fault
    __mpu_fault
    __reserved
    __usage_fault
        0x000195f0:    4040        @@      EORS     r0,r0,r0
        0x000195f2:    f3808811    ....    MSR      BASEPRI,r0
        0x000195f6:    f8dfc01c    ....    LDR      r12,[pc,#28] ; [0x19614] = 0xe000ed04
        0x000195fa:    f8dcc000    ....    LDR      r12,[r12,#0]
        0x000195fe:    f41c6c00    ...l    ANDS     r12,r12,#0x800
        0x00019602:    bf0c        ..      ITE      EQ
        0x00019604:    f3ef8008    ....    MRSEQ    r0,MSP
        0x00019608:    f3ef8009    ....    MRSNE    r0,PSP
        0x0001960c:    b500        ..      PUSH     {lr}
        0x0001960e:    f7fffc08    ....    BL       _Fault ; 0x18e22
        0x00019612:    bd00        ..      POP      {pc}
    $d
        0x00019614:    e000ed04    ....    DCD    3758157060
        0x00019618:    00000000    ....    DCD    0
        0x0001961c:    00000000    ....    DCD    0
    $t
    .text._reset_section
    $v0
    __reset
    __start
        0x00019620:    2020                MOVS     r0,#0x20
        0x00019622:    f3808811    ....    MSR      BASEPRI,r0
        0x00019626:    4813        .H      LDR      r0,[pc,#76] ; [0x19674] = 0xc001fa08
        0x00019628:    f44f6180    O..a    MOV      r1,#0x400
        0x0001962c:    1840        @.      ADDS     r0,r0,r1
        0x0001962e:    f3808809    ....    MSR      PSP,r0
        0x00019632:    2002        .       MOVS     r0,#2
        0x00019634:    f3808814    ....    MSR      CONTROL,r0
        0x00019638:    f3bf8f6f    ..o.    ISB      
        0x0001963c:    f7faf9d0    ....    BL       HAL_DCACHE_InvalidAll ; 0x139e0
        0x00019640:    f7faf9a0    ....    BL       HAL_DCACHE_Enable ; 0x13984
        0x00019644:    f7faf954    ..T.    BL       HAL_ICACHE_Enable ; 0x138f0
        0x00019648:    f7faf998    ....    BL       HAL_ICACHE_Invalid ; 0x1397c
        0x0001964c:    490a        .I      LDR      r1,[pc,#40] ; [0x19678] = 0xe000ed04
        0x0001964e:    6808        .h      LDR      r0,[r1,#0]
        0x00019650:    f44f6200    O..b    MOV      r2,#0x800
        0x00019654:    ea000002    ....    AND      r0,r0,r2
        0x00019658:    2800        .(      CMP      r0,#0
        0x0001965a:    d009        ..      BEQ      0x19670 ; __reset + 80
        0x0001965c:    e7fe        ..      B        0x1965c ; __reset + 60
        0x0001965e:    4905        .I      LDR      r1,[pc,#20] ; [0x19674] = 0xc001fa08
        0x00019660:    f44f6080    O..`    MOV      r0,#0x400
        0x00019664:    1809        ..      ADDS     r1,r1,r0
        0x00019666:    f3ef8009    ....    MRS      r0,PSP
        0x0001966a:    4281        .B      CMP      r1,r0
        0x0001966c:    d000        ..      BEQ      0x19670 ; __reset + 80
        0x0001966e:    e7fe        ..      B        0x1966e ; __reset + 78
        0x00019670:    f7ffba9a    ....    B        _PrepC ; 0x18ba8
    $d
        0x00019674:    c001fa08    ....    DCD    3221355016
        0x00019678:    e000ed04    ....    DCD    3758157060
    $t
    i.__0printf$5
    __0printf$5
    __1printf$5
    __2printf
        0x0001967c:    b40f        ..      PUSH     {r0-r3}
        0x0001967e:    4b05        .K      LDR      r3,[pc,#20] ; [0x19694] = 0x1898b
        0x00019680:    b510        ..      PUSH     {r4,lr}
        0x00019682:    a903        ..      ADD      r1,sp,#0xc
        0x00019684:    4a04        .J      LDR      r2,[pc,#16] ; [0x19698] = 0xc001a25c
        0x00019686:    9802        ..      LDR      r0,[sp,#8]
        0x00019688:    f000f818    ....    BL       _printf_core ; 0x196bc
        0x0001968c:    bc10        ..      POP      {r4}
        0x0001968e:    f85dfb14    ]...    LDR      pc,[sp],#0x14
    $d
        0x00019692:    0000        ..      DCW    0
        0x00019694:    0001898b    ....    DCD    100747
        0x00019698:    c001a25c    \...    DCD    3221332572
    $t
    i.__scatterload_copy
    __scatterload_copy
        0x0001969c:    e002        ..      B        0x196a4 ; __scatterload_copy + 8
        0x0001969e:    c808        ..      LDM      r0!,{r3}
        0x000196a0:    1f12        ..      SUBS     r2,r2,#4
        0x000196a2:    c108        ..      STM      r1!,{r3}
        0x000196a4:    2a00        .*      CMP      r2,#0
        0x000196a6:    d1fa        ..      BNE      0x1969e ; __scatterload_copy + 2
        0x000196a8:    4770        pG      BX       lr
    i.__scatterload_null
    __scatterload_null
        0x000196aa:    4770        pG      BX       lr
    i.__scatterload_zeroinit
    __scatterload_zeroinit
        0x000196ac:    2000        .       MOVS     r0,#0
        0x000196ae:    e001        ..      B        0x196b4 ; __scatterload_zeroinit + 8
        0x000196b0:    c101        ..      STM      r1!,{r0}
        0x000196b2:    1f12        ..      SUBS     r2,r2,#4
        0x000196b4:    2a00        .*      CMP      r2,#0
        0x000196b6:    d1fb        ..      BNE      0x196b0 ; __scatterload_zeroinit + 4
        0x000196b8:    4770        pG      BX       lr
        0x000196ba:    0000        ..      MOVS     r0,r0
    i._printf_core
    _printf_core
        0x000196bc:    e92d4fff    -..O    PUSH     {r0-r11,lr}
        0x000196c0:    b08d        ..      SUB      sp,sp,#0x34
        0x000196c2:    469b        .F      MOV      r11,r3
        0x000196c4:    460f        .F      MOV      r7,r1
        0x000196c6:    4604        .F      MOV      r4,r0
        0x000196c8:    2600        .&      MOVS     r6,#0
        0x000196ca:    e006        ..      B        0x196da ; _printf_core + 30
        0x000196cc:    2825        %(      CMP      r0,#0x25
        0x000196ce:    d00b        ..      BEQ      0x196e8 ; _printf_core + 44
        0x000196d0:    465a        ZF      MOV      r2,r11
        0x000196d2:    990f        ..      LDR      r1,[sp,#0x3c]
        0x000196d4:    4790        .G      BLX      r2
        0x000196d6:    1c64        d.      ADDS     r4,r4,#1
        0x000196d8:    1c76        v.      ADDS     r6,r6,#1
        0x000196da:    7820         x      LDRB     r0,[r4,#0]
        0x000196dc:    2800        .(      CMP      r0,#0
        0x000196de:    d1f5        ..      BNE      0x196cc ; _printf_core + 16
        0x000196e0:    b011        ..      ADD      sp,sp,#0x44
        0x000196e2:    4630        0F      MOV      r0,r6
        0x000196e4:    e8bd8ff0    ....    POP      {r4-r11,pc}
        0x000196e8:    2500        .%      MOVS     r5,#0
        0x000196ea:    46a8        .F      MOV      r8,r5
        0x000196ec:    2201        ."      MOVS     r2,#1
        0x000196ee:    4998        .I      LDR      r1,[pc,#608] ; [0x19950] = 0x12809
        0x000196f0:    e000        ..      B        0x196f4 ; _printf_core + 56
        0x000196f2:    4305        .C      ORRS     r5,r5,r0
        0x000196f4:    f8143f01    ...?    LDRB     r3,[r4,#1]!
        0x000196f8:    3b20         ;      SUBS     r3,r3,#0x20
        0x000196fa:    fa02f003    ....    LSL      r0,r2,r3
        0x000196fe:    4208        .B      TST      r0,r1
        0x00019700:    d1f7        ..      BNE      0x196f2 ; _printf_core + 54
        0x00019702:    7820         x      LDRB     r0,[r4,#0]
        0x00019704:    282e        .(      CMP      r0,#0x2e
        0x00019706:    d117        ..      BNE      0x19738 ; _printf_core + 124
        0x00019708:    f8140f01    ....    LDRB     r0,[r4,#1]!
        0x0001970c:    f0450504    E...    ORR      r5,r5,#4
        0x00019710:    282a        *(      CMP      r0,#0x2a
        0x00019712:    d00e        ..      BEQ      0x19732 ; _printf_core + 118
        0x00019714:    f06f022f    o./.    MVN      r2,#0x2f
        0x00019718:    7820         x      LDRB     r0,[r4,#0]
        0x0001971a:    f1a00130    ..0.    SUB      r1,r0,#0x30
        0x0001971e:    2909        .)      CMP      r1,#9
        0x00019720:    d80a        ..      BHI      0x19738 ; _printf_core + 124
        0x00019722:    eb080188    ....    ADD      r1,r8,r8,LSL #2
        0x00019726:    eb020141    ..A.    ADD      r1,r2,r1,LSL #1
        0x0001972a:    eb000801    ....    ADD      r8,r0,r1
        0x0001972e:    1c64        d.      ADDS     r4,r4,#1
        0x00019730:    e7f2        ..      B        0x19718 ; _printf_core + 92
        0x00019732:    f8578b04    W...    LDR      r8,[r7],#4
        0x00019736:    1c64        d.      ADDS     r4,r4,#1
        0x00019738:    7820         x      LDRB     r0,[r4,#0]
        0x0001973a:    286c        l(      CMP      r0,#0x6c
        0x0001973c:    d00d        ..      BEQ      0x1975a ; _printf_core + 158
        0x0001973e:    dc04        ..      BGT      0x1974a ; _printf_core + 142
        0x00019740:    284c        L(      CMP      r0,#0x4c
        0x00019742:    d012        ..      BEQ      0x1976a ; _printf_core + 174
        0x00019744:    286a        j(      CMP      r0,#0x6a
        0x00019746:    d111        ..      BNE      0x1976c ; _printf_core + 176
        0x00019748:    e004        ..      B        0x19754 ; _printf_core + 152
        0x0001974a:    2874        t(      CMP      r0,#0x74
        0x0001974c:    d00d        ..      BEQ      0x1976a ; _printf_core + 174
        0x0001974e:    287a        z(      CMP      r0,#0x7a
        0x00019750:    d10c        ..      BNE      0x1976c ; _printf_core + 176
        0x00019752:    e00a        ..      B        0x1976a ; _printf_core + 174
        0x00019754:    f4451500    E...    ORR      r5,r5,#0x200000
        0x00019758:    e007        ..      B        0x1976a ; _printf_core + 174
        0x0001975a:    7861        ax      LDRB     r1,[r4,#1]
        0x0001975c:    f4451580    E...    ORR      r5,r5,#0x100000
        0x00019760:    4281        .B      CMP      r1,r0
        0x00019762:    d102        ..      BNE      0x1976a ; _printf_core + 174
        0x00019764:    1c64        d.      ADDS     r4,r4,#1
        0x00019766:    f5051580    ....    ADD      r5,r5,#0x100000
        0x0001976a:    1c64        d.      ADDS     r4,r4,#1
        0x0001976c:    7822        "x      LDRB     r2,[r4,#0]
        0x0001976e:    2a69        i*      CMP      r2,#0x69
        0x00019770:    d045        E.      BEQ      0x197fe ; _printf_core + 322
        0x00019772:    dc08        ..      BGT      0x19786 ; _printf_core + 202
        0x00019774:    2a00        .*      CMP      r2,#0
        0x00019776:    d0b3        ..      BEQ      0x196e0 ; _printf_core + 36
        0x00019778:    2a58        X*      CMP      r2,#0x58
        0x0001977a:    d069        i.      BEQ      0x19850 ; _printf_core + 404
        0x0001977c:    2a63        c*      CMP      r2,#0x63
        0x0001977e:    d010        ..      BEQ      0x197a2 ; _printf_core + 230
        0x00019780:    2a64        d*      CMP      r2,#0x64
        0x00019782:    d108        ..      BNE      0x19796 ; _printf_core + 218
        0x00019784:    e03b        ;.      B        0x197fe ; _printf_core + 322
        0x00019786:    2a70        p*      CMP      r2,#0x70
        0x00019788:    d067        g.      BEQ      0x1985a ; _printf_core + 414
        0x0001978a:    2a73        s*      CMP      r2,#0x73
        0x0001978c:    d013        ..      BEQ      0x197b6 ; _printf_core + 250
        0x0001978e:    2a75        u*      CMP      r2,#0x75
        0x00019790:    d05c        \.      BEQ      0x1984c ; _printf_core + 400
        0x00019792:    2a78        x*      CMP      r2,#0x78
        0x00019794:    d05c        \.      BEQ      0x19850 ; _printf_core + 404
        0x00019796:    4610        .F      MOV      r0,r2
        0x00019798:    465a        ZF      MOV      r2,r11
        0x0001979a:    990f        ..      LDR      r1,[sp,#0x3c]
        0x0001979c:    4790        .G      BLX      r2
        0x0001979e:    1c76        v.      ADDS     r6,r6,#1
        0x000197a0:    e0d3        ..      B        0x1994a ; _printf_core + 654
        0x000197a2:    f8170b04    ....    LDRB     r0,[r7],#4
        0x000197a6:    f88d0000    ....    STRB     r0,[sp,#0]
        0x000197aa:    2000        .       MOVS     r0,#0
        0x000197ac:    f88d0001    ....    STRB     r0,[sp,#1]
        0x000197b0:    46e9        .F      MOV      r9,sp
        0x000197b2:    2001        .       MOVS     r0,#1
        0x000197b4:    e003        ..      B        0x197be ; _printf_core + 258
        0x000197b6:    f8579b04    W...    LDR      r9,[r7],#4
        0x000197ba:    f04f30ff    O..0    MOV      r0,#0xffffffff
        0x000197be:    0769        i.      LSLS     r1,r5,#29
        0x000197c0:    f04f0500    O...    MOV      r5,#0
        0x000197c4:    d401        ..      BMI      0x197ca ; _printf_core + 270
        0x000197c6:    e00a        ..      B        0x197de ; _printf_core + 290
        0x000197c8:    1c6d        m.      ADDS     r5,r5,#1
        0x000197ca:    4545        EE      CMP      r5,r8
        0x000197cc:    da0d        ..      BGE      0x197ea ; _printf_core + 302
        0x000197ce:    4285        .B      CMP      r5,r0
        0x000197d0:    dbfa        ..      BLT      0x197c8 ; _printf_core + 268
        0x000197d2:    f8191005    ....    LDRB     r1,[r9,r5]
        0x000197d6:    2900        .)      CMP      r1,#0
        0x000197d8:    d1f6        ..      BNE      0x197c8 ; _printf_core + 268
        0x000197da:    e006        ..      B        0x197ea ; _printf_core + 302
        0x000197dc:    1c6d        m.      ADDS     r5,r5,#1
        0x000197de:    4285        .B      CMP      r5,r0
        0x000197e0:    dbfc        ..      BLT      0x197dc ; _printf_core + 288
        0x000197e2:    f8191005    ....    LDRB     r1,[r9,r5]
        0x000197e6:    2900        .)      CMP      r1,#0
        0x000197e8:    d1f8        ..      BNE      0x197dc ; _printf_core + 288
        0x000197ea:    442e        .D      ADD      r6,r6,r5
        0x000197ec:    e004        ..      B        0x197f8 ; _printf_core + 316
        0x000197ee:    f8190b01    ....    LDRB     r0,[r9],#1
        0x000197f2:    465a        ZF      MOV      r2,r11
        0x000197f4:    990f        ..      LDR      r1,[sp,#0x3c]
        0x000197f6:    4790        .G      BLX      r2
        0x000197f8:    1e6d        m.      SUBS     r5,r5,#1
        0x000197fa:    d2f8        ..      BCS      0x197ee ; _printf_core + 306
        0x000197fc:    e0a5        ..      B        0x1994a ; _printf_core + 654
        0x000197fe:    200a        .       MOVS     r0,#0xa
        0x00019800:    2100        .!      MOVS     r1,#0
        0x00019802:    e9cd0108    ....    STRD     r0,r1,[sp,#0x20]
        0x00019806:    f3c55002    ...P    UBFX     r0,r5,#20,#3
        0x0001980a:    2802        .(      CMP      r0,#2
        0x0001980c:    d00d        ..      BEQ      0x1982a ; _printf_core + 366
        0x0001980e:    cf01        ..      LDM      r7!,{r0}
        0x00019810:    17c1        ..      ASRS     r1,r0,#31
        0x00019812:    1e03        ..      SUBS     r3,r0,#0
        0x00019814:    f1710300    q...    SBCS     r3,r1,#0
        0x00019818:    da0d        ..      BGE      0x19836 ; _printf_core + 378
        0x0001981a:    f04f0c00    O...    MOV      r12,#0
        0x0001981e:    ebd0000c    ....    RSBS     r0,r0,r12
        0x00019822:    eb6c0101    l...    SBC      r1,r12,r1
        0x00019826:    232d        -#      MOVS     r3,#0x2d
        0x00019828:    e008        ..      B        0x1983c ; _printf_core + 384
        0x0001982a:    1dff        ..      ADDS     r7,r7,#7
        0x0001982c:    f0270707    '...    BIC      r7,r7,#7
        0x00019830:    e8f70102    ....    LDRD     r0,r1,[r7],#8
        0x00019834:    e7ed        ..      B        0x19812 ; _printf_core + 342
        0x00019836:    052b        +.      LSLS     r3,r5,#20
        0x00019838:    d504        ..      BPL      0x19844 ; _printf_core + 392
        0x0001983a:    232b        +#      MOVS     r3,#0x2b
        0x0001983c:    f88d3028    ..(0    STRB     r3,[sp,#0x28]
        0x00019840:    2301        .#      MOVS     r3,#1
        0x00019842:    e03b        ;.      B        0x198bc ; _printf_core + 512
        0x00019844:    07eb        ..      LSLS     r3,r5,#31
        0x00019846:    d039        9.      BEQ      0x198bc ; _printf_core + 512
        0x00019848:    2320         #      MOVS     r3,#0x20
        0x0001984a:    e7f7        ..      B        0x1983c ; _printf_core + 384
        0x0001984c:    200a        .       MOVS     r0,#0xa
        0x0001984e:    e000        ..      B        0x19852 ; _printf_core + 406
        0x00019850:    2010        .       MOVS     r0,#0x10
        0x00019852:    2100        .!      MOVS     r1,#0
        0x00019854:    e9cd0108    ....    STRD     r0,r1,[sp,#0x20]
        0x00019858:    e007        ..      B        0x1986a ; _printf_core + 430
        0x0001985a:    2010        .       MOVS     r0,#0x10
        0x0001985c:    2100        .!      MOVS     r1,#0
        0x0001985e:    f0450504    E...    ORR      r5,r5,#4
        0x00019862:    e9cd0108    ....    STRD     r0,r1,[sp,#0x20]
        0x00019866:    f04f0808    O...    MOV      r8,#8
        0x0001986a:    f3c55002    ...P    UBFX     r0,r5,#20,#3
        0x0001986e:    2802        .(      CMP      r0,#2
        0x00019870:    d00f        ..      BEQ      0x19892 ; _printf_core + 470
        0x00019872:    cf01        ..      LDM      r7!,{r0}
        0x00019874:    2100        .!      MOVS     r1,#0
        0x00019876:    f04f0a00    O...    MOV      r10,#0
        0x0001987a:    072b        +.      LSLS     r3,r5,#28
        0x0001987c:    d51f        ..      BPL      0x198be ; _printf_core + 514
        0x0001987e:    2a70        p*      CMP      r2,#0x70
        0x00019880:    d00d        ..      BEQ      0x1989e ; _printf_core + 482
        0x00019882:    e9ddc308    ....    LDRD     r12,r3,[sp,#0x20]
        0x00019886:    f08c0c10    ....    EOR      r12,r12,#0x10
        0x0001988a:    ea5c0c03    \...    ORRS     r12,r12,r3
        0x0001988e:    d00c        ..      BEQ      0x198aa ; _printf_core + 494
        0x00019890:    e015        ..      B        0x198be ; _printf_core + 514
        0x00019892:    1dff        ..      ADDS     r7,r7,#7
        0x00019894:    f0270707    '...    BIC      r7,r7,#7
        0x00019898:    e8f70102    ....    LDRD     r0,r1,[r7],#8
        0x0001989c:    e7eb        ..      B        0x19876 ; _printf_core + 442
        0x0001989e:    2240        @"      MOVS     r2,#0x40
        0x000198a0:    f88d2028    ..(     STRB     r2,[sp,#0x28]
        0x000198a4:    f04f0a01    O...    MOV      r10,#1
        0x000198a8:    e00b        ..      B        0x198c2 ; _printf_core + 518
        0x000198aa:    ea500301    P...    ORRS     r3,r0,r1
        0x000198ae:    d006        ..      BEQ      0x198be ; _printf_core + 514
        0x000198b0:    2330        0#      MOVS     r3,#0x30
        0x000198b2:    f88d3028    ..(0    STRB     r3,[sp,#0x28]
        0x000198b6:    f88d2029    ..)     STRB     r2,[sp,#0x29]
        0x000198ba:    2302        .#      MOVS     r3,#2
        0x000198bc:    469a        .F      MOV      r10,r3
        0x000198be:    2a58        X*      CMP      r2,#0x58
        0x000198c0:    d004        ..      BEQ      0x198cc ; _printf_core + 528
        0x000198c2:    a224        $.      ADR      r2,{pc}+0x92 ; 0x19954
        0x000198c4:    f10d0920    .. .    ADD      r9,sp,#0x20
        0x000198c8:    920b        ..      STR      r2,[sp,#0x2c]
        0x000198ca:    e009        ..      B        0x198e0 ; _printf_core + 548
        0x000198cc:    a226        &.      ADR      r2,{pc}+0x9c ; 0x19968
        0x000198ce:    e7f9        ..      B        0x198c4 ; _printf_core + 520
        0x000198d0:    e9dd2308    ...#    LDRD     r2,r3,[sp,#0x20]
        0x000198d4:    f7fffdd8    ....    BL       __aeabi_uldivmod ; 0x19488
        0x000198d8:    9b0b        ..      LDR      r3,[sp,#0x2c]
        0x000198da:    5c9b        .\      LDRB     r3,[r3,r2]
        0x000198dc:    f8093d01    ...=    STRB     r3,[r9,#-1]!
        0x000198e0:    ea500201    P...    ORRS     r2,r0,r1
        0x000198e4:    d1f4        ..      BNE      0x198d0 ; _printf_core + 532
        0x000198e6:    ebad0009    ....    SUB      r0,sp,r9
        0x000198ea:    3020         0      ADDS     r0,r0,#0x20
        0x000198ec:    9008        ..      STR      r0,[sp,#0x20]
        0x000198ee:    0768        h.      LSLS     r0,r5,#29
        0x000198f0:    d401        ..      BMI      0x198f6 ; _printf_core + 570
        0x000198f2:    f04f0801    O...    MOV      r8,#1
        0x000198f6:    9908        ..      LDR      r1,[sp,#0x20]
        0x000198f8:    4588        .E      CMP      r8,r1
        0x000198fa:    dd02        ..      BLE      0x19902 ; _printf_core + 582
        0x000198fc:    eba80001    ....    SUB      r0,r8,r1
        0x00019900:    e000        ..      B        0x19904 ; _printf_core + 584
        0x00019902:    2000        .       MOVS     r0,#0
        0x00019904:    4680        .F      MOV      r8,r0
        0x00019906:    2500        .%      MOVS     r5,#0
        0x00019908:    e006        ..      B        0x19918 ; _printf_core + 604
        0x0001990a:    a80a        ..      ADD      r0,sp,#0x28
        0x0001990c:    465a        ZF      MOV      r2,r11
        0x0001990e:    5d40        @]      LDRB     r0,[r0,r5]
        0x00019910:    990f        ..      LDR      r1,[sp,#0x3c]
        0x00019912:    4790        .G      BLX      r2
        0x00019914:    1c6d        m.      ADDS     r5,r5,#1
        0x00019916:    1c76        v.      ADDS     r6,r6,#1
        0x00019918:    4555        UE      CMP      r5,r10
        0x0001991a:    dbf6        ..      BLT      0x1990a ; _printf_core + 590
        0x0001991c:    e004        ..      B        0x19928 ; _printf_core + 620
        0x0001991e:    2030        0       MOVS     r0,#0x30
        0x00019920:    465a        ZF      MOV      r2,r11
        0x00019922:    990f        ..      LDR      r1,[sp,#0x3c]
        0x00019924:    4790        .G      BLX      r2
        0x00019926:    1c76        v.      ADDS     r6,r6,#1
        0x00019928:    f1b80100    ....    SUBS     r1,r8,#0
        0x0001992c:    f1a80801    ....    SUB      r8,r8,#1
        0x00019930:    dcf5        ..      BGT      0x1991e ; _printf_core + 610
        0x00019932:    e005        ..      B        0x19940 ; _printf_core + 644
        0x00019934:    f8190b01    ....    LDRB     r0,[r9],#1
        0x00019938:    465a        ZF      MOV      r2,r11
        0x0001993a:    990f        ..      LDR      r1,[sp,#0x3c]
        0x0001993c:    4790        .G      BLX      r2
        0x0001993e:    1c76        v.      ADDS     r6,r6,#1
        0x00019940:    9908        ..      LDR      r1,[sp,#0x20]
        0x00019942:    1e48        H.      SUBS     r0,r1,#1
        0x00019944:    9008        ..      STR      r0,[sp,#0x20]
        0x00019946:    2900        .)      CMP      r1,#0
        0x00019948:    dcf4        ..      BGT      0x19934 ; _printf_core + 632
        0x0001994a:    1c64        d.      ADDS     r4,r4,#1
        0x0001994c:    e6c5        ..      B        0x196da ; _printf_core + 30
    $d
        0x0001994e:    0000        ..      DCW    0
        0x00019950:    00012809    .(..    DCD    75785
        0x00019954:    33323130    0123    DCD    858927408
        0x00019958:    37363534    4567    DCD    926299444
        0x0001995c:    62613938    89ab    DCD    1650538808
        0x00019960:    66656463    cdef    DCD    1717920867
        0x00019964:    00000000    ....    DCD    0
        0x00019968:    33323130    0123    DCD    858927408
        0x0001996c:    37363534    4567    DCD    926299444
        0x00019970:    42413938    89AB    DCD    1111570744
        0x00019974:    46454443    CDEF    DCD    1178944579
        0x00019978:    00000000    ....    DCD    0
    $t
    i.free
    free
        0x0001997c:    b510        ..      PUSH     {r4,lr}
        0x0001997e:    2800        .(      CMP      r0,#0
        0x00019980:    d021        !.      BEQ      0x199c6 ; free + 74
        0x00019982:    4b11        .K      LDR      r3,[pc,#68] ; [0x199c8] = 0xc001a260
        0x00019984:    2200        ."      MOVS     r2,#0
        0x00019986:    1f00        ..      SUBS     r0,r0,#4
        0x00019988:    6819        .h      LDR      r1,[r3,#0]
        0x0001998a:    e003        ..      B        0x19994 ; free + 24
        0x0001998c:    4281        .B      CMP      r1,r0
        0x0001998e:    d803        ..      BHI      0x19998 ; free + 28
        0x00019990:    460a        .F      MOV      r2,r1
        0x00019992:    6849        Ih      LDR      r1,[r1,#4]
        0x00019994:    2900        .)      CMP      r1,#0
        0x00019996:    d1f9        ..      BNE      0x1998c ; free + 16
        0x00019998:    b152        R.      CBZ      r2,0x199b0 ; free + 52
        0x0001999a:    6813        .h      LDR      r3,[r2,#0]
        0x0001999c:    1a84        ..      SUBS     r4,r0,r2
        0x0001999e:    429c        .B      CMP      r4,r3
        0x000199a0:    d104        ..      BNE      0x199ac ; free + 48
        0x000199a2:    6800        .h      LDR      r0,[r0,#0]
        0x000199a4:    4418        .D      ADD      r0,r0,r3
        0x000199a6:    6010        .`      STR      r0,[r2,#0]
        0x000199a8:    4610        .F      MOV      r0,r2
        0x000199aa:    e002        ..      B        0x199b2 ; free + 54
        0x000199ac:    6050        P`      STR      r0,[r2,#4]
        0x000199ae:    e000        ..      B        0x199b2 ; free + 54
        0x000199b0:    6018        .`      STR      r0,[r3,#0]
        0x000199b2:    b139        9.      CBZ      r1,0x199c4 ; free + 72
        0x000199b4:    6802        .h      LDR      r2,[r0,#0]
        0x000199b6:    1a0b        ..      SUBS     r3,r1,r0
        0x000199b8:    4293        .B      CMP      r3,r2
        0x000199ba:    d103        ..      BNE      0x199c4 ; free + 72
        0x000199bc:    680b        .h      LDR      r3,[r1,#0]
        0x000199be:    441a        .D      ADD      r2,r2,r3
        0x000199c0:    6002        .`      STR      r2,[r0,#0]
        0x000199c2:    6849        Ih      LDR      r1,[r1,#4]
        0x000199c4:    6041        A`      STR      r1,[r0,#4]
        0x000199c6:    bd10        ..      POP      {r4,pc}
    $d
        0x000199c8:    c001a260    `...    DCD    3221332576
    $t
    i.malloc
    malloc
        0x000199cc:    b5f0        ..      PUSH     {r4-r7,lr}
        0x000199ce:    300b        .0      ADDS     r0,r0,#0xb
        0x000199d0:    4d15        .M      LDR      r5,[pc,#84] ; [0x19a28] = 0xc001a264
        0x000199d2:    f0200107     ...    BIC      r1,r0,#7
        0x000199d6:    2400        .$      MOVS     r4,#0
        0x000199d8:    4a14        .J      LDR      r2,[pc,#80] ; [0x19a2c] = 0xc001a260
        0x000199da:    e00f        ..      B        0x199fc ; malloc + 48
        0x000199dc:    6803        .h      LDR      r3,[r0,#0]
        0x000199de:    428b        .B      CMP      r3,r1
        0x000199e0:    d30b        ..      BCC      0x199fa ; malloc + 46
        0x000199e2:    428b        .B      CMP      r3,r1
        0x000199e4:    d905        ..      BLS      0x199f2 ; malloc + 38
        0x000199e6:    1a5e        ^.      SUBS     r6,r3,r1
        0x000199e8:    1843        C.      ADDS     r3,r0,r1
        0x000199ea:    6847        Gh      LDR      r7,[r0,#4]
        0x000199ec:    e9c36700    ...g    STRD     r6,r7,[r3,#0]
        0x000199f0:    e000        ..      B        0x199f4 ; malloc + 40
        0x000199f2:    6843        Ch      LDR      r3,[r0,#4]
        0x000199f4:    6013        .`      STR      r3,[r2,#0]
        0x000199f6:    c002        ..      STM      r0!,{r1}
        0x000199f8:    e004        ..      B        0x19a04 ; malloc + 56
        0x000199fa:    1d02        ..      ADDS     r2,r0,#4
        0x000199fc:    6810        .h      LDR      r0,[r2,#0]
        0x000199fe:    2800        .(      CMP      r0,#0
        0x00019a00:    d1ec        ..      BNE      0x199dc ; malloc + 16
        0x00019a02:    4620         F      MOV      r0,r4
        0x00019a04:    2800        .(      CMP      r0,#0
        0x00019a06:    d102        ..      BNE      0x19a0e ; malloc + 66
        0x00019a08:    6828        (h      LDR      r0,[r5,#0]
        0x00019a0a:    b108        ..      CBZ      r0,0x19a10 ; malloc + 68
        0x00019a0c:    2000        .       MOVS     r0,#0
        0x00019a0e:    bdf0        ..      POP      {r4-r7,pc}
        0x00019a10:    4a06        .J      LDR      r2,[pc,#24] ; [0x19a2c] = 0xc001a260
        0x00019a12:    4807        .H      LDR      r0,[pc,#28] ; [0x19a30] = 0xc001a7a4
        0x00019a14:    6010        .`      STR      r0,[r2,#0]
        0x00019a16:    4a07        .J      LDR      r2,[pc,#28] ; [0x19a34] = 0xc001a9a0
        0x00019a18:    1a12        ..      SUBS     r2,r2,r0
        0x00019a1a:    f0220207    "...    BIC      r2,r2,#7
        0x00019a1e:    e9c02400    ...$    STRD     r2,r4,[r0,#0]
        0x00019a22:    2001        .       MOVS     r0,#1
        0x00019a24:    6028        (`      STR      r0,[r5,#0]
        0x00019a26:    e7d7        ..      B        0x199d8 ; malloc + 12
    $d
        0x00019a28:    c001a264    d...    DCD    3221332580
        0x00019a2c:    c001a260    `...    DCD    3221332576
        0x00019a30:    c001a7a4    ....    DCD    3221333924
        0x00019a34:    c001a9a0    ....    DCD    3221334432
    $d.realdata
    .constdata
    uart_gm_dev_cfg_0
        0x00019a38:    40004000    .@.@    DCD    1073758208
        0x00019a3c:    0bebc200    ....    DCD    200000000
        0x00019a40:    000104f9    ....    DCD    66809
    .constdata
    uart_gm_dev_cfg_1
        0x00019a44:    40005000    .P.@    DCD    1073762304
        0x00019a48:    0bebc200    ....    DCD    200000000
        0x00019a4c:    000104f9    ....    DCD    66809
    .constdata
    uart_gm_dev_cfg_2
        0x00019a50:    40006000    .`.@    DCD    1073766400
        0x00019a54:    0bebc200    ....    DCD    200000000
        0x00019a58:    000104f9    ....    DCD    66809
    .constdata
    uart_gm_driver_api
        0x00019a5c:    00010469    i...    DCD    66665
        0x00019a60:    00010489    ....    DCD    66697
        0x00019a64:    0001049b    ....    DCD    66715
        0x00019a68:    0001056b    k...    DCD    66923
        0x00019a6c:    00010593    ....    DCD    66963
        0x00019a70:    000105bb    ....    DCD    67003
        0x00019a74:    000105c7    ....    DCD    67015
        0x00019a78:    000105d3    ....    DCD    67027
        0x00019a7c:    000105dd    ....    DCD    67037
        0x00019a80:    000105e9    ....    DCD    67049
        0x00019a84:    000105f5    ....    DCD    67061
        0x00019a88:    000105ff    ....    DCD    67071
        0x00019a8c:    00010609    ....    DCD    67081
        0x00019a90:    00010613    ....    DCD    67091
        0x00019a94:    0001061d    ....    DCD    67101
        0x00019a98:    0001064d    M...    DCD    67149
        0x00019a9c:    00010651    Q...    DCD    67153
    .constdata
    api_funcs
        0x00019aa0:    000109ef    ....    DCD    68079
        0x00019aa4:    00010a27    '...    DCD    68135
        0x00019aa8:    00010bd9    ....    DCD    68569
        0x00019aac:    00010749    I...    DCD    67401
        0x00019ab0:    00010793    ....    DCD    67475
        0x00019ab4:    000107c1    ....    DCD    67521
        0x00019ab8:    00000000    ....    DCD    0
    .constdata
    gpio_gm_a_config
        0x00019abc:    40010000    ...@    DCD    1073807360
        0x00019ac0:    00000005    ....    DCD    5
    .constdata
    gpio_gm_b_config
        0x00019ac4:    40011000    ...@    DCD    1073811456
        0x00019ac8:    00000006    ....    DCD    6
    .constdata
    gpio_gm_c_config
        0x00019acc:    40012000    . .@    DCD    1073815552
        0x00019ad0:    00000007    ....    DCD    7
    .constdata
    gpio_gm_d_config
        0x00019ad4:    40013000    .0.@    DCD    1073819648
        0x00019ad8:    00000008    ....    DCD    8
    .constdata
    gpio_gm_e_config
        0x00019adc:    40014000    .@.@    DCD    1073823744
        0x00019ae0:    00000027    '...    DCD    39
    .constdata
    gpio_gm_f_config
        0x00019ae4:    40015000    .P.@    DCD    1073827840
        0x00019ae8:    00000028    (...    DCD    40
    .constdata
    gpio_gm_g_config
        0x00019aec:    40016000    .`.@    DCD    1073831936
        0x00019af0:    00000029    )...    DCD    41
    .constdata
    gpio_gm_h_config
        0x00019af4:    40017000    .p.@    DCD    1073836032
        0x00019af8:    0000002a    *...    DCD    42
    .constdata
    gpio_gm_i_config
        0x00019afc:    40018000    ...@    DCD    1073840128
        0x00019b00:    0000002b    +...    DCD    43
    .constdata
    gpio_gm_j_config
        0x00019b04:    40019000    ...@    DCD    1073844224
        0x00019b08:    00000028    (...    DCD    40
    .constdata
    gpio_gm_k_config
        0x00019b0c:    4001a000    ...@    DCD    1073848320
        0x00019b10:    0000002d    -...    DCD    45
    .constdata
    pinmux_gm_driver_api
        0x00019b14:    00010d89    ....    DCD    69001
        0x00019b18:    00010d95    ....    DCD    69013
        0x00019b1c:    00010da1    ....    DCD    69025
        0x00019b20:    00010da7    ....    DCD    69031
    .constdata
    iwdg_gm_api
        0x00019b24:    00010db1    ....    DCD    69041
        0x00019b28:    00010dc1    ....    DCD    69057
        0x00019b2c:    00010e19    ....    DCD    69145
        0x00019b30:    00010dc3    ....    DCD    69059
        0x00019b34:    00010e37    7...    DCD    69175
    .constdata
    iwdg_gm_cfg
        0x00019b38:    40008000    ...@    DCD    1073774592
    .constdata
    s_GPIOBases
        0x00019b3c:    40010000    ...@    DCD    1073807360
        0x00019b40:    40011000    ...@    DCD    1073811456
        0x00019b44:    40012000    . .@    DCD    1073815552
        0x00019b48:    40013000    .0.@    DCD    1073819648
        0x00019b4c:    40014000    .@.@    DCD    1073823744
        0x00019b50:    40015000    .P.@    DCD    1073827840
        0x00019b54:    40016000    .`.@    DCD    1073831936
        0x00019b58:    40017000    .p.@    DCD    1073836032
        0x00019b5c:    40018000    ...@    DCD    1073840128
        0x00019b60:    40019000    ...@    DCD    1073844224
        0x00019b64:    4001a000    ...@    DCD    1073848320
    .constdata
        0x00019b68:    0000000c    ....    DCD    12
        0x00019b6c:    40011000    ...@    DCD    1073811456
        0x00019b70:    00000001    ....    DCD    1
        0x00019b74:    0000000d    ....    DCD    13
        0x00019b78:    40011000    ...@    DCD    1073811456
        0x00019b7c:    00000001    ....    DCD    1
    .constdata
    _main_thread
        0x00019b80:    c001d64c    L...    DCD    3221345868
    _idle_thread
        0x00019b84:    c001d6f4    ....    DCD    3221346036
    .constdata
    _k_neg_eagain
        0x00019b88:    fffffff5    ....    DCD    4294967285
    .conststrlit
        0x00019b8c:    00000000    ....    DCD    0
    .conststrlit
        0x00019b90:    54524155    UART    DCD    1414676821
        0x00019b94:    0000305f    _0..    DCD    12383
        0x00019b98:    54524155    UART    DCD    1414676821
        0x00019b9c:    0000315f    _1..    DCD    12639
        0x00019ba0:    54524155    UART    DCD    1414676821
        0x00019ba4:    0000325f    _2..    DCD    12895
    .conststrlit
        0x00019ba8:    00000000    ....    DCD    0
    .conststrlit
        0x00019bac:    4f495047    GPIO    DCD    1330204743
        0x00019bb0:    00000041    A...    DCD    65
        0x00019bb4:    4f495047    GPIO    DCD    1330204743
        0x00019bb8:    00000042    B...    DCD    66
        0x00019bbc:    4f495047    GPIO    DCD    1330204743
        0x00019bc0:    00000043    C...    DCD    67
        0x00019bc4:    4f495047    GPIO    DCD    1330204743
        0x00019bc8:    00000044    D...    DCD    68
        0x00019bcc:    4f495047    GPIO    DCD    1330204743
        0x00019bd0:    00000045    E...    DCD    69
        0x00019bd4:    4f495047    GPIO    DCD    1330204743
        0x00019bd8:    00000046    F...    DCD    70
        0x00019bdc:    4f495047    GPIO    DCD    1330204743
        0x00019be0:    00000047    G...    DCD    71
        0x00019be4:    4f495047    GPIO    DCD    1330204743
        0x00019be8:    00000048    H...    DCD    72
        0x00019bec:    4f495047    GPIO    DCD    1330204743
        0x00019bf0:    00000049    I...    DCD    73
        0x00019bf4:    4f495047    GPIO    DCD    1330204743
        0x00019bf8:    0000004a    J...    DCD    74
        0x00019bfc:    4f495047    GPIO    DCD    1330204743
        0x00019c00:    0000004b    K...    DCD    75
    .conststrlit
        0x00019c04:    74726f70    port    DCD    1953656688
        0x00019c08:    00000061    a...    DCD    97
        0x00019c0c:    74726f70    port    DCD    1953656688
        0x00019c10:    00000062    b...    DCD    98
        0x00019c14:    74726f70    port    DCD    1953656688
        0x00019c18:    00000063    c...    DCD    99
        0x00019c1c:    74726f70    port    DCD    1953656688
        0x00019c20:    00000064    d...    DCD    100
        0x00019c24:    74726f70    port    DCD    1953656688
        0x00019c28:    00000065    e...    DCD    101
        0x00019c2c:    74726f70    port    DCD    1953656688
        0x00019c30:    00000066    f...    DCD    102
        0x00019c34:    74726f70    port    DCD    1953656688
        0x00019c38:    00000067    g...    DCD    103
        0x00019c3c:    74726f70    port    DCD    1953656688
        0x00019c40:    00000068    h...    DCD    104
        0x00019c44:    74726f70    port    DCD    1953656688
        0x00019c48:    00000069    i...    DCD    105
        0x00019c4c:    74726f70    port    DCD    1953656688
        0x00019c50:    0000006a    j...    DCD    106
        0x00019c54:    74726f70    port    DCD    1953656688
        0x00019c58:    0000006b    k...    DCD    107
    .conststrlit
        0x00019c5c:    5f737973    sys_    DCD    1601403251
        0x00019c60:    636f6c63    cloc    DCD    1668246627
        0x00019c64:    0000006b    k...    DCD    107
    .conststrlit
        0x00019c68:    47445749    IWDG    DCD    1195661129
        0x00019c6c:    00000000    ....    DCD    0
    .conststrlit
        0x00019c70:    00000000    ....    DCD    0
    .conststrlit
        0x00019c74:    00000000    ....    DCD    0
    .conststrlit
        0x00019c78:    00000000    ....    DCD    0
    .conststrlit
        0x00019c7c:    00000000    ....    DCD    0
    .conststrlit
        0x00019c80:    00000000    ....    DCD    0
    .conststrlit
        0x00019c84:    6d6e6970    pinm    DCD    1835952496
        0x00019c88:    655f7875    ux_e    DCD    1700755573
        0x00019c8c:    315f6276    vb_1    DCD    828334710
        0x00019c90:    69703434    44pi    DCD    1768961076
        0x00019c94:    0000006e    n...    DCD    110
    Region$$Table$$Base
        0x00019c98:    00019d38    8...    DCD    105784
        0x00019c9c:    c0019d38    8...    DCD    3221331256
        0x00019ca0:    00000530    0...    DCD    1328
        0x00019ca4:    0001969c    ....    DCD    104092
        0x00019ca8:    0001a268    h...    DCD    107112
        0x00019cac:    c001a268    h...    DCD    3221332584
        0x00019cb0:    00000230    0...    DCD    560
        0x00019cb4:    0001969c    ....    DCD    104092
        0x00019cb8:    0001a498    ....    DCD    107672
        0x00019cbc:    c001a498    ....    DCD    3221333144
        0x00019cc0:    00000294    ....    DCD    660
        0x00019cc4:    0001969c    ....    DCD    104092
        0x00019cc8:    0001a72c    ,...    DCD    108332
        0x00019ccc:    c001a72c    ,...    DCD    3221333804
        0x00019cd0:    00000014    ....    DCD    20
        0x00019cd4:    0001969c    ....    DCD    104092
        0x00019cd8:    0001a740    @...    DCD    108352
        0x00019cdc:    c001a740    @...    DCD    3221333824
        0x00019ce0:    00000014    ....    DCD    20
        0x00019ce4:    0001969c    ....    DCD    104092
        0x00019ce8:    0001a754    T...    DCD    108372
        0x00019cec:    c001a754    T...    DCD    3221333844
        0x00019cf0:    0000001c    ....    DCD    28
        0x00019cf4:    0001969c    ....    DCD    104092
        0x00019cf8:    0001a770    p...    DCD    108400
        0x00019cfc:    c001a770    p...    DCD    3221333872
        0x00019d00:    00000030    0...    DCD    48
        0x00019d04:    0001969c    ....    DCD    104092
        0x00019d08:    0001a7a0    ....    DCD    108448
        0x00019d0c:    c001d79c    ....    DCD    3221346204
        0x00019d10:    0000266c    l&..    DCD    9836
        0x00019d14:    0001969c    ....    DCD    104092
        0x00019d18:    0001a7a0    ....    DCD    108448
        0x00019d1c:    c001a7a0    ....    DCD    3221333920
        0x00019d20:    00000600    ....    DCD    1536
        0x00019d24:    000196ac    ....    DCD    104108
        0x00019d28:    0001a7a0    ....    DCD    108448
        0x00019d2c:    c001ada0    ....    DCD    3221335456
        0x00019d30:    000029fc    .)..    DCD    10748
        0x00019d34:    000196ac    ....    DCD    104108
    Region$$Table$$Limit

** Section #4 'DATA_START_REGION' (SHT_PROGBITS) [SHF_ALLOC + SHF_WRITE]
    Size   : 1328 bytes (alignment 8)
    Address: 0xc0019d38


** Section #5 'DEVCONFIG_REGION' (SHT_PROGBITS) [SHF_ALLOC + SHF_WRITE]
    Size   : 560 bytes (alignment 4)
    Address: 0xc001a268


** Section #6 'DEVICE_PRE_KERNEL1_REGION' (SHT_PROGBITS) [SHF_ALLOC + SHF_WRITE]
    Size   : 660 bytes (alignment 4)
    Address: 0xc001a498


** Section #7 'DEVICE_PRE_KERNEL2_REGION' (SHT_PROGBITS) [SHF_ALLOC + SHF_WRITE]
    Size   : 20 bytes (alignment 4)
    Address: 0xc001a72c


** Section #8 'DEVICE_POST_KERNEL_REGION' (SHT_PROGBITS) [SHF_ALLOC + SHF_WRITE]
    Size   : 20 bytes (alignment 4)
    Address: 0xc001a740


** Section #9 'KMEM_POOL_REGION' (SHT_PROGBITS) [SHF_ALLOC + SHF_WRITE]
    Size   : 28 bytes (alignment 4)
    Address: 0xc001a754


** Section #10 'KSTACK_REGION' (SHT_PROGBITS) [SHF_ALLOC + SHF_WRITE]
    Size   : 48 bytes (alignment 4)
    Address: 0xc001a770


** Section #11 'DATA_END_REGION' (SHT_NOBITS) [SHF_ALLOC + SHF_WRITE]
    Size   : 1536 bytes (alignment 8)
    Address: 0xc001a7a0


** Section #12 'BSS_REGION' (SHT_NOBITS) [SHF_ALLOC + SHF_WRITE]
    Size   : 10748 bytes (alignment 512)
    Address: 0xc001ada0


** Section #13 'NOINIT_REGION' (SHT_PROGBITS) [SHF_ALLOC + SHF_WRITE]
    Size   : 9836 bytes (alignment 8)
    Address: 0xc001d79c


** Section #14 '.debug_abbrev' (SHT_PROGBITS)
    Size   : 1476 bytes


** Section #15 '.debug_frame' (SHT_PROGBITS)
    Size   : 12268 bytes


** Section #16 '.debug_info' (SHT_PROGBITS)
    Size   : 390972 bytes


** Section #17 '.debug_line' (SHT_PROGBITS)
    Size   : 83492 bytes


** Section #18 '.debug_loc' (SHT_PROGBITS)
    Size   : 38456 bytes


** Section #19 '.debug_macinfo' (SHT_PROGBITS)
    Size   : 462820 bytes


** Section #20 '.debug_pubnames' (SHT_PROGBITS)
    Size   : 11636 bytes


** Section #21 '.symtab' (SHT_SYMTAB)
    Size   : 21712 bytes (alignment 4)
    String table #22 '.strtab'
    Last local symbol no. 883


** Section #22 '.strtab' (SHT_STRTAB)
    Size   : 19884 bytes


** Section #23 '.note' (SHT_NOTE)
    Size   : 68 bytes (alignment 4)


** Section #24 '.comment' (SHT_PROGBITS)
    Size   : 98472 bytes


** Section #25 '.shstrtab' (SHT_STRTAB)
    Size   : 528 bytes


